SF:/workspace/agent-docs/db/src/connection.rs
FN:317,_RNCNvMNtCs9JGNcCDhGtu_2db10connectionNtB4_12DatabasePool10get_status0B6_
FN:258,_RNCNvMNtCs9JGNcCDhGtu_2db10connectionNtB4_12DatabasePool12health_check0B6_
FN:385,_RNCNvMNtCs9JGNcCDhGtu_2db10connectionNtB4_12DatabasePool16start_monitoring0B6_
FN:241,_RNCNvMNtCs9JGNcCDhGtu_2db10connectionNtB4_12DatabasePool4ping0B6_
FN:317,_RNvMNtCs9JGNcCDhGtu_2db10connectionNtB2_12DatabasePool10get_status
FN:151,_RNvMNtCs9JGNcCDhGtu_2db10connectionNtB2_12DatabasePool11with_config
FN:258,_RNvMNtCs9JGNcCDhGtu_2db10connectionNtB2_12DatabasePool12health_check
FN:336,_RNvMNtCs9JGNcCDhGtu_2db10connectionNtB2_12DatabasePool13get_pool_size
FN:383,_RNvMNtCs9JGNcCDhGtu_2db10connectionNtB2_12DatabasePool16start_monitoring
FN:346,_RNvMNtCs9JGNcCDhGtu_2db10connectionNtB2_12DatabasePool20get_metrics_snapshot
FN:129,_RNvMNtCs9JGNcCDhGtu_2db10connectionNtB2_12DatabasePool3new
FN:241,_RNvMNtCs9JGNcCDhGtu_2db10connectionNtB2_12DatabasePool4ping
FN:226,_RNvMNtCs9JGNcCDhGtu_2db10connectionNtB2_12DatabasePool4pool
FN:232,_RNvMNtCs9JGNcCDhGtu_2db10connectionNtB2_12DatabasePool6config
FN:89,_RNvMNtCs9JGNcCDhGtu_2db10connectionNtB2_12DatabasePool7connect
FN:140,_RNvMNtCs9JGNcCDhGtu_2db10connectionNtB2_12DatabasePool8from_env
FN:99,_RNvMNtCs9JGNcCDhGtu_2db10connectionNtB2_12DatabasePool9from_pool
FN:430,_RINvMNtCs9JGNcCDhGtu_2db10connectionNtB3_12DatabasePool20execute_with_metricspppEB5_
FN:434,_RNCINvMNtCs9JGNcCDhGtu_2db10connectionNtB5_12DatabasePool20execute_with_metricspppE0B7_
FN:177,_RNCNCNCNvMNtCs9JGNcCDhGtu_2db10connectionNtB8_12DatabasePool11with_config000Ba_
FN:193,_RNCNCNvMNtCs9JGNcCDhGtu_2db10connectionNtB6_12DatabasePool11with_config00B8_
FN:151,_RNCNvMNtCs9JGNcCDhGtu_2db10connectionNtB4_12DatabasePool11with_config0B6_
FN:129,_RNCNvMNtCs9JGNcCDhGtu_2db10connectionNtB4_12DatabasePool3new0B6_
FN:89,_RNCNvMNtCs9JGNcCDhGtu_2db10connectionNtB4_12DatabasePool7connect0B6_
FN:140,_RNCNvMNtCs9JGNcCDhGtu_2db10connectionNtB4_12DatabasePool8from_env0B6_
FN:177,_RNCNCNCNvMNtCs9JGNcCDhGtu_2db10connectionNtB8_12DatabasePool11with_config000CslijQrqBcbjW_16crate_management
FN:193,_RNCNCNvMNtCs9JGNcCDhGtu_2db10connectionNtB6_12DatabasePool11with_config00CslijQrqBcbjW_16crate_management
FN:151,_RNCNvMNtCs9JGNcCDhGtu_2db10connectionNtB4_12DatabasePool11with_config0CslijQrqBcbjW_16crate_management
FN:129,_RNCNvMNtCs9JGNcCDhGtu_2db10connectionNtB4_12DatabasePool3new0CslijQrqBcbjW_16crate_management
FN:89,_RNCNvMNtCs9JGNcCDhGtu_2db10connectionNtB4_12DatabasePool7connect0CslijQrqBcbjW_16crate_management
FN:177,_RNCNCNCNvMNtCs9JGNcCDhGtu_2db10connectionNtB8_12DatabasePool11with_config000CsfAMnWzr0b5l_18dynamic_tools_test
FN:193,_RNCNCNvMNtCs9JGNcCDhGtu_2db10connectionNtB6_12DatabasePool11with_config00CsfAMnWzr0b5l_18dynamic_tools_test
FN:151,_RNCNvMNtCs9JGNcCDhGtu_2db10connectionNtB4_12DatabasePool11with_config0CsfAMnWzr0b5l_18dynamic_tools_test
FN:129,_RNCNvMNtCs9JGNcCDhGtu_2db10connectionNtB4_12DatabasePool3new0CsfAMnWzr0b5l_18dynamic_tools_test
FN:177,_RNCNCNCNvMNtCs9JGNcCDhGtu_2db10connectionNtB8_12DatabasePool11with_config000CsiLqmQIFToUG_11http_server
FN:193,_RNCNCNvMNtCs9JGNcCDhGtu_2db10connectionNtB6_12DatabasePool11with_config00CsiLqmQIFToUG_11http_server
FN:151,_RNCNvMNtCs9JGNcCDhGtu_2db10connectionNtB4_12DatabasePool11with_config0CsiLqmQIFToUG_11http_server
FN:129,_RNCNvMNtCs9JGNcCDhGtu_2db10connectionNtB4_12DatabasePool3new0CsiLqmQIFToUG_11http_server
FN:177,_RNCNCNCNvMNtCs9JGNcCDhGtu_2db10connectionNtB8_12DatabasePool11with_config000Cs3p1S6jYGLeO_14initialize_mvp
FN:193,_RNCNCNvMNtCs9JGNcCDhGtu_2db10connectionNtB6_12DatabasePool11with_config00Cs3p1S6jYGLeO_14initialize_mvp
FN:151,_RNCNvMNtCs9JGNcCDhGtu_2db10connectionNtB4_12DatabasePool11with_config0Cs3p1S6jYGLeO_14initialize_mvp
FN:129,_RNCNvMNtCs9JGNcCDhGtu_2db10connectionNtB4_12DatabasePool3new0Cs3p1S6jYGLeO_14initialize_mvp
FN:177,_RNCNCNCNvMNtCs9JGNcCDhGtu_2db10connectionNtB8_12DatabasePool11with_config000CsaT2uQ1v1wmQ_18json_only_mvp_test
FN:193,_RNCNCNvMNtCs9JGNcCDhGtu_2db10connectionNtB6_12DatabasePool11with_config00CsaT2uQ1v1wmQ_18json_only_mvp_test
FN:151,_RNCNvMNtCs9JGNcCDhGtu_2db10connectionNtB4_12DatabasePool11with_config0CsaT2uQ1v1wmQ_18json_only_mvp_test
FN:129,_RNCNvMNtCs9JGNcCDhGtu_2db10connectionNtB4_12DatabasePool3new0CsaT2uQ1v1wmQ_18json_only_mvp_test
FN:177,_RNCNCNCNvMNtCs9JGNcCDhGtu_2db10connectionNtB8_12DatabasePool11with_config000CscIjP2UPxd8q_12routing_test
FN:193,_RNCNCNvMNtCs9JGNcCDhGtu_2db10connectionNtB6_12DatabasePool11with_config00CscIjP2UPxd8q_12routing_test
FN:151,_RNCNvMNtCs9JGNcCDhGtu_2db10connectionNtB4_12DatabasePool11with_config0CscIjP2UPxd8q_12routing_test
FN:129,_RNCNvMNtCs9JGNcCDhGtu_2db10connectionNtB4_12DatabasePool3new0CscIjP2UPxd8q_12routing_test
FN:177,_RNCNCNCNvMNtCs9JGNcCDhGtu_2db10connectionNtB8_12DatabasePool11with_config000CsgCvF62eLOYw_24task_11_acceptance_tests
FN:193,_RNCNCNvMNtCs9JGNcCDhGtu_2db10connectionNtB6_12DatabasePool11with_config00CsgCvF62eLOYw_24task_11_acceptance_tests
FN:151,_RNCNvMNtCs9JGNcCDhGtu_2db10connectionNtB4_12DatabasePool11with_config0CsgCvF62eLOYw_24task_11_acceptance_tests
FN:129,_RNCNvMNtCs9JGNcCDhGtu_2db10connectionNtB4_12DatabasePool3new0CsgCvF62eLOYw_24task_11_acceptance_tests
FN:177,_RNCNCNCNvMNtCs9JGNcCDhGtu_2db10connectionNtB8_12DatabasePool11with_config000CsbO9dfj64rIG_21transport_integration
FN:193,_RNCNCNvMNtCs9JGNcCDhGtu_2db10connectionNtB6_12DatabasePool11with_config00CsbO9dfj64rIG_21transport_integration
FN:151,_RNCNvMNtCs9JGNcCDhGtu_2db10connectionNtB4_12DatabasePool11with_config0CsbO9dfj64rIG_21transport_integration
FN:129,_RNCNvMNtCs9JGNcCDhGtu_2db10connectionNtB4_12DatabasePool3new0CsbO9dfj64rIG_21transport_integration
FNDA:0,_RNCNvMNtCs9JGNcCDhGtu_2db10connectionNtB4_12DatabasePool10get_status0B6_
FNDA:6,_RNCNvMNtCs9JGNcCDhGtu_2db10connectionNtB4_12DatabasePool12health_check0B6_
FNDA:0,_RNCNvMNtCs9JGNcCDhGtu_2db10connectionNtB4_12DatabasePool16start_monitoring0B6_
FNDA:0,_RNCNvMNtCs9JGNcCDhGtu_2db10connectionNtB4_12DatabasePool4ping0B6_
FNDA:0,_RNvMNtCs9JGNcCDhGtu_2db10connectionNtB2_12DatabasePool10get_status
FNDA:6,_RNvMNtCs9JGNcCDhGtu_2db10connectionNtB2_12DatabasePool11with_config
FNDA:6,_RNvMNtCs9JGNcCDhGtu_2db10connectionNtB2_12DatabasePool12health_check
FNDA:0,_RNvMNtCs9JGNcCDhGtu_2db10connectionNtB2_12DatabasePool13get_pool_size
FNDA:0,_RNvMNtCs9JGNcCDhGtu_2db10connectionNtB2_12DatabasePool16start_monitoring
FNDA:0,_RNvMNtCs9JGNcCDhGtu_2db10connectionNtB2_12DatabasePool20get_metrics_snapshot
FNDA:6,_RNvMNtCs9JGNcCDhGtu_2db10connectionNtB2_12DatabasePool3new
FNDA:0,_RNvMNtCs9JGNcCDhGtu_2db10connectionNtB2_12DatabasePool4ping
FNDA:24,_RNvMNtCs9JGNcCDhGtu_2db10connectionNtB2_12DatabasePool4pool
FNDA:0,_RNvMNtCs9JGNcCDhGtu_2db10connectionNtB2_12DatabasePool6config
FNDA:0,_RNvMNtCs9JGNcCDhGtu_2db10connectionNtB2_12DatabasePool7connect
FNDA:0,_RNvMNtCs9JGNcCDhGtu_2db10connectionNtB2_12DatabasePool8from_env
FNDA:0,_RNvMNtCs9JGNcCDhGtu_2db10connectionNtB2_12DatabasePool9from_pool
FNDA:0,_RINvMNtCs9JGNcCDhGtu_2db10connectionNtB3_12DatabasePool20execute_with_metricspppEB5_
FNDA:0,_RNCINvMNtCs9JGNcCDhGtu_2db10connectionNtB5_12DatabasePool20execute_with_metricspppE0B7_
FNDA:0,_RNCNCNCNvMNtCs9JGNcCDhGtu_2db10connectionNtB8_12DatabasePool11with_config000Ba_
FNDA:0,_RNCNCNvMNtCs9JGNcCDhGtu_2db10connectionNtB6_12DatabasePool11with_config00B8_
FNDA:0,_RNCNvMNtCs9JGNcCDhGtu_2db10connectionNtB4_12DatabasePool11with_config0B6_
FNDA:0,_RNCNvMNtCs9JGNcCDhGtu_2db10connectionNtB4_12DatabasePool3new0B6_
FNDA:0,_RNCNvMNtCs9JGNcCDhGtu_2db10connectionNtB4_12DatabasePool7connect0B6_
FNDA:0,_RNCNvMNtCs9JGNcCDhGtu_2db10connectionNtB4_12DatabasePool8from_env0B6_
FNDA:0,_RNCNCNCNvMNtCs9JGNcCDhGtu_2db10connectionNtB8_12DatabasePool11with_config000CslijQrqBcbjW_16crate_management
FNDA:0,_RNCNCNvMNtCs9JGNcCDhGtu_2db10connectionNtB6_12DatabasePool11with_config00CslijQrqBcbjW_16crate_management
FNDA:0,_RNCNvMNtCs9JGNcCDhGtu_2db10connectionNtB4_12DatabasePool11with_config0CslijQrqBcbjW_16crate_management
FNDA:0,_RNCNvMNtCs9JGNcCDhGtu_2db10connectionNtB4_12DatabasePool3new0CslijQrqBcbjW_16crate_management
FNDA:0,_RNCNvMNtCs9JGNcCDhGtu_2db10connectionNtB4_12DatabasePool7connect0CslijQrqBcbjW_16crate_management
FNDA:0,_RNCNCNCNvMNtCs9JGNcCDhGtu_2db10connectionNtB8_12DatabasePool11with_config000CsfAMnWzr0b5l_18dynamic_tools_test
FNDA:0,_RNCNCNvMNtCs9JGNcCDhGtu_2db10connectionNtB6_12DatabasePool11with_config00CsfAMnWzr0b5l_18dynamic_tools_test
FNDA:0,_RNCNvMNtCs9JGNcCDhGtu_2db10connectionNtB4_12DatabasePool11with_config0CsfAMnWzr0b5l_18dynamic_tools_test
FNDA:0,_RNCNvMNtCs9JGNcCDhGtu_2db10connectionNtB4_12DatabasePool3new0CsfAMnWzr0b5l_18dynamic_tools_test
FNDA:0,_RNCNCNCNvMNtCs9JGNcCDhGtu_2db10connectionNtB8_12DatabasePool11with_config000CsiLqmQIFToUG_11http_server
FNDA:0,_RNCNCNvMNtCs9JGNcCDhGtu_2db10connectionNtB6_12DatabasePool11with_config00CsiLqmQIFToUG_11http_server
FNDA:0,_RNCNvMNtCs9JGNcCDhGtu_2db10connectionNtB4_12DatabasePool11with_config0CsiLqmQIFToUG_11http_server
FNDA:0,_RNCNvMNtCs9JGNcCDhGtu_2db10connectionNtB4_12DatabasePool3new0CsiLqmQIFToUG_11http_server
FNDA:0,_RNCNCNCNvMNtCs9JGNcCDhGtu_2db10connectionNtB8_12DatabasePool11with_config000Cs3p1S6jYGLeO_14initialize_mvp
FNDA:0,_RNCNCNvMNtCs9JGNcCDhGtu_2db10connectionNtB6_12DatabasePool11with_config00Cs3p1S6jYGLeO_14initialize_mvp
FNDA:0,_RNCNvMNtCs9JGNcCDhGtu_2db10connectionNtB4_12DatabasePool11with_config0Cs3p1S6jYGLeO_14initialize_mvp
FNDA:0,_RNCNvMNtCs9JGNcCDhGtu_2db10connectionNtB4_12DatabasePool3new0Cs3p1S6jYGLeO_14initialize_mvp
FNDA:0,_RNCNCNCNvMNtCs9JGNcCDhGtu_2db10connectionNtB8_12DatabasePool11with_config000CsaT2uQ1v1wmQ_18json_only_mvp_test
FNDA:0,_RNCNCNvMNtCs9JGNcCDhGtu_2db10connectionNtB6_12DatabasePool11with_config00CsaT2uQ1v1wmQ_18json_only_mvp_test
FNDA:0,_RNCNvMNtCs9JGNcCDhGtu_2db10connectionNtB4_12DatabasePool11with_config0CsaT2uQ1v1wmQ_18json_only_mvp_test
FNDA:0,_RNCNvMNtCs9JGNcCDhGtu_2db10connectionNtB4_12DatabasePool3new0CsaT2uQ1v1wmQ_18json_only_mvp_test
FNDA:0,_RNCNCNCNvMNtCs9JGNcCDhGtu_2db10connectionNtB8_12DatabasePool11with_config000CscIjP2UPxd8q_12routing_test
FNDA:0,_RNCNCNvMNtCs9JGNcCDhGtu_2db10connectionNtB6_12DatabasePool11with_config00CscIjP2UPxd8q_12routing_test
FNDA:0,_RNCNvMNtCs9JGNcCDhGtu_2db10connectionNtB4_12DatabasePool11with_config0CscIjP2UPxd8q_12routing_test
FNDA:0,_RNCNvMNtCs9JGNcCDhGtu_2db10connectionNtB4_12DatabasePool3new0CscIjP2UPxd8q_12routing_test
FNDA:6,_RNCNCNCNvMNtCs9JGNcCDhGtu_2db10connectionNtB8_12DatabasePool11with_config000CsgCvF62eLOYw_24task_11_acceptance_tests
FNDA:6,_RNCNCNvMNtCs9JGNcCDhGtu_2db10connectionNtB6_12DatabasePool11with_config00CsgCvF62eLOYw_24task_11_acceptance_tests
FNDA:6,_RNCNvMNtCs9JGNcCDhGtu_2db10connectionNtB4_12DatabasePool11with_config0CsgCvF62eLOYw_24task_11_acceptance_tests
FNDA:6,_RNCNvMNtCs9JGNcCDhGtu_2db10connectionNtB4_12DatabasePool3new0CsgCvF62eLOYw_24task_11_acceptance_tests
FNDA:0,_RNCNCNCNvMNtCs9JGNcCDhGtu_2db10connectionNtB8_12DatabasePool11with_config000CsbO9dfj64rIG_21transport_integration
FNDA:0,_RNCNCNvMNtCs9JGNcCDhGtu_2db10connectionNtB6_12DatabasePool11with_config00CsbO9dfj64rIG_21transport_integration
FNDA:0,_RNCNvMNtCs9JGNcCDhGtu_2db10connectionNtB4_12DatabasePool11with_config0CsbO9dfj64rIG_21transport_integration
FNDA:0,_RNCNvMNtCs9JGNcCDhGtu_2db10connectionNtB4_12DatabasePool3new0CsbO9dfj64rIG_21transport_integration
FNF:25
FNH:9
DA:89,0
DA:90,0
DA:91,0
DA:99,0
DA:100,0
DA:102,0
DA:103,0
DA:104,0
DA:105,0
DA:106,0
DA:107,0
DA:108,0
DA:109,0
DA:110,0
DA:111,0
DA:112,0
DA:113,0
DA:114,0
DA:116,0
DA:117,0
DA:118,0
DA:119,0
DA:120,0
DA:121,0
DA:122,0
DA:129,6
DA:130,6
DA:132,6
DA:133,6
DA:140,0
DA:141,0
DA:142,0
DA:143,0
DA:151,6
DA:152,6
DA:153,6
DA:155,6
DA:157,6
DA:158,6
DA:161,6
DA:162,0
DA:164,6
DA:165,6
DA:167,6
DA:168,0
DA:170,6
DA:176,6
DA:177,6
DA:178,6
DA:179,6
DA:180,6
DA:181,6
DA:182,6
DA:184,6
DA:185,6
DA:186,6
DA:188,6
DA:189,6
DA:190,6
DA:192,6
DA:193,12
DA:194,6
DA:196,6
DA:197,6
DA:198,6
DA:199,6
DA:200,6
DA:201,6
DA:202,6
DA:203,6
DA:204,6
DA:205,6
DA:206,6
DA:207,6
DA:208,6
DA:210,6
DA:211,6
DA:212,6
DA:213,6
DA:214,6
DA:215,6
DA:218,6
DA:220,6
DA:221,6
DA:222,6
DA:226,24
DA:227,24
DA:228,24
DA:232,0
DA:233,0
DA:234,0
DA:241,0
DA:242,0
DA:244,0
DA:245,0
DA:246,0
DA:247,0
DA:248,0
DA:251,0
DA:258,6
DA:261,6
DA:262,6
DA:263,6
DA:264,0
DA:268,0
DA:269,0
DA:270,0
DA:271,0
DA:272,0
DA:273,0
DA:274,0
DA:275,0
DA:276,0
DA:279,0
DA:280,0
DA:281,0
DA:282,0
DA:283,0
DA:284,0
DA:285,0
DA:286,0
DA:287,0
DA:288,0
DA:289,0
DA:290,0
DA:291,0
DA:292,0
DA:297,0
DA:298,0
DA:299,0
DA:303,0
DA:304,0
DA:305,0
DA:306,0
DA:307,0
DA:309,0
DA:310,6
DA:317,0
DA:318,0
DA:319,0
DA:321,0
DA:322,0
DA:324,0
DA:327,0
DA:328,0
DA:329,0
DA:330,0
DA:331,0
DA:332,0
DA:333,0
DA:336,0
DA:339,0
DA:340,0
DA:341,0
DA:342,0
DA:346,0
DA:347,0
DA:348,0
DA:349,0
DA:350,0
DA:351,0
DA:354,0
DA:355,0
DA:357,0
DA:360,0
DA:361,0
DA:362,0
DA:363,0
DA:365,0
DA:368,0
DA:369,0
DA:370,0
DA:371,0
DA:372,0
DA:373,0
DA:374,0
DA:375,0
DA:376,0
DA:377,0
DA:378,0
DA:379,0
DA:380,0
DA:383,0
DA:384,0
DA:385,0
DA:386,0
DA:389,0
DA:391,0
DA:392,0
DA:393,0
DA:394,0
DA:395,0
DA:400,0
DA:402,0
DA:403,0
DA:404,0
DA:409,0
DA:411,0
DA:412,0
DA:418,0
DA:419,0
DA:424,0
DA:430,0
DA:431,0
DA:432,0
DA:433,0
DA:434,0
DA:435,0
DA:436,0
DA:437,0
DA:439,0
DA:440,0
DA:441,0
DA:442,0
DA:443,0
DA:444,0
DA:445,0
DA:448,0
BRF:0
BRH:0
LF:228
LH:67
end_of_record
SF:/workspace/agent-docs/db/src/migration_system.rs
FN:592,_RNCNCNvMNtCs9JGNcCDhGtu_2db16migration_systemNtB6_24DatabaseMigrationManager20get_migration_status00B8_
FN:596,_RNCNCNvMNtCs9JGNcCDhGtu_2db16migration_systemNtB6_24DatabaseMigrationManager20get_migration_status0s_0B8_
FN:211,_RNCNCNvMNtCs9JGNcCDhGtu_2db16migration_systemNtB6_24DatabaseMigrationManager22get_pending_migrations0s0_0B8_
FN:206,_RNCNCNvMNtCs9JGNcCDhGtu_2db16migration_systemNtB6_24DatabaseMigrationManager22get_pending_migrations0s_0B8_
FN:435,_RNCNvMNtCs9JGNcCDhGtu_2db16migration_systemNtB4_24DatabaseMigrationManager15validate_schema0B6_
FN:497,_RNCNvMNtCs9JGNcCDhGtu_2db16migration_systemNtB4_24DatabaseMigrationManager15validate_tables0B6_
FN:262,_RNCNvMNtCs9JGNcCDhGtu_2db16migration_systemNtB4_24DatabaseMigrationManager16apply_migrations0B6_
FN:528,_RNCNvMNtCs9JGNcCDhGtu_2db16migration_systemNtB4_24DatabaseMigrationManager16validate_indexes0B6_
FN:471,_RNCNvMNtCs9JGNcCDhGtu_2db16migration_systemNtB4_24DatabaseMigrationManager19validate_extensions0B6_
FN:586,_RNCNvMNtCs9JGNcCDhGtu_2db16migration_systemNtB4_24DatabaseMigrationManager20get_migration_status0B6_
FN:306,_RNCNvMNtCs9JGNcCDhGtu_2db16migration_systemNtB4_24DatabaseMigrationManager22apply_single_migration0B6_
FN:227,_RNCNvMNtCs9JGNcCDhGtu_2db16migration_systemNtB4_24DatabaseMigrationManager22get_applied_migrations0B6_
FN:196,_RNCNvMNtCs9JGNcCDhGtu_2db16migration_systemNtB4_24DatabaseMigrationManager22get_pending_migrations0B6_
FN:347,_RNCNvMNtCs9JGNcCDhGtu_2db16migration_systemNtB4_24DatabaseMigrationManager22record_migration_start0B6_
FN:412,_RNCNvMNtCs9JGNcCDhGtu_2db16migration_systemNtB4_24DatabaseMigrationManager24record_migration_failure0B6_
FN:85,_RNCNvMNtCs9JGNcCDhGtu_2db16migration_systemNtB4_24DatabaseMigrationManager27initialize_migration_tables0B6_
FN:373,_RNCNvMNtCs9JGNcCDhGtu_2db16migration_systemNtB4_24DatabaseMigrationManager27record_migration_completion0B6_
FN:561,_RNCNvMNtCs9JGNcCDhGtu_2db16migration_systemNtB4_24DatabaseMigrationManager28validate_pgvector_dimensions0B6_
FN:74,_RNCNvMNtCs9JGNcCDhGtu_2db16migration_systemNtB4_24DatabaseMigrationManager3new0B6_
FN:592,_RNCNCNvMNtCs9JGNcCDhGtu_2db16migration_systemNtB6_24DatabaseMigrationManager20get_migration_status00CsiLqmQIFToUG_11http_server
FN:596,_RNCNCNvMNtCs9JGNcCDhGtu_2db16migration_systemNtB6_24DatabaseMigrationManager20get_migration_status0s_0CsiLqmQIFToUG_11http_server
FN:211,_RNCNCNvMNtCs9JGNcCDhGtu_2db16migration_systemNtB6_24DatabaseMigrationManager22get_pending_migrations0s0_0CsiLqmQIFToUG_11http_server
FN:206,_RNCNCNvMNtCs9JGNcCDhGtu_2db16migration_systemNtB6_24DatabaseMigrationManager22get_pending_migrations0s_0CsiLqmQIFToUG_11http_server
FN:435,_RNCNvMNtCs9JGNcCDhGtu_2db16migration_systemNtB4_24DatabaseMigrationManager15validate_schema0CsiLqmQIFToUG_11http_server
FN:497,_RNCNvMNtCs9JGNcCDhGtu_2db16migration_systemNtB4_24DatabaseMigrationManager15validate_tables0CsiLqmQIFToUG_11http_server
FN:262,_RNCNvMNtCs9JGNcCDhGtu_2db16migration_systemNtB4_24DatabaseMigrationManager16apply_migrations0CsiLqmQIFToUG_11http_server
FN:528,_RNCNvMNtCs9JGNcCDhGtu_2db16migration_systemNtB4_24DatabaseMigrationManager16validate_indexes0CsiLqmQIFToUG_11http_server
FN:471,_RNCNvMNtCs9JGNcCDhGtu_2db16migration_systemNtB4_24DatabaseMigrationManager19validate_extensions0CsiLqmQIFToUG_11http_server
FN:586,_RNCNvMNtCs9JGNcCDhGtu_2db16migration_systemNtB4_24DatabaseMigrationManager20get_migration_status0CsiLqmQIFToUG_11http_server
FN:306,_RNCNvMNtCs9JGNcCDhGtu_2db16migration_systemNtB4_24DatabaseMigrationManager22apply_single_migration0CsiLqmQIFToUG_11http_server
FN:227,_RNCNvMNtCs9JGNcCDhGtu_2db16migration_systemNtB4_24DatabaseMigrationManager22get_applied_migrations0CsiLqmQIFToUG_11http_server
FN:196,_RNCNvMNtCs9JGNcCDhGtu_2db16migration_systemNtB4_24DatabaseMigrationManager22get_pending_migrations0CsiLqmQIFToUG_11http_server
FN:347,_RNCNvMNtCs9JGNcCDhGtu_2db16migration_systemNtB4_24DatabaseMigrationManager22record_migration_start0CsiLqmQIFToUG_11http_server
FN:412,_RNCNvMNtCs9JGNcCDhGtu_2db16migration_systemNtB4_24DatabaseMigrationManager24record_migration_failure0CsiLqmQIFToUG_11http_server
FN:85,_RNCNvMNtCs9JGNcCDhGtu_2db16migration_systemNtB4_24DatabaseMigrationManager27initialize_migration_tables0CsiLqmQIFToUG_11http_server
FN:373,_RNCNvMNtCs9JGNcCDhGtu_2db16migration_systemNtB4_24DatabaseMigrationManager27record_migration_completion0CsiLqmQIFToUG_11http_server
FN:561,_RNCNvMNtCs9JGNcCDhGtu_2db16migration_systemNtB4_24DatabaseMigrationManager28validate_pgvector_dimensions0CsiLqmQIFToUG_11http_server
FN:74,_RNCNvMNtCs9JGNcCDhGtu_2db16migration_systemNtB4_24DatabaseMigrationManager3new0CsiLqmQIFToUG_11http_server
FN:435,_RNvMNtCs9JGNcCDhGtu_2db16migration_systemNtB2_24DatabaseMigrationManager15validate_schema
FN:497,_RNvMNtCs9JGNcCDhGtu_2db16migration_systemNtB2_24DatabaseMigrationManager15validate_tables
FN:262,_RNvMNtCs9JGNcCDhGtu_2db16migration_systemNtB2_24DatabaseMigrationManager16apply_migrations
FN:528,_RNvMNtCs9JGNcCDhGtu_2db16migration_systemNtB2_24DatabaseMigrationManager16validate_indexes
FN:183,_RNvMNtCs9JGNcCDhGtu_2db16migration_systemNtB2_24DatabaseMigrationManager18register_migration
FN:471,_RNvMNtCs9JGNcCDhGtu_2db16migration_systemNtB2_24DatabaseMigrationManager19validate_extensions
FN:586,_RNvMNtCs9JGNcCDhGtu_2db16migration_systemNtB2_24DatabaseMigrationManager20get_migration_status
FN:306,_RNvMNtCs9JGNcCDhGtu_2db16migration_systemNtB2_24DatabaseMigrationManager22apply_single_migration
FN:227,_RNvMNtCs9JGNcCDhGtu_2db16migration_systemNtB2_24DatabaseMigrationManager22get_applied_migrations
FN:196,_RNvMNtCs9JGNcCDhGtu_2db16migration_systemNtB2_24DatabaseMigrationManager22get_pending_migrations
FN:343,_RNvMNtCs9JGNcCDhGtu_2db16migration_systemNtB2_24DatabaseMigrationManager22record_migration_start
FN:412,_RNvMNtCs9JGNcCDhGtu_2db16migration_systemNtB2_24DatabaseMigrationManager24record_migration_failure
FN:85,_RNvMNtCs9JGNcCDhGtu_2db16migration_systemNtB2_24DatabaseMigrationManager27initialize_migration_tables
FN:368,_RNvMNtCs9JGNcCDhGtu_2db16migration_systemNtB2_24DatabaseMigrationManager27record_migration_completion
FN:558,_RNvMNtCs9JGNcCDhGtu_2db16migration_systemNtB2_24DatabaseMigrationManager28validate_pgvector_dimensions
FN:74,_RNvMNtCs9JGNcCDhGtu_2db16migration_systemNtB2_24DatabaseMigrationManager3new
FNDA:0,_RNCNCNvMNtCs9JGNcCDhGtu_2db16migration_systemNtB6_24DatabaseMigrationManager20get_migration_status00B8_
FNDA:0,_RNCNCNvMNtCs9JGNcCDhGtu_2db16migration_systemNtB6_24DatabaseMigrationManager20get_migration_status0s_0B8_
FNDA:0,_RNCNCNvMNtCs9JGNcCDhGtu_2db16migration_systemNtB6_24DatabaseMigrationManager22get_pending_migrations0s0_0B8_
FNDA:0,_RNCNCNvMNtCs9JGNcCDhGtu_2db16migration_systemNtB6_24DatabaseMigrationManager22get_pending_migrations0s_0B8_
FNDA:0,_RNCNvMNtCs9JGNcCDhGtu_2db16migration_systemNtB4_24DatabaseMigrationManager15validate_schema0B6_
FNDA:0,_RNCNvMNtCs9JGNcCDhGtu_2db16migration_systemNtB4_24DatabaseMigrationManager15validate_tables0B6_
FNDA:0,_RNCNvMNtCs9JGNcCDhGtu_2db16migration_systemNtB4_24DatabaseMigrationManager16apply_migrations0B6_
FNDA:0,_RNCNvMNtCs9JGNcCDhGtu_2db16migration_systemNtB4_24DatabaseMigrationManager16validate_indexes0B6_
FNDA:0,_RNCNvMNtCs9JGNcCDhGtu_2db16migration_systemNtB4_24DatabaseMigrationManager19validate_extensions0B6_
FNDA:0,_RNCNvMNtCs9JGNcCDhGtu_2db16migration_systemNtB4_24DatabaseMigrationManager20get_migration_status0B6_
FNDA:0,_RNCNvMNtCs9JGNcCDhGtu_2db16migration_systemNtB4_24DatabaseMigrationManager22apply_single_migration0B6_
FNDA:0,_RNCNvMNtCs9JGNcCDhGtu_2db16migration_systemNtB4_24DatabaseMigrationManager22get_applied_migrations0B6_
FNDA:0,_RNCNvMNtCs9JGNcCDhGtu_2db16migration_systemNtB4_24DatabaseMigrationManager22get_pending_migrations0B6_
FNDA:0,_RNCNvMNtCs9JGNcCDhGtu_2db16migration_systemNtB4_24DatabaseMigrationManager22record_migration_start0B6_
FNDA:0,_RNCNvMNtCs9JGNcCDhGtu_2db16migration_systemNtB4_24DatabaseMigrationManager24record_migration_failure0B6_
FNDA:0,_RNCNvMNtCs9JGNcCDhGtu_2db16migration_systemNtB4_24DatabaseMigrationManager27initialize_migration_tables0B6_
FNDA:0,_RNCNvMNtCs9JGNcCDhGtu_2db16migration_systemNtB4_24DatabaseMigrationManager27record_migration_completion0B6_
FNDA:0,_RNCNvMNtCs9JGNcCDhGtu_2db16migration_systemNtB4_24DatabaseMigrationManager28validate_pgvector_dimensions0B6_
FNDA:0,_RNCNvMNtCs9JGNcCDhGtu_2db16migration_systemNtB4_24DatabaseMigrationManager3new0B6_
FNDA:0,_RNCNCNvMNtCs9JGNcCDhGtu_2db16migration_systemNtB6_24DatabaseMigrationManager20get_migration_status00CsiLqmQIFToUG_11http_server
FNDA:0,_RNCNCNvMNtCs9JGNcCDhGtu_2db16migration_systemNtB6_24DatabaseMigrationManager20get_migration_status0s_0CsiLqmQIFToUG_11http_server
FNDA:0,_RNCNCNvMNtCs9JGNcCDhGtu_2db16migration_systemNtB6_24DatabaseMigrationManager22get_pending_migrations0s0_0CsiLqmQIFToUG_11http_server
FNDA:0,_RNCNCNvMNtCs9JGNcCDhGtu_2db16migration_systemNtB6_24DatabaseMigrationManager22get_pending_migrations0s_0CsiLqmQIFToUG_11http_server
FNDA:0,_RNCNvMNtCs9JGNcCDhGtu_2db16migration_systemNtB4_24DatabaseMigrationManager15validate_schema0CsiLqmQIFToUG_11http_server
FNDA:0,_RNCNvMNtCs9JGNcCDhGtu_2db16migration_systemNtB4_24DatabaseMigrationManager15validate_tables0CsiLqmQIFToUG_11http_server
FNDA:0,_RNCNvMNtCs9JGNcCDhGtu_2db16migration_systemNtB4_24DatabaseMigrationManager16apply_migrations0CsiLqmQIFToUG_11http_server
FNDA:0,_RNCNvMNtCs9JGNcCDhGtu_2db16migration_systemNtB4_24DatabaseMigrationManager16validate_indexes0CsiLqmQIFToUG_11http_server
FNDA:0,_RNCNvMNtCs9JGNcCDhGtu_2db16migration_systemNtB4_24DatabaseMigrationManager19validate_extensions0CsiLqmQIFToUG_11http_server
FNDA:0,_RNCNvMNtCs9JGNcCDhGtu_2db16migration_systemNtB4_24DatabaseMigrationManager20get_migration_status0CsiLqmQIFToUG_11http_server
FNDA:0,_RNCNvMNtCs9JGNcCDhGtu_2db16migration_systemNtB4_24DatabaseMigrationManager22apply_single_migration0CsiLqmQIFToUG_11http_server
FNDA:0,_RNCNvMNtCs9JGNcCDhGtu_2db16migration_systemNtB4_24DatabaseMigrationManager22get_applied_migrations0CsiLqmQIFToUG_11http_server
FNDA:0,_RNCNvMNtCs9JGNcCDhGtu_2db16migration_systemNtB4_24DatabaseMigrationManager22get_pending_migrations0CsiLqmQIFToUG_11http_server
FNDA:0,_RNCNvMNtCs9JGNcCDhGtu_2db16migration_systemNtB4_24DatabaseMigrationManager22record_migration_start0CsiLqmQIFToUG_11http_server
FNDA:0,_RNCNvMNtCs9JGNcCDhGtu_2db16migration_systemNtB4_24DatabaseMigrationManager24record_migration_failure0CsiLqmQIFToUG_11http_server
FNDA:0,_RNCNvMNtCs9JGNcCDhGtu_2db16migration_systemNtB4_24DatabaseMigrationManager27initialize_migration_tables0CsiLqmQIFToUG_11http_server
FNDA:0,_RNCNvMNtCs9JGNcCDhGtu_2db16migration_systemNtB4_24DatabaseMigrationManager27record_migration_completion0CsiLqmQIFToUG_11http_server
FNDA:0,_RNCNvMNtCs9JGNcCDhGtu_2db16migration_systemNtB4_24DatabaseMigrationManager28validate_pgvector_dimensions0CsiLqmQIFToUG_11http_server
FNDA:0,_RNCNvMNtCs9JGNcCDhGtu_2db16migration_systemNtB4_24DatabaseMigrationManager3new0CsiLqmQIFToUG_11http_server
FNDA:0,_RNvMNtCs9JGNcCDhGtu_2db16migration_systemNtB2_24DatabaseMigrationManager15validate_schema
FNDA:0,_RNvMNtCs9JGNcCDhGtu_2db16migration_systemNtB2_24DatabaseMigrationManager15validate_tables
FNDA:0,_RNvMNtCs9JGNcCDhGtu_2db16migration_systemNtB2_24DatabaseMigrationManager16apply_migrations
FNDA:0,_RNvMNtCs9JGNcCDhGtu_2db16migration_systemNtB2_24DatabaseMigrationManager16validate_indexes
FNDA:0,_RNvMNtCs9JGNcCDhGtu_2db16migration_systemNtB2_24DatabaseMigrationManager18register_migration
FNDA:0,_RNvMNtCs9JGNcCDhGtu_2db16migration_systemNtB2_24DatabaseMigrationManager19validate_extensions
FNDA:0,_RNvMNtCs9JGNcCDhGtu_2db16migration_systemNtB2_24DatabaseMigrationManager20get_migration_status
FNDA:0,_RNvMNtCs9JGNcCDhGtu_2db16migration_systemNtB2_24DatabaseMigrationManager22apply_single_migration
FNDA:0,_RNvMNtCs9JGNcCDhGtu_2db16migration_systemNtB2_24DatabaseMigrationManager22get_applied_migrations
FNDA:0,_RNvMNtCs9JGNcCDhGtu_2db16migration_systemNtB2_24DatabaseMigrationManager22get_pending_migrations
FNDA:0,_RNvMNtCs9JGNcCDhGtu_2db16migration_systemNtB2_24DatabaseMigrationManager22record_migration_start
FNDA:0,_RNvMNtCs9JGNcCDhGtu_2db16migration_systemNtB2_24DatabaseMigrationManager24record_migration_failure
FNDA:0,_RNvMNtCs9JGNcCDhGtu_2db16migration_systemNtB2_24DatabaseMigrationManager27initialize_migration_tables
FNDA:0,_RNvMNtCs9JGNcCDhGtu_2db16migration_systemNtB2_24DatabaseMigrationManager27record_migration_completion
FNDA:0,_RNvMNtCs9JGNcCDhGtu_2db16migration_systemNtB2_24DatabaseMigrationManager28validate_pgvector_dimensions
FNDA:0,_RNvMNtCs9JGNcCDhGtu_2db16migration_systemNtB2_24DatabaseMigrationManager3new
FNF:35
FNH:0
DA:74,0
DA:75,0
DA:76,0
DA:77,0
DA:78,0
DA:80,0
DA:81,0
DA:82,0
DA:85,0
DA:86,0
DA:89,0
DA:90,0
DA:91,0
DA:92,0
DA:93,0
DA:94,0
DA:95,0
DA:96,0
DA:97,0
DA:98,0
DA:99,0
DA:102,0
DA:103,0
DA:104,0
DA:105,0
DA:106,0
DA:107,0
DA:108,0
DA:109,0
DA:110,0
DA:111,0
DA:112,0
DA:113,0
DA:114,0
DA:115,0
DA:116,0
DA:117,0
DA:118,0
DA:119,0
DA:123,0
DA:124,0
DA:125,0
DA:126,0
DA:127,0
DA:128,0
DA:129,0
DA:130,0
DA:131,0
DA:132,0
DA:133,0
DA:134,0
DA:135,0
DA:136,0
DA:137,0
DA:138,0
DA:139,0
DA:140,0
DA:141,0
DA:142,0
DA:143,0
DA:144,0
DA:145,0
DA:146,0
DA:147,0
DA:148,0
DA:149,0
DA:150,0
DA:151,0
DA:152,0
DA:153,0
DA:154,0
DA:155,0
DA:156,0
DA:157,0
DA:160,0
DA:161,0
DA:162,0
DA:163,0
DA:164,0
DA:166,0
DA:167,0
DA:168,0
DA:169,0
DA:170,0
DA:172,0
DA:173,0
DA:174,0
DA:175,0
DA:176,0
DA:178,0
DA:179,0
DA:180,0
DA:183,0
DA:184,0
DA:185,0
DA:188,0
DA:189,0
DA:196,0
DA:197,0
DA:198,0
DA:199,0
DA:200,0
DA:201,0
DA:203,0
DA:204,0
DA:205,0
DA:206,0
DA:207,0
DA:208,0
DA:211,0
DA:213,0
DA:214,0
DA:215,0
DA:216,0
DA:219,0
DA:221,0
DA:223,0
DA:224,0
DA:227,0
DA:228,0
DA:229,0
DA:230,0
DA:231,0
DA:232,0
DA:233,0
DA:234,0
DA:235,0
DA:236,0
DA:237,0
DA:238,0
DA:240,0
DA:241,0
DA:242,0
DA:243,0
DA:244,0
DA:245,0
DA:246,0
DA:247,0
DA:248,0
DA:249,0
DA:250,0
DA:251,0
DA:252,0
DA:254,0
DA:255,0
DA:262,0
DA:263,0
DA:265,0
DA:266,0
DA:267,0
DA:268,0
DA:269,0
DA:271,0
DA:272,0
DA:274,0
DA:275,0
DA:276,0
DA:280,0
DA:281,0
DA:282,0
DA:283,0
DA:286,0
DA:288,0
DA:289,0
DA:292,0
DA:293,0
DA:296,0
DA:301,0
DA:302,0
DA:303,0
DA:306,0
DA:307,0
DA:310,0
DA:313,0
DA:316,0
DA:317,0
DA:318,0
DA:321,0
DA:322,0
DA:325,0
DA:326,0
DA:327,0
DA:330,0
DA:332,0
DA:334,0
DA:336,0
DA:337,0
DA:340,0
DA:343,0
DA:344,0
DA:345,0
DA:346,0
DA:347,0
DA:348,0
DA:350,0
DA:351,0
DA:352,0
DA:353,0
DA:354,0
DA:355,0
DA:356,0
DA:357,0
DA:358,0
DA:359,0
DA:360,0
DA:361,0
DA:362,0
DA:364,0
DA:365,0
DA:368,0
DA:369,0
DA:370,0
DA:371,0
DA:372,0
DA:373,0
DA:374,0
DA:375,0
DA:376,0
DA:377,0
DA:378,0
DA:379,0
DA:380,0
DA:381,0
DA:382,0
DA:383,0
DA:384,0
DA:387,0
DA:388,0
DA:389,0
DA:390,0
DA:391,0
DA:392,0
DA:393,0
DA:394,0
DA:395,0
DA:396,0
DA:397,0
DA:399,0
DA:400,0
DA:401,0
DA:402,0
DA:403,0
DA:404,0
DA:405,0
DA:406,0
DA:407,0
DA:408,0
DA:409,0
DA:412,0
DA:413,0
DA:414,0
DA:415,0
DA:416,0
DA:417,0
DA:418,0
DA:419,0
DA:420,0
DA:421,0
DA:422,0
DA:423,0
DA:424,0
DA:425,0
DA:427,0
DA:428,0
DA:435,0
DA:436,0
DA:438,0
DA:439,0
DA:440,0
DA:441,0
DA:442,0
DA:443,0
DA:444,0
DA:447,0
DA:450,0
DA:453,0
DA:456,0
DA:458,0
DA:459,0
DA:461,0
DA:462,0
DA:463,0
DA:467,0
DA:468,0
DA:471,0
DA:472,0
DA:474,0
DA:475,0
DA:476,0
DA:477,0
DA:478,0
DA:479,0
DA:480,0
DA:482,0
DA:483,0
DA:485,0
DA:486,0
DA:487,0
DA:488,0
DA:489,0
DA:490,0
DA:493,0
DA:494,0
DA:497,0
DA:498,0
DA:500,0
DA:501,0
DA:502,0
DA:503,0
DA:504,0
DA:505,0
DA:506,0
DA:507,0
DA:508,0
DA:509,0
DA:510,0
DA:511,0
DA:513,0
DA:514,0
DA:516,0
DA:517,0
DA:518,0
DA:519,0
DA:520,0
DA:521,0
DA:524,0
DA:525,0
DA:528,0
DA:529,0
DA:531,0
DA:532,0
DA:535,0
DA:536,0
DA:537,0
DA:538,0
DA:539,0
DA:540,0
DA:541,0
DA:543,0
DA:544,0
DA:546,0
DA:547,0
DA:548,0
DA:549,0
DA:550,0
DA:551,0
DA:554,0
DA:555,0
DA:558,0
DA:559,0
DA:560,0
DA:561,0
DA:564,0
DA:565,0
DA:566,0
DA:569,0
DA:571,0
DA:572,0
DA:573,0
DA:574,0
DA:575,0
DA:578,0
DA:579,0
DA:586,0
DA:587,0
DA:588,0
DA:590,0
DA:591,0
DA:592,0
DA:593,0
DA:594,0
DA:595,0
DA:596,0
DA:597,0
DA:600,0
DA:601,0
DA:602,0
DA:603,0
DA:604,0
DA:606,0
BRF:0
BRH:0
LF:399
LH:0
end_of_record
SF:/workspace/agent-docs/db/src/models.rs
FN:177,_RNvMs0_NtCs9JGNcCDhGtu_2db6modelsINtB5_17PaginatedResponseNtB5_9CrateInfoE3newCsi7GHPcvMyXT_3mcp
FN:177,_RNvMs0_NtCs9JGNcCDhGtu_2db6modelsINtB5_17PaginatedResponsepE3newB7_
FN:147,_RNvMs_NtCs9JGNcCDhGtu_2db6modelsNtB4_16PaginationParams3new
FN:26,_RNvXNtCs9JGNcCDhGtu_2db6modelsNtB2_7DocTypeNtNtCs66KPHxksi63_4core3fmt7Display3fmt
FNDA:4,_RNvMs0_NtCs9JGNcCDhGtu_2db6modelsINtB5_17PaginatedResponseNtB5_9CrateInfoE3newCsi7GHPcvMyXT_3mcp
FNDA:0,_RNvMs0_NtCs9JGNcCDhGtu_2db6modelsINtB5_17PaginatedResponsepE3newB7_
FNDA:4,_RNvMs_NtCs9JGNcCDhGtu_2db6modelsNtB4_16PaginationParams3new
FNDA:0,_RNvXNtCs9JGNcCDhGtu_2db6modelsNtB2_7DocTypeNtNtCs66KPHxksi63_4core3fmt7Display3fmt
FNF:3
FNH:2
DA:26,0
DA:27,0
DA:28,0
DA:29,0
DA:30,0
DA:31,0
DA:32,0
DA:33,0
DA:34,0
DA:35,0
DA:36,0
DA:37,0
DA:39,0
DA:40,0
DA:147,4
DA:148,4
DA:149,4
DA:150,4
DA:152,4
DA:153,4
DA:154,4
DA:155,4
DA:156,4
DA:157,4
DA:177,4
DA:178,4
DA:179,4
DA:180,4
DA:182,4
DA:183,4
DA:184,4
DA:185,4
DA:186,4
DA:187,4
DA:188,4
DA:189,4
DA:190,4
BRF:0
BRH:0
LF:37
LH:23
end_of_record
SF:/workspace/agent-docs/db/src/pool_config.rs
FN:216,_RINvMs0_NtCs9JGNcCDhGtu_2db11pool_configNtB6_17PoolConfigBuilder12database_urlpEB8_
FN:252,_RINvMs0_NtCs9JGNcCDhGtu_2db11pool_configNtB6_17PoolConfigBuilder16application_namepEB8_
FN:247,_RNCNvMs0_NtCs9JGNcCDhGtu_2db11pool_configNtB7_17PoolConfigBuilder12idle_timeout0B9_
FN:241,_RNCNvMs0_NtCs9JGNcCDhGtu_2db11pool_configNtB7_17PoolConfigBuilder12max_lifetime0B9_
FN:62,_RNCNvMs_NtCs9JGNcCDhGtu_2db11pool_configNtB6_10PoolConfig8from_env0B8_
FN:67,_RNCNvMs_NtCs9JGNcCDhGtu_2db11pool_configNtB6_10PoolConfig8from_envs0_0B8_
FN:71,_RNCNvMs_NtCs9JGNcCDhGtu_2db11pool_configNtB6_10PoolConfig8from_envs1_0B8_
FN:72,_RNCNvMs_NtCs9JGNcCDhGtu_2db11pool_configNtB6_10PoolConfig8from_envs2_0B8_
FN:76,_RNCNvMs_NtCs9JGNcCDhGtu_2db11pool_configNtB6_10PoolConfig8from_envs3_0B8_
FN:77,_RNCNvMs_NtCs9JGNcCDhGtu_2db11pool_configNtB6_10PoolConfig8from_envs4_0B8_
FN:81,_RNCNvMs_NtCs9JGNcCDhGtu_2db11pool_configNtB6_10PoolConfig8from_envs5_0B8_
FN:85,_RNCNvMs_NtCs9JGNcCDhGtu_2db11pool_configNtB6_10PoolConfig8from_envs6_0B8_
FN:88,_RNCNvMs_NtCs9JGNcCDhGtu_2db11pool_configNtB6_10PoolConfig8from_envs7_0B8_
FN:66,_RNCNvMs_NtCs9JGNcCDhGtu_2db11pool_configNtB6_10PoolConfig8from_envs_0B8_
FN:246,_RNvMs0_NtCs9JGNcCDhGtu_2db11pool_configNtB5_17PoolConfigBuilder12idle_timeout
FN:240,_RNvMs0_NtCs9JGNcCDhGtu_2db11pool_configNtB5_17PoolConfigBuilder12max_lifetime
FN:234,_RNvMs0_NtCs9JGNcCDhGtu_2db11pool_configNtB5_17PoolConfigBuilder15acquire_timeout
FN:228,_RNvMs0_NtCs9JGNcCDhGtu_2db11pool_configNtB5_17PoolConfigBuilder15max_connections
FN:222,_RNvMs0_NtCs9JGNcCDhGtu_2db11pool_configNtB5_17PoolConfigBuilder15min_connections
FN:258,_RNvMs0_NtCs9JGNcCDhGtu_2db11pool_configNtB5_17PoolConfigBuilder19test_before_acquire
FN:209,_RNvMs0_NtCs9JGNcCDhGtu_2db11pool_configNtB5_17PoolConfigBuilder3new
FN:268,_RNvMs0_NtCs9JGNcCDhGtu_2db11pool_configNtB5_17PoolConfigBuilder5build
FN:298,_RNvMs2_NtCs9JGNcCDhGtu_2db11pool_configNtB5_10PoolConfig10production
FN:284,_RNvMs2_NtCs9JGNcCDhGtu_2db11pool_configNtB5_10PoolConfig11development
FN:312,_RNvMs2_NtCs9JGNcCDhGtu_2db11pool_configNtB5_10PoolConfig12high_traffic
FN:326,_RNvMs2_NtCs9JGNcCDhGtu_2db11pool_configNtB5_10PoolConfig7testing
FN:168,_RNvMs_NtCs9JGNcCDhGtu_2db11pool_configNtB4_10PoolConfig11log_summary
FN:163,_RNvMs_NtCs9JGNcCDhGtu_2db11pool_configNtB4_10PoolConfig12idle_timeout
FN:157,_RNvMs_NtCs9JGNcCDhGtu_2db11pool_configNtB4_10PoolConfig12max_lifetime
FN:151,_RNvMs_NtCs9JGNcCDhGtu_2db11pool_configNtB4_10PoolConfig15acquire_timeout
FN:107,_RNvMs_NtCs9JGNcCDhGtu_2db11pool_configNtB4_10PoolConfig7builder
FN:60,_RNvMs_NtCs9JGNcCDhGtu_2db11pool_configNtB4_10PoolConfig8from_env
FN:116,_RNvMs_NtCs9JGNcCDhGtu_2db11pool_configNtB4_10PoolConfig8validate
FN:40,_RNvXNtCs9JGNcCDhGtu_2db11pool_configNtB2_10PoolConfigNtNtCs66KPHxksi63_4core7default7Default7default
FN:275,_RNvXs1_NtCs9JGNcCDhGtu_2db11pool_configNtB5_17PoolConfigBuilderNtNtCs66KPHxksi63_4core7default7Default7default
FN:216,_RINvMs0_NtCs9JGNcCDhGtu_2db11pool_configNtB6_17PoolConfigBuilder12database_urlReECslijQrqBcbjW_16crate_management
FN:216,_RINvMs0_NtCs9JGNcCDhGtu_2db11pool_configNtB6_17PoolConfigBuilder12database_urlReECsfAMnWzr0b5l_18dynamic_tools_test
FN:216,_RINvMs0_NtCs9JGNcCDhGtu_2db11pool_configNtB6_17PoolConfigBuilder12database_urlReECsiLqmQIFToUG_11http_server
FN:216,_RINvMs0_NtCs9JGNcCDhGtu_2db11pool_configNtB6_17PoolConfigBuilder12database_urlReECs3p1S6jYGLeO_14initialize_mvp
FN:216,_RINvMs0_NtCs9JGNcCDhGtu_2db11pool_configNtB6_17PoolConfigBuilder12database_urlReECsaT2uQ1v1wmQ_18json_only_mvp_test
FN:216,_RINvMs0_NtCs9JGNcCDhGtu_2db11pool_configNtB6_17PoolConfigBuilder12database_urlReECscIjP2UPxd8q_12routing_test
FN:216,_RINvMs0_NtCs9JGNcCDhGtu_2db11pool_configNtB6_17PoolConfigBuilder12database_urlReECsgCvF62eLOYw_24task_11_acceptance_tests
FN:216,_RINvMs0_NtCs9JGNcCDhGtu_2db11pool_configNtB6_17PoolConfigBuilder12database_urlReECsbO9dfj64rIG_21transport_integration
FNDA:0,_RINvMs0_NtCs9JGNcCDhGtu_2db11pool_configNtB6_17PoolConfigBuilder12database_urlpEB8_
FNDA:0,_RINvMs0_NtCs9JGNcCDhGtu_2db11pool_configNtB6_17PoolConfigBuilder16application_namepEB8_
FNDA:0,_RNCNvMs0_NtCs9JGNcCDhGtu_2db11pool_configNtB7_17PoolConfigBuilder12idle_timeout0B9_
FNDA:0,_RNCNvMs0_NtCs9JGNcCDhGtu_2db11pool_configNtB7_17PoolConfigBuilder12max_lifetime0B9_
FNDA:0,_RNCNvMs_NtCs9JGNcCDhGtu_2db11pool_configNtB6_10PoolConfig8from_env0B8_
FNDA:0,_RNCNvMs_NtCs9JGNcCDhGtu_2db11pool_configNtB6_10PoolConfig8from_envs0_0B8_
FNDA:0,_RNCNvMs_NtCs9JGNcCDhGtu_2db11pool_configNtB6_10PoolConfig8from_envs1_0B8_
FNDA:0,_RNCNvMs_NtCs9JGNcCDhGtu_2db11pool_configNtB6_10PoolConfig8from_envs2_0B8_
FNDA:0,_RNCNvMs_NtCs9JGNcCDhGtu_2db11pool_configNtB6_10PoolConfig8from_envs3_0B8_
FNDA:0,_RNCNvMs_NtCs9JGNcCDhGtu_2db11pool_configNtB6_10PoolConfig8from_envs4_0B8_
FNDA:0,_RNCNvMs_NtCs9JGNcCDhGtu_2db11pool_configNtB6_10PoolConfig8from_envs5_0B8_
FNDA:0,_RNCNvMs_NtCs9JGNcCDhGtu_2db11pool_configNtB6_10PoolConfig8from_envs6_0B8_
FNDA:0,_RNCNvMs_NtCs9JGNcCDhGtu_2db11pool_configNtB6_10PoolConfig8from_envs7_0B8_
FNDA:0,_RNCNvMs_NtCs9JGNcCDhGtu_2db11pool_configNtB6_10PoolConfig8from_envs_0B8_
FNDA:0,_RNvMs0_NtCs9JGNcCDhGtu_2db11pool_configNtB5_17PoolConfigBuilder12idle_timeout
FNDA:0,_RNvMs0_NtCs9JGNcCDhGtu_2db11pool_configNtB5_17PoolConfigBuilder12max_lifetime
FNDA:0,_RNvMs0_NtCs9JGNcCDhGtu_2db11pool_configNtB5_17PoolConfigBuilder15acquire_timeout
FNDA:0,_RNvMs0_NtCs9JGNcCDhGtu_2db11pool_configNtB5_17PoolConfigBuilder15max_connections
FNDA:0,_RNvMs0_NtCs9JGNcCDhGtu_2db11pool_configNtB5_17PoolConfigBuilder15min_connections
FNDA:0,_RNvMs0_NtCs9JGNcCDhGtu_2db11pool_configNtB5_17PoolConfigBuilder19test_before_acquire
FNDA:6,_RNvMs0_NtCs9JGNcCDhGtu_2db11pool_configNtB5_17PoolConfigBuilder3new
FNDA:6,_RNvMs0_NtCs9JGNcCDhGtu_2db11pool_configNtB5_17PoolConfigBuilder5build
FNDA:0,_RNvMs2_NtCs9JGNcCDhGtu_2db11pool_configNtB5_10PoolConfig10production
FNDA:0,_RNvMs2_NtCs9JGNcCDhGtu_2db11pool_configNtB5_10PoolConfig11development
FNDA:0,_RNvMs2_NtCs9JGNcCDhGtu_2db11pool_configNtB5_10PoolConfig12high_traffic
FNDA:0,_RNvMs2_NtCs9JGNcCDhGtu_2db11pool_configNtB5_10PoolConfig7testing
FNDA:6,_RNvMs_NtCs9JGNcCDhGtu_2db11pool_configNtB4_10PoolConfig11log_summary
FNDA:6,_RNvMs_NtCs9JGNcCDhGtu_2db11pool_configNtB4_10PoolConfig12idle_timeout
FNDA:6,_RNvMs_NtCs9JGNcCDhGtu_2db11pool_configNtB4_10PoolConfig12max_lifetime
FNDA:6,_RNvMs_NtCs9JGNcCDhGtu_2db11pool_configNtB4_10PoolConfig15acquire_timeout
FNDA:6,_RNvMs_NtCs9JGNcCDhGtu_2db11pool_configNtB4_10PoolConfig7builder
FNDA:0,_RNvMs_NtCs9JGNcCDhGtu_2db11pool_configNtB4_10PoolConfig8from_env
FNDA:12,_RNvMs_NtCs9JGNcCDhGtu_2db11pool_configNtB4_10PoolConfig8validate
FNDA:7,_RNvXNtCs9JGNcCDhGtu_2db11pool_configNtB2_10PoolConfigNtNtCs66KPHxksi63_4core7default7Default7default
FNDA:0,_RNvXs1_NtCs9JGNcCDhGtu_2db11pool_configNtB5_17PoolConfigBuilderNtNtCs66KPHxksi63_4core7default7Default7default
FNDA:0,_RINvMs0_NtCs9JGNcCDhGtu_2db11pool_configNtB6_17PoolConfigBuilder12database_urlReECslijQrqBcbjW_16crate_management
FNDA:0,_RINvMs0_NtCs9JGNcCDhGtu_2db11pool_configNtB6_17PoolConfigBuilder12database_urlReECsfAMnWzr0b5l_18dynamic_tools_test
FNDA:0,_RINvMs0_NtCs9JGNcCDhGtu_2db11pool_configNtB6_17PoolConfigBuilder12database_urlReECsiLqmQIFToUG_11http_server
FNDA:0,_RINvMs0_NtCs9JGNcCDhGtu_2db11pool_configNtB6_17PoolConfigBuilder12database_urlReECs3p1S6jYGLeO_14initialize_mvp
FNDA:0,_RINvMs0_NtCs9JGNcCDhGtu_2db11pool_configNtB6_17PoolConfigBuilder12database_urlReECsaT2uQ1v1wmQ_18json_only_mvp_test
FNDA:0,_RINvMs0_NtCs9JGNcCDhGtu_2db11pool_configNtB6_17PoolConfigBuilder12database_urlReECscIjP2UPxd8q_12routing_test
FNDA:6,_RINvMs0_NtCs9JGNcCDhGtu_2db11pool_configNtB6_17PoolConfigBuilder12database_urlReECsgCvF62eLOYw_24task_11_acceptance_tests
FNDA:0,_RINvMs0_NtCs9JGNcCDhGtu_2db11pool_configNtB6_17PoolConfigBuilder12database_urlReECsbO9dfj64rIG_21transport_integration
FNF:35
FNH:10
DA:40,7
DA:41,7
DA:42,7
DA:43,7
DA:44,7
DA:45,7
DA:46,7
DA:47,7
DA:48,7
DA:49,7
DA:50,7
DA:51,7
DA:60,0
DA:61,0
DA:62,0
DA:64,0
DA:65,0
DA:66,0
DA:67,0
DA:69,0
DA:70,0
DA:71,0
DA:72,0
DA:74,0
DA:75,0
DA:76,0
DA:77,0
DA:79,0
DA:80,0
DA:81,0
DA:83,0
DA:84,0
DA:85,0
DA:87,0
DA:88,0
DA:90,0
DA:91,0
DA:92,0
DA:93,0
DA:94,0
DA:95,0
DA:96,0
DA:97,0
DA:98,0
DA:99,0
DA:101,0
DA:102,0
DA:103,0
DA:107,6
DA:108,6
DA:109,6
DA:116,12
DA:117,12
DA:118,0
DA:119,0
DA:120,0
DA:121,0
DA:122,0
DA:123,12
DA:125,12
DA:126,0
DA:127,12
DA:129,12
DA:130,0
DA:131,12
DA:133,12
DA:134,0
DA:135,12
DA:138,12
DA:139,0
DA:141,0
DA:142,0
DA:143,0
DA:144,12
DA:146,12
DA:147,12
DA:151,6
DA:152,6
DA:153,6
DA:157,6
DA:158,6
DA:159,6
DA:163,6
DA:164,6
DA:165,6
DA:168,6
DA:169,6
DA:170,0
DA:177,6
DA:178,6
DA:179,0
DA:181,6
DA:182,6
DA:183,0
DA:186,6
DA:187,0
DA:188,0
DA:191,6
DA:193,6
DA:194,0
DA:195,0
DA:198,6
DA:199,6
DA:209,6
DA:210,6
DA:211,6
DA:212,6
DA:213,6
DA:216,6
DA:217,6
DA:218,6
DA:219,6
DA:222,0
DA:223,0
DA:224,0
DA:225,0
DA:228,0
DA:229,0
DA:230,0
DA:231,0
DA:234,0
DA:235,0
DA:236,0
DA:237,0
DA:240,0
DA:241,0
DA:242,0
DA:243,0
DA:246,0
DA:247,0
DA:248,0
DA:249,0
DA:252,0
DA:253,0
DA:254,0
DA:255,0
DA:258,0
DA:259,0
DA:260,0
DA:261,0
DA:268,6
DA:269,6
DA:270,6
DA:271,6
DA:275,0
DA:276,0
DA:277,0
DA:284,0
DA:285,0
DA:286,0
DA:287,0
DA:288,0
DA:289,0
DA:290,0
DA:291,0
DA:292,0
DA:293,0
DA:294,0
DA:298,0
DA:299,0
DA:300,0
DA:301,0
DA:302,0
DA:303,0
DA:304,0
DA:305,0
DA:306,0
DA:307,0
DA:308,0
DA:312,0
DA:313,0
DA:314,0
DA:315,0
DA:316,0
DA:317,0
DA:318,0
DA:319,0
DA:320,0
DA:321,0
DA:322,0
DA:326,0
DA:327,0
DA:328,0
DA:329,0
DA:330,0
DA:331,0
DA:332,0
DA:333,0
DA:334,0
DA:335,0
DA:336,0
BRF:0
BRH:0
LF:203
LH:61
end_of_record
SF:/workspace/agent-docs/db/src/queries.rs
FN:253,_RNCNCNvMs1_NtCs9JGNcCDhGtu_2db7queriesNtB9_15DocumentQueries18rust_vector_search00Csi7GHPcvMyXT_3mcp
FN:309,_RNCNCNvMs1_NtCs9JGNcCDhGtu_2db7queriesNtB9_15DocumentQueries22doc_type_vector_search00Csi7GHPcvMyXT_3mcp
FN:415,_RNCNCNvMs1_NtCs9JGNcCDhGtu_2db7queriesNtB9_15DocumentQueries35doc_type_vector_search_with_filters00Csi7GHPcvMyXT_3mcp
FN:874,_RNCNCNvMs4_NtCs9JGNcCDhGtu_2db7queriesNtB9_12CrateQueries11list_crates00Csi7GHPcvMyXT_3mcp
FN:227,_RNCNvMs1_NtCs9JGNcCDhGtu_2db7queriesNtB7_15DocumentQueries18rust_vector_search0Csi7GHPcvMyXT_3mcp
FN:282,_RNCNvMs1_NtCs9JGNcCDhGtu_2db7queriesNtB7_15DocumentQueries22doc_type_vector_search0Csi7GHPcvMyXT_3mcp
FN:339,_RNCNvMs1_NtCs9JGNcCDhGtu_2db7queriesNtB7_15DocumentQueries35doc_type_vector_search_with_filters0Csi7GHPcvMyXT_3mcp
FN:648,_RNCNvMs3_NtCs9JGNcCDhGtu_2db7queriesNtB7_15CrateJobQueries10create_job0Csi7GHPcvMyXT_3mcp
FN:677,_RNCNvMs3_NtCs9JGNcCDhGtu_2db7queriesNtB7_15CrateJobQueries14find_job_by_id0Csi7GHPcvMyXT_3mcp
FN:736,_RNCNvMs3_NtCs9JGNcCDhGtu_2db7queriesNtB7_15CrateJobQueries16find_active_jobs0Csi7GHPcvMyXT_3mcp
FN:698,_RNCNvMs3_NtCs9JGNcCDhGtu_2db7queriesNtB7_15CrateJobQueries17update_job_status0Csi7GHPcvMyXT_3mcp
FN:784,_RNCNvMs4_NtCs9JGNcCDhGtu_2db7queriesNtB7_12CrateQueries11list_crates0Csi7GHPcvMyXT_3mcp
FN:975,_RNCNvMs4_NtCs9JGNcCDhGtu_2db7queriesNtB7_12CrateQueries18find_crate_by_name0Csi7GHPcvMyXT_3mcp
FN:908,_RNCNvMs4_NtCs9JGNcCDhGtu_2db7queriesNtB7_12CrateQueries20get_crate_statistics0Csi7GHPcvMyXT_3mcp
FN:61,_RNvMs1_NtCs9JGNcCDhGtu_2db7queriesNtB5_15DocumentQueries12find_by_type
FN:169,_RNvMs1_NtCs9JGNcCDhGtu_2db7queriesNtB5_15DocumentQueries13vector_search
FN:121,_RNvMs1_NtCs9JGNcCDhGtu_2db7queriesNtB5_15DocumentQueries14find_by_source
FN:72,_RNvMs1_NtCs9JGNcCDhGtu_2db7queriesNtB5_15DocumentQueries16find_by_type_str
FN:223,_RNvMs1_NtCs9JGNcCDhGtu_2db7queriesNtB5_15DocumentQueries18rust_vector_search
FN:277,_RNvMs1_NtCs9JGNcCDhGtu_2db7queriesNtB5_15DocumentQueries22doc_type_vector_search
FN:333,_RNvMs1_NtCs9JGNcCDhGtu_2db7queriesNtB5_15DocumentQueries35doc_type_vector_search_with_filters
FN:626,_RNvMs2_NtCs9JGNcCDhGtu_2db7queriesNtB5_23QueryPerformanceMonitor13explain_query
FN:518,_RNvMs2_NtCs9JGNcCDhGtu_2db7queriesNtB5_23QueryPerformanceMonitor17benchmark_queries
FN:578,_RNvMs2_NtCs9JGNcCDhGtu_2db7queriesNtB5_23QueryPerformanceMonitor25benchmark_count_documents
FN:585,_RNvMs2_NtCs9JGNcCDhGtu_2db7queriesNtB5_23QueryPerformanceMonitor26benchmark_latest_documents
FN:644,_RNvMs3_NtCs9JGNcCDhGtu_2db7queriesNtB5_15CrateJobQueries10create_job
FN:674,_RNvMs3_NtCs9JGNcCDhGtu_2db7queriesNtB5_15CrateJobQueries14find_job_by_id
FN:755,_RNvMs3_NtCs9JGNcCDhGtu_2db7queriesNtB5_15CrateJobQueries16cleanup_old_jobs
FN:736,_RNvMs3_NtCs9JGNcCDhGtu_2db7queriesNtB5_15CrateJobQueries16find_active_jobs
FN:692,_RNvMs3_NtCs9JGNcCDhGtu_2db7queriesNtB5_15CrateJobQueries17update_job_status
FN:780,_RNvMs4_NtCs9JGNcCDhGtu_2db7queriesNtB5_12CrateQueries11list_crates
FN:972,_RNvMs4_NtCs9JGNcCDhGtu_2db7queriesNtB5_12CrateQueries18find_crate_by_name
FN:908,_RNvMs4_NtCs9JGNcCDhGtu_2db7queriesNtB5_12CrateQueries20get_crate_statistics
FN:36,_RNvXs_NtCs9JGNcCDhGtu_2db7queriesxNtB4_12RowCountable9row_count
FN:45,_RNvXs0_NtCs9JGNcCDhGtu_2db7queriesNtNtCs8Ty2CzGA6U3_5alloc6string6StringNtB5_12RowCountable9row_count
FN:453,_RINvMs2_NtCs9JGNcCDhGtu_2db7queriesNtB6_23QueryPerformanceMonitor23execute_with_monitoringppEB8_
FN:460,_RNCINvMs2_NtCs9JGNcCDhGtu_2db7queriesNtB8_23QueryPerformanceMonitor23execute_with_monitoringppE0Ba_
FN:199,_RNCNCNvMs1_NtCs9JGNcCDhGtu_2db7queriesNtB9_15DocumentQueries13vector_search00Bb_
FN:145,_RNCNCNvMs1_NtCs9JGNcCDhGtu_2db7queriesNtB9_15DocumentQueries14find_by_source00Bb_
FN:96,_RNCNCNvMs1_NtCs9JGNcCDhGtu_2db7queriesNtB9_15DocumentQueries16find_by_type_str00Bb_
FN:253,_RNCNCNvMs1_NtCs9JGNcCDhGtu_2db7queriesNtB9_15DocumentQueries18rust_vector_search00Bb_
FN:309,_RNCNCNvMs1_NtCs9JGNcCDhGtu_2db7queriesNtB9_15DocumentQueries22doc_type_vector_search00Bb_
FN:415,_RNCNCNvMs1_NtCs9JGNcCDhGtu_2db7queriesNtB9_15DocumentQueries35doc_type_vector_search_with_filters00Bb_
FN:610,_RNCNCNvMs2_NtCs9JGNcCDhGtu_2db7queriesNtB9_23QueryPerformanceMonitor26benchmark_latest_documents00Bb_
FN:874,_RNCNCNvMs4_NtCs9JGNcCDhGtu_2db7queriesNtB9_12CrateQueries11list_crates00Bb_
FN:61,_RNCNvMs1_NtCs9JGNcCDhGtu_2db7queriesNtB7_15DocumentQueries12find_by_type0B9_
FN:173,_RNCNvMs1_NtCs9JGNcCDhGtu_2db7queriesNtB7_15DocumentQueries13vector_search0B9_
FN:121,_RNCNvMs1_NtCs9JGNcCDhGtu_2db7queriesNtB7_15DocumentQueries14find_by_source0B9_
FN:72,_RNCNvMs1_NtCs9JGNcCDhGtu_2db7queriesNtB7_15DocumentQueries16find_by_type_str0B9_
FN:227,_RNCNvMs1_NtCs9JGNcCDhGtu_2db7queriesNtB7_15DocumentQueries18rust_vector_search0B9_
FN:282,_RNCNvMs1_NtCs9JGNcCDhGtu_2db7queriesNtB7_15DocumentQueries22doc_type_vector_search0B9_
FN:339,_RNCNvMs1_NtCs9JGNcCDhGtu_2db7queriesNtB7_15DocumentQueries35doc_type_vector_search_with_filters0B9_
FN:626,_RNCNvMs2_NtCs9JGNcCDhGtu_2db7queriesNtB7_23QueryPerformanceMonitor13explain_query0B9_
FN:518,_RNCNvMs2_NtCs9JGNcCDhGtu_2db7queriesNtB7_23QueryPerformanceMonitor17benchmark_queries0B9_
FN:578,_RNCNvMs2_NtCs9JGNcCDhGtu_2db7queriesNtB7_23QueryPerformanceMonitor25benchmark_count_documents0B9_
FN:585,_RNCNvMs2_NtCs9JGNcCDhGtu_2db7queriesNtB7_23QueryPerformanceMonitor26benchmark_latest_documents0B9_
FN:648,_RNCNvMs3_NtCs9JGNcCDhGtu_2db7queriesNtB7_15CrateJobQueries10create_job0B9_
FN:677,_RNCNvMs3_NtCs9JGNcCDhGtu_2db7queriesNtB7_15CrateJobQueries14find_job_by_id0B9_
FN:755,_RNCNvMs3_NtCs9JGNcCDhGtu_2db7queriesNtB7_15CrateJobQueries16cleanup_old_jobs0B9_
FN:736,_RNCNvMs3_NtCs9JGNcCDhGtu_2db7queriesNtB7_15CrateJobQueries16find_active_jobs0B9_
FN:698,_RNCNvMs3_NtCs9JGNcCDhGtu_2db7queriesNtB7_15CrateJobQueries17update_job_status0B9_
FN:784,_RNCNvMs4_NtCs9JGNcCDhGtu_2db7queriesNtB7_12CrateQueries11list_crates0B9_
FN:975,_RNCNvMs4_NtCs9JGNcCDhGtu_2db7queriesNtB7_12CrateQueries18find_crate_by_name0B9_
FN:908,_RNCNvMs4_NtCs9JGNcCDhGtu_2db7queriesNtB7_12CrateQueries20get_crate_statistics0B9_
FN:29,_RNvXININtCs9JGNcCDhGtu_2db7queries0pEINtNtCs8Ty2CzGA6U3_5alloc3vec3VecpENtB5_12RowCountable9row_countB7_
FN:145,_RNCNCNvMs1_NtCs9JGNcCDhGtu_2db7queriesNtB9_15DocumentQueries14find_by_source00CslijQrqBcbjW_16crate_management
FN:121,_RNCNvMs1_NtCs9JGNcCDhGtu_2db7queriesNtB7_15DocumentQueries14find_by_source0CslijQrqBcbjW_16crate_management
FN:453,_RINvMs2_NtCs9JGNcCDhGtu_2db7queriesNtB6_23QueryPerformanceMonitor23execute_with_monitoringNCNvB2_13explain_query0NtNtCs8Ty2CzGA6U3_5alloc6string6StringECsiLqmQIFToUG_11http_server
FN:453,_RINvMs2_NtCs9JGNcCDhGtu_2db7queriesNtB6_23QueryPerformanceMonitor23execute_with_monitoringNCNvB2_25benchmark_count_documents0xECsiLqmQIFToUG_11http_server
FN:453,_RINvMs2_NtCs9JGNcCDhGtu_2db7queriesNtB6_23QueryPerformanceMonitor23execute_with_monitoringNCNvB2_26benchmark_latest_documents0INtNtCs8Ty2CzGA6U3_5alloc3vec3VecNtNtB8_6models8DocumentEECsiLqmQIFToUG_11http_server
FN:453,_RINvMs2_NtCs9JGNcCDhGtu_2db7queriesNtB6_23QueryPerformanceMonitor23execute_with_monitoringNCNvMs1_B6_NtB6_15DocumentQueries12find_by_type0INtNtCs8Ty2CzGA6U3_5alloc3vec3VecNtNtB8_6models8DocumentEECsiLqmQIFToUG_11http_server
FN:460,_RNCINvMs2_NtCs9JGNcCDhGtu_2db7queriesNtB8_23QueryPerformanceMonitor23execute_with_monitoringNCNvB4_13explain_query0NtNtCs8Ty2CzGA6U3_5alloc6string6StringE0CsiLqmQIFToUG_11http_server
FN:460,_RNCINvMs2_NtCs9JGNcCDhGtu_2db7queriesNtB8_23QueryPerformanceMonitor23execute_with_monitoringNCNvB4_25benchmark_count_documents0xE0CsiLqmQIFToUG_11http_server
FN:460,_RNCINvMs2_NtCs9JGNcCDhGtu_2db7queriesNtB8_23QueryPerformanceMonitor23execute_with_monitoringNCNvB4_26benchmark_latest_documents0INtNtCs8Ty2CzGA6U3_5alloc3vec3VecNtNtBa_6models8DocumentEE0CsiLqmQIFToUG_11http_server
FN:460,_RNCINvMs2_NtCs9JGNcCDhGtu_2db7queriesNtB8_23QueryPerformanceMonitor23execute_with_monitoringNCNvMs1_B8_NtB8_15DocumentQueries12find_by_type0INtNtCs8Ty2CzGA6U3_5alloc3vec3VecNtNtBa_6models8DocumentEE0CsiLqmQIFToUG_11http_server
FN:96,_RNCNCNvMs1_NtCs9JGNcCDhGtu_2db7queriesNtB9_15DocumentQueries16find_by_type_str00CsiLqmQIFToUG_11http_server
FN:610,_RNCNCNvMs2_NtCs9JGNcCDhGtu_2db7queriesNtB9_23QueryPerformanceMonitor26benchmark_latest_documents00CsiLqmQIFToUG_11http_server
FN:61,_RNCNvMs1_NtCs9JGNcCDhGtu_2db7queriesNtB7_15DocumentQueries12find_by_type0CsiLqmQIFToUG_11http_server
FN:72,_RNCNvMs1_NtCs9JGNcCDhGtu_2db7queriesNtB7_15DocumentQueries16find_by_type_str0CsiLqmQIFToUG_11http_server
FN:626,_RNCNvMs2_NtCs9JGNcCDhGtu_2db7queriesNtB7_23QueryPerformanceMonitor13explain_query0CsiLqmQIFToUG_11http_server
FN:518,_RNCNvMs2_NtCs9JGNcCDhGtu_2db7queriesNtB7_23QueryPerformanceMonitor17benchmark_queries0CsiLqmQIFToUG_11http_server
FN:578,_RNCNvMs2_NtCs9JGNcCDhGtu_2db7queriesNtB7_23QueryPerformanceMonitor25benchmark_count_documents0CsiLqmQIFToUG_11http_server
FN:585,_RNCNvMs2_NtCs9JGNcCDhGtu_2db7queriesNtB7_23QueryPerformanceMonitor26benchmark_latest_documents0CsiLqmQIFToUG_11http_server
FN:29,_RNvXNtCs9JGNcCDhGtu_2db7queriesINtNtCs8Ty2CzGA6U3_5alloc3vec3VecNtNtB4_6models8DocumentENtB2_12RowCountable9row_countCsiLqmQIFToUG_11http_server
FNDA:0,_RNCNCNvMs1_NtCs9JGNcCDhGtu_2db7queriesNtB9_15DocumentQueries18rust_vector_search00Csi7GHPcvMyXT_3mcp
FNDA:0,_RNCNCNvMs1_NtCs9JGNcCDhGtu_2db7queriesNtB9_15DocumentQueries22doc_type_vector_search00Csi7GHPcvMyXT_3mcp
FNDA:0,_RNCNCNvMs1_NtCs9JGNcCDhGtu_2db7queriesNtB9_15DocumentQueries35doc_type_vector_search_with_filters00Csi7GHPcvMyXT_3mcp
FNDA:38,_RNCNCNvMs4_NtCs9JGNcCDhGtu_2db7queriesNtB9_12CrateQueries11list_crates00Csi7GHPcvMyXT_3mcp
FNDA:0,_RNCNvMs1_NtCs9JGNcCDhGtu_2db7queriesNtB7_15DocumentQueries18rust_vector_search0Csi7GHPcvMyXT_3mcp
FNDA:0,_RNCNvMs1_NtCs9JGNcCDhGtu_2db7queriesNtB7_15DocumentQueries22doc_type_vector_search0Csi7GHPcvMyXT_3mcp
FNDA:0,_RNCNvMs1_NtCs9JGNcCDhGtu_2db7queriesNtB7_15DocumentQueries35doc_type_vector_search_with_filters0Csi7GHPcvMyXT_3mcp
FNDA:1,_RNCNvMs3_NtCs9JGNcCDhGtu_2db7queriesNtB7_15CrateJobQueries10create_job0Csi7GHPcvMyXT_3mcp
FNDA:1,_RNCNvMs3_NtCs9JGNcCDhGtu_2db7queriesNtB7_15CrateJobQueries14find_job_by_id0Csi7GHPcvMyXT_3mcp
FNDA:3,_RNCNvMs3_NtCs9JGNcCDhGtu_2db7queriesNtB7_15CrateJobQueries16find_active_jobs0Csi7GHPcvMyXT_3mcp
FNDA:0,_RNCNvMs3_NtCs9JGNcCDhGtu_2db7queriesNtB7_15CrateJobQueries17update_job_status0Csi7GHPcvMyXT_3mcp
FNDA:4,_RNCNvMs4_NtCs9JGNcCDhGtu_2db7queriesNtB7_12CrateQueries11list_crates0Csi7GHPcvMyXT_3mcp
FNDA:3,_RNCNvMs4_NtCs9JGNcCDhGtu_2db7queriesNtB7_12CrateQueries18find_crate_by_name0Csi7GHPcvMyXT_3mcp
FNDA:4,_RNCNvMs4_NtCs9JGNcCDhGtu_2db7queriesNtB7_12CrateQueries20get_crate_statistics0Csi7GHPcvMyXT_3mcp
FNDA:0,_RNvMs1_NtCs9JGNcCDhGtu_2db7queriesNtB5_15DocumentQueries12find_by_type
FNDA:0,_RNvMs1_NtCs9JGNcCDhGtu_2db7queriesNtB5_15DocumentQueries13vector_search
FNDA:0,_RNvMs1_NtCs9JGNcCDhGtu_2db7queriesNtB5_15DocumentQueries14find_by_source
FNDA:0,_RNvMs1_NtCs9JGNcCDhGtu_2db7queriesNtB5_15DocumentQueries16find_by_type_str
FNDA:0,_RNvMs1_NtCs9JGNcCDhGtu_2db7queriesNtB5_15DocumentQueries18rust_vector_search
FNDA:0,_RNvMs1_NtCs9JGNcCDhGtu_2db7queriesNtB5_15DocumentQueries22doc_type_vector_search
FNDA:0,_RNvMs1_NtCs9JGNcCDhGtu_2db7queriesNtB5_15DocumentQueries35doc_type_vector_search_with_filters
FNDA:0,_RNvMs2_NtCs9JGNcCDhGtu_2db7queriesNtB5_23QueryPerformanceMonitor13explain_query
FNDA:0,_RNvMs2_NtCs9JGNcCDhGtu_2db7queriesNtB5_23QueryPerformanceMonitor17benchmark_queries
FNDA:0,_RNvMs2_NtCs9JGNcCDhGtu_2db7queriesNtB5_23QueryPerformanceMonitor25benchmark_count_documents
FNDA:0,_RNvMs2_NtCs9JGNcCDhGtu_2db7queriesNtB5_23QueryPerformanceMonitor26benchmark_latest_documents
FNDA:1,_RNvMs3_NtCs9JGNcCDhGtu_2db7queriesNtB5_15CrateJobQueries10create_job
FNDA:1,_RNvMs3_NtCs9JGNcCDhGtu_2db7queriesNtB5_15CrateJobQueries14find_job_by_id
FNDA:0,_RNvMs3_NtCs9JGNcCDhGtu_2db7queriesNtB5_15CrateJobQueries16cleanup_old_jobs
FNDA:3,_RNvMs3_NtCs9JGNcCDhGtu_2db7queriesNtB5_15CrateJobQueries16find_active_jobs
FNDA:0,_RNvMs3_NtCs9JGNcCDhGtu_2db7queriesNtB5_15CrateJobQueries17update_job_status
FNDA:4,_RNvMs4_NtCs9JGNcCDhGtu_2db7queriesNtB5_12CrateQueries11list_crates
FNDA:3,_RNvMs4_NtCs9JGNcCDhGtu_2db7queriesNtB5_12CrateQueries18find_crate_by_name
FNDA:4,_RNvMs4_NtCs9JGNcCDhGtu_2db7queriesNtB5_12CrateQueries20get_crate_statistics
FNDA:0,_RNvXs_NtCs9JGNcCDhGtu_2db7queriesxNtB4_12RowCountable9row_count
FNDA:0,_RNvXs0_NtCs9JGNcCDhGtu_2db7queriesNtNtCs8Ty2CzGA6U3_5alloc6string6StringNtB5_12RowCountable9row_count
FNDA:0,_RINvMs2_NtCs9JGNcCDhGtu_2db7queriesNtB6_23QueryPerformanceMonitor23execute_with_monitoringppEB8_
FNDA:0,_RNCINvMs2_NtCs9JGNcCDhGtu_2db7queriesNtB8_23QueryPerformanceMonitor23execute_with_monitoringppE0Ba_
FNDA:0,_RNCNCNvMs1_NtCs9JGNcCDhGtu_2db7queriesNtB9_15DocumentQueries13vector_search00Bb_
FNDA:0,_RNCNCNvMs1_NtCs9JGNcCDhGtu_2db7queriesNtB9_15DocumentQueries14find_by_source00Bb_
FNDA:0,_RNCNCNvMs1_NtCs9JGNcCDhGtu_2db7queriesNtB9_15DocumentQueries16find_by_type_str00Bb_
FNDA:0,_RNCNCNvMs1_NtCs9JGNcCDhGtu_2db7queriesNtB9_15DocumentQueries18rust_vector_search00Bb_
FNDA:0,_RNCNCNvMs1_NtCs9JGNcCDhGtu_2db7queriesNtB9_15DocumentQueries22doc_type_vector_search00Bb_
FNDA:0,_RNCNCNvMs1_NtCs9JGNcCDhGtu_2db7queriesNtB9_15DocumentQueries35doc_type_vector_search_with_filters00Bb_
FNDA:0,_RNCNCNvMs2_NtCs9JGNcCDhGtu_2db7queriesNtB9_23QueryPerformanceMonitor26benchmark_latest_documents00Bb_
FNDA:0,_RNCNCNvMs4_NtCs9JGNcCDhGtu_2db7queriesNtB9_12CrateQueries11list_crates00Bb_
FNDA:0,_RNCNvMs1_NtCs9JGNcCDhGtu_2db7queriesNtB7_15DocumentQueries12find_by_type0B9_
FNDA:0,_RNCNvMs1_NtCs9JGNcCDhGtu_2db7queriesNtB7_15DocumentQueries13vector_search0B9_
FNDA:0,_RNCNvMs1_NtCs9JGNcCDhGtu_2db7queriesNtB7_15DocumentQueries14find_by_source0B9_
FNDA:0,_RNCNvMs1_NtCs9JGNcCDhGtu_2db7queriesNtB7_15DocumentQueries16find_by_type_str0B9_
FNDA:0,_RNCNvMs1_NtCs9JGNcCDhGtu_2db7queriesNtB7_15DocumentQueries18rust_vector_search0B9_
FNDA:0,_RNCNvMs1_NtCs9JGNcCDhGtu_2db7queriesNtB7_15DocumentQueries22doc_type_vector_search0B9_
FNDA:0,_RNCNvMs1_NtCs9JGNcCDhGtu_2db7queriesNtB7_15DocumentQueries35doc_type_vector_search_with_filters0B9_
FNDA:0,_RNCNvMs2_NtCs9JGNcCDhGtu_2db7queriesNtB7_23QueryPerformanceMonitor13explain_query0B9_
FNDA:0,_RNCNvMs2_NtCs9JGNcCDhGtu_2db7queriesNtB7_23QueryPerformanceMonitor17benchmark_queries0B9_
FNDA:0,_RNCNvMs2_NtCs9JGNcCDhGtu_2db7queriesNtB7_23QueryPerformanceMonitor25benchmark_count_documents0B9_
FNDA:0,_RNCNvMs2_NtCs9JGNcCDhGtu_2db7queriesNtB7_23QueryPerformanceMonitor26benchmark_latest_documents0B9_
FNDA:0,_RNCNvMs3_NtCs9JGNcCDhGtu_2db7queriesNtB7_15CrateJobQueries10create_job0B9_
FNDA:0,_RNCNvMs3_NtCs9JGNcCDhGtu_2db7queriesNtB7_15CrateJobQueries14find_job_by_id0B9_
FNDA:0,_RNCNvMs3_NtCs9JGNcCDhGtu_2db7queriesNtB7_15CrateJobQueries16cleanup_old_jobs0B9_
FNDA:0,_RNCNvMs3_NtCs9JGNcCDhGtu_2db7queriesNtB7_15CrateJobQueries16find_active_jobs0B9_
FNDA:0,_RNCNvMs3_NtCs9JGNcCDhGtu_2db7queriesNtB7_15CrateJobQueries17update_job_status0B9_
FNDA:0,_RNCNvMs4_NtCs9JGNcCDhGtu_2db7queriesNtB7_12CrateQueries11list_crates0B9_
FNDA:0,_RNCNvMs4_NtCs9JGNcCDhGtu_2db7queriesNtB7_12CrateQueries18find_crate_by_name0B9_
FNDA:0,_RNCNvMs4_NtCs9JGNcCDhGtu_2db7queriesNtB7_12CrateQueries20get_crate_statistics0B9_
FNDA:0,_RNvXININtCs9JGNcCDhGtu_2db7queries0pEINtNtCs8Ty2CzGA6U3_5alloc3vec3VecpENtB5_12RowCountable9row_countB7_
FNDA:0,_RNCNCNvMs1_NtCs9JGNcCDhGtu_2db7queriesNtB9_15DocumentQueries14find_by_source00CslijQrqBcbjW_16crate_management
FNDA:0,_RNCNvMs1_NtCs9JGNcCDhGtu_2db7queriesNtB7_15DocumentQueries14find_by_source0CslijQrqBcbjW_16crate_management
FNDA:0,_RINvMs2_NtCs9JGNcCDhGtu_2db7queriesNtB6_23QueryPerformanceMonitor23execute_with_monitoringNCNvB2_13explain_query0NtNtCs8Ty2CzGA6U3_5alloc6string6StringECsiLqmQIFToUG_11http_server
FNDA:0,_RINvMs2_NtCs9JGNcCDhGtu_2db7queriesNtB6_23QueryPerformanceMonitor23execute_with_monitoringNCNvB2_25benchmark_count_documents0xECsiLqmQIFToUG_11http_server
FNDA:0,_RINvMs2_NtCs9JGNcCDhGtu_2db7queriesNtB6_23QueryPerformanceMonitor23execute_with_monitoringNCNvB2_26benchmark_latest_documents0INtNtCs8Ty2CzGA6U3_5alloc3vec3VecNtNtB8_6models8DocumentEECsiLqmQIFToUG_11http_server
FNDA:0,_RINvMs2_NtCs9JGNcCDhGtu_2db7queriesNtB6_23QueryPerformanceMonitor23execute_with_monitoringNCNvMs1_B6_NtB6_15DocumentQueries12find_by_type0INtNtCs8Ty2CzGA6U3_5alloc3vec3VecNtNtB8_6models8DocumentEECsiLqmQIFToUG_11http_server
FNDA:0,_RNCINvMs2_NtCs9JGNcCDhGtu_2db7queriesNtB8_23QueryPerformanceMonitor23execute_with_monitoringNCNvB4_13explain_query0NtNtCs8Ty2CzGA6U3_5alloc6string6StringE0CsiLqmQIFToUG_11http_server
FNDA:0,_RNCINvMs2_NtCs9JGNcCDhGtu_2db7queriesNtB8_23QueryPerformanceMonitor23execute_with_monitoringNCNvB4_25benchmark_count_documents0xE0CsiLqmQIFToUG_11http_server
FNDA:0,_RNCINvMs2_NtCs9JGNcCDhGtu_2db7queriesNtB8_23QueryPerformanceMonitor23execute_with_monitoringNCNvB4_26benchmark_latest_documents0INtNtCs8Ty2CzGA6U3_5alloc3vec3VecNtNtBa_6models8DocumentEE0CsiLqmQIFToUG_11http_server
FNDA:0,_RNCINvMs2_NtCs9JGNcCDhGtu_2db7queriesNtB8_23QueryPerformanceMonitor23execute_with_monitoringNCNvMs1_B8_NtB8_15DocumentQueries12find_by_type0INtNtCs8Ty2CzGA6U3_5alloc3vec3VecNtNtBa_6models8DocumentEE0CsiLqmQIFToUG_11http_server
FNDA:0,_RNCNCNvMs1_NtCs9JGNcCDhGtu_2db7queriesNtB9_15DocumentQueries16find_by_type_str00CsiLqmQIFToUG_11http_server
FNDA:0,_RNCNCNvMs2_NtCs9JGNcCDhGtu_2db7queriesNtB9_23QueryPerformanceMonitor26benchmark_latest_documents00CsiLqmQIFToUG_11http_server
FNDA:0,_RNCNvMs1_NtCs9JGNcCDhGtu_2db7queriesNtB7_15DocumentQueries12find_by_type0CsiLqmQIFToUG_11http_server
FNDA:0,_RNCNvMs1_NtCs9JGNcCDhGtu_2db7queriesNtB7_15DocumentQueries16find_by_type_str0CsiLqmQIFToUG_11http_server
FNDA:0,_RNCNvMs2_NtCs9JGNcCDhGtu_2db7queriesNtB7_23QueryPerformanceMonitor13explain_query0CsiLqmQIFToUG_11http_server
FNDA:0,_RNCNvMs2_NtCs9JGNcCDhGtu_2db7queriesNtB7_23QueryPerformanceMonitor17benchmark_queries0CsiLqmQIFToUG_11http_server
FNDA:0,_RNCNvMs2_NtCs9JGNcCDhGtu_2db7queriesNtB7_23QueryPerformanceMonitor25benchmark_count_documents0CsiLqmQIFToUG_11http_server
FNDA:0,_RNCNvMs2_NtCs9JGNcCDhGtu_2db7queriesNtB7_23QueryPerformanceMonitor26benchmark_latest_documents0CsiLqmQIFToUG_11http_server
FNDA:0,_RNvXNtCs9JGNcCDhGtu_2db7queriesINtNtCs8Ty2CzGA6U3_5alloc3vec3VecNtNtB4_6models8DocumentENtB2_12RowCountable9row_countCsiLqmQIFToUG_11http_server
FNF:51
FNH:13
DA:29,0
DA:30,0
DA:31,0
DA:36,0
DA:39,0
DA:40,0
DA:45,0
DA:47,0
DA:48,0
DA:61,0
DA:63,0
DA:64,0
DA:72,0
DA:73,0
DA:74,0
DA:75,0
DA:76,0
DA:77,0
DA:78,0
DA:79,0
DA:80,0
DA:81,0
DA:82,0
DA:83,0
DA:84,0
DA:85,0
DA:86,0
DA:87,0
DA:88,0
DA:89,0
DA:90,0
DA:91,0
DA:92,0
DA:94,0
DA:95,0
DA:96,0
DA:97,0
DA:98,0
DA:99,0
DA:100,0
DA:101,0
DA:102,0
DA:103,0
DA:104,0
DA:105,0
DA:106,0
DA:107,0
DA:108,0
DA:109,0
DA:110,0
DA:112,0
DA:113,0
DA:121,0
DA:122,0
DA:123,0
DA:124,0
DA:125,0
DA:126,0
DA:127,0
DA:128,0
DA:129,0
DA:130,0
DA:131,0
DA:132,0
DA:133,0
DA:134,0
DA:135,0
DA:136,0
DA:137,0
DA:138,0
DA:139,0
DA:140,0
DA:141,0
DA:143,0
DA:144,0
DA:145,0
DA:146,0
DA:147,0
DA:148,0
DA:149,0
DA:150,0
DA:151,0
DA:152,0
DA:153,0
DA:154,0
DA:155,0
DA:156,0
DA:157,0
DA:158,0
DA:159,0
DA:161,0
DA:162,0
DA:169,0
DA:170,0
DA:171,0
DA:172,0
DA:173,0
DA:175,0
DA:176,0
DA:177,0
DA:178,0
DA:179,0
DA:180,0
DA:181,0
DA:182,0
DA:183,0
DA:184,0
DA:185,0
DA:186,0
DA:187,0
DA:188,0
DA:189,0
DA:190,0
DA:191,0
DA:192,0
DA:193,0
DA:194,0
DA:195,0
DA:197,0
DA:198,0
DA:199,0
DA:200,0
DA:201,0
DA:202,0
DA:203,0
DA:204,0
DA:205,0
DA:206,0
DA:207,0
DA:208,0
DA:209,0
DA:210,0
DA:211,0
DA:212,0
DA:213,0
DA:215,0
DA:216,0
DA:223,0
DA:224,0
DA:225,0
DA:226,0
DA:227,0
DA:229,0
DA:230,0
DA:231,0
DA:232,0
DA:233,0
DA:234,0
DA:235,0
DA:236,0
DA:237,0
DA:238,0
DA:239,0
DA:240,0
DA:241,0
DA:242,0
DA:243,0
DA:244,0
DA:245,0
DA:246,0
DA:247,0
DA:248,0
DA:249,0
DA:251,0
DA:252,0
DA:253,0
DA:254,0
DA:255,0
DA:256,0
DA:257,0
DA:258,0
DA:259,0
DA:260,0
DA:261,0
DA:262,0
DA:263,0
DA:264,0
DA:265,0
DA:266,0
DA:267,0
DA:269,0
DA:270,0
DA:277,0
DA:278,0
DA:279,0
DA:280,0
DA:281,0
DA:282,0
DA:284,0
DA:285,0
DA:286,0
DA:287,0
DA:288,0
DA:289,0
DA:290,0
DA:291,0
DA:292,0
DA:293,0
DA:294,0
DA:295,0
DA:296,0
DA:297,0
DA:298,0
DA:299,0
DA:300,0
DA:301,0
DA:302,0
DA:303,0
DA:304,0
DA:305,0
DA:307,0
DA:308,0
DA:309,0
DA:310,0
DA:311,0
DA:312,0
DA:313,0
DA:314,0
DA:315,0
DA:316,0
DA:317,0
DA:318,0
DA:319,0
DA:320,0
DA:321,0
DA:322,0
DA:323,0
DA:325,0
DA:326,0
DA:333,0
DA:334,0
DA:335,0
DA:336,0
DA:337,0
DA:338,0
DA:339,0
DA:341,0
DA:342,0
DA:345,0
DA:346,0
DA:347,0
DA:348,0
DA:349,0
DA:350,0
DA:351,0
DA:352,0
DA:353,0
DA:354,0
DA:355,0
DA:356,0
DA:357,0
DA:358,0
DA:359,0
DA:360,0
DA:361,0
DA:362,0
DA:363,0
DA:364,0
DA:366,0
DA:367,0
DA:369,0
DA:370,0
DA:371,0
DA:372,0
DA:373,0
DA:374,0
DA:375,0
DA:376,0
DA:377,0
DA:378,0
DA:379,0
DA:380,0
DA:381,0
DA:382,0
DA:383,0
DA:384,0
DA:385,0
DA:389,0
DA:392,0
DA:393,0
DA:394,0
DA:395,0
DA:396,0
DA:397,0
DA:398,0
DA:399,0
DA:400,0
DA:401,0
DA:402,0
DA:403,0
DA:404,0
DA:405,0
DA:406,0
DA:409,0
DA:411,0
DA:413,0
DA:414,0
DA:415,0
DA:416,0
DA:417,0
DA:418,0
DA:419,0
DA:420,0
DA:421,0
DA:422,0
DA:423,0
DA:424,0
DA:425,0
DA:426,0
DA:427,0
DA:428,0
DA:429,0
DA:431,0
DA:432,0
DA:453,0
DA:454,0
DA:455,0
DA:456,0
DA:457,0
DA:458,0
DA:459,0
DA:460,0
DA:461,0
DA:462,0
DA:463,0
DA:465,0
DA:466,0
DA:467,0
DA:468,0
DA:469,0
DA:470,0
DA:471,0
DA:472,0
DA:473,0
DA:474,0
DA:477,0
DA:478,0
DA:479,0
DA:482,0
DA:483,0
DA:484,0
DA:487,0
DA:489,0
DA:491,0
DA:492,0
DA:493,0
DA:494,0
DA:495,0
DA:496,0
DA:497,0
DA:498,0
DA:500,0
DA:501,0
DA:504,0
DA:507,0
DA:518,0
DA:519,0
DA:522,0
DA:523,0
DA:524,0
DA:525,0
DA:526,0
DA:527,0
DA:528,0
DA:529,0
DA:531,0
DA:535,0
DA:536,0
DA:537,0
DA:538,0
DA:539,0
DA:540,0
DA:541,0
DA:542,0
DA:543,0
DA:544,0
DA:548,0
DA:549,0
DA:550,0
DA:551,0
DA:552,0
DA:553,0
DA:554,0
DA:555,0
DA:556,0
DA:557,0
DA:561,0
DA:562,0
DA:563,0
DA:564,0
DA:565,0
DA:566,0
DA:567,0
DA:568,0
DA:569,0
DA:570,0
DA:571,0
DA:572,0
DA:575,0
DA:576,0
DA:578,0
DA:579,0
DA:580,0
DA:581,0
DA:582,0
DA:583,0
DA:585,0
DA:586,0
DA:587,0
DA:588,0
DA:589,0
DA:590,0
DA:591,0
DA:592,0
DA:593,0
DA:594,0
DA:595,0
DA:596,0
DA:597,0
DA:598,0
DA:599,0
DA:600,0
DA:601,0
DA:602,0
DA:603,0
DA:604,0
DA:605,0
DA:607,0
DA:608,0
DA:609,0
DA:610,0
DA:611,0
DA:612,0
DA:613,0
DA:614,0
DA:615,0
DA:616,0
DA:617,0
DA:618,0
DA:619,0
DA:620,0
DA:621,0
DA:623,0
DA:624,0
DA:626,0
DA:627,0
DA:628,0
DA:630,0
DA:631,0
DA:632,0
DA:644,1
DA:645,1
DA:646,1
DA:647,1
DA:648,1
DA:649,1
DA:650,1
DA:652,1
DA:653,1
DA:654,1
DA:655,1
DA:656,1
DA:657,1
DA:658,1
DA:659,1
DA:660,1
DA:661,1
DA:662,1
DA:663,1
DA:664,1
DA:666,1
DA:667,1
DA:674,1
DA:675,1
DA:676,1
DA:677,1
DA:678,1
DA:679,1
DA:680,1
DA:681,1
DA:682,1
DA:684,1
DA:685,1
DA:692,0
DA:693,0
DA:694,0
DA:695,0
DA:696,0
DA:697,0
DA:698,0
DA:699,0
DA:700,0
DA:701,0
DA:706,0
DA:708,0
DA:711,0
DA:712,0
DA:713,0
DA:714,0
DA:715,0
DA:716,0
DA:717,0
DA:718,0
DA:719,0
DA:720,0
DA:721,0
DA:722,0
DA:723,0
DA:724,0
DA:725,0
DA:726,0
DA:728,0
DA:729,0
DA:736,3
DA:737,3
DA:738,3
DA:739,3
DA:740,3
DA:741,3
DA:742,3
DA:743,3
DA:744,3
DA:745,3
DA:747,3
DA:748,3
DA:755,0
DA:756,0
DA:757,0
DA:758,0
DA:759,0
DA:760,0
DA:761,0
DA:762,0
DA:763,0
DA:764,0
DA:767,0
DA:768,0
DA:780,4
DA:781,4
DA:782,4
DA:783,4
DA:784,4
DA:786,4
DA:787,4
DA:788,4
DA:789,4
DA:790,4
DA:791,4
DA:792,4
DA:793,4
DA:794,4
DA:795,4
DA:796,4
DA:797,4
DA:798,4
DA:801,4
DA:802,1
DA:803,3
DA:805,4
DA:806,4
DA:807,4
DA:808,4
DA:809,4
DA:810,4
DA:811,4
DA:812,4
DA:813,4
DA:814,4
DA:815,4
DA:816,4
DA:817,4
DA:818,4
DA:819,4
DA:820,4
DA:821,4
DA:824,4
DA:827,4
DA:828,4
DA:829,4
DA:830,4
DA:831,4
DA:832,4
DA:834,4
DA:835,1
DA:836,3
DA:838,4
DA:841,4
DA:842,4
DA:843,4
DA:844,4
DA:845,4
DA:846,4
DA:847,4
DA:849,4
DA:850,1
DA:851,3
DA:853,4
DA:854,4
DA:856,4
DA:857,1
DA:858,3
DA:860,4
DA:863,4
DA:864,4
DA:865,4
DA:874,38
DA:876,38
DA:877,38
DA:878,38
DA:879,38
DA:881,0
DA:883,38
DA:884,38
DA:886,0
DA:888,38
DA:889,38
DA:890,38
DA:892,38
DA:894,4
DA:896,4
DA:897,4
DA:898,4
DA:899,4
DA:900,4
DA:901,4
DA:908,4
DA:909,4
DA:910,4
DA:911,4
DA:912,4
DA:913,4
DA:914,4
DA:915,4
DA:916,4
DA:917,4
DA:918,4
DA:919,4
DA:920,4
DA:921,4
DA:922,4
DA:923,4
DA:924,4
DA:925,4
DA:926,4
DA:927,4
DA:928,4
DA:929,4
DA:930,4
DA:931,4
DA:933,4
DA:936,4
DA:937,4
DA:938,4
DA:939,4
DA:940,4
DA:941,4
DA:942,4
DA:943,4
DA:944,4
DA:945,4
DA:946,4
DA:948,4
DA:951,4
DA:954,0
DA:957,4
DA:958,4
DA:959,4
DA:960,4
DA:961,4
DA:962,4
DA:963,4
DA:964,4
DA:965,4
DA:972,3
DA:973,3
DA:974,3
DA:975,3
DA:976,3
DA:977,3
DA:978,3
DA:979,3
DA:980,3
DA:981,3
DA:982,3
DA:983,3
DA:984,3
DA:985,3
DA:986,3
DA:987,3
DA:988,3
DA:989,3
DA:990,3
DA:991,3
DA:992,3
DA:993,3
DA:995,3
DA:996,0
DA:997,0
DA:998,0
DA:999,0
DA:1000,0
DA:1001,0
DA:1002,0
DA:1003,0
DA:1004,0
DA:1005,0
DA:1007,3
DA:1009,3
BRF:0
BRH:0
LF:733
LH:209
end_of_record
SF:/workspace/agent-docs/db/src/retry.rs
FN:273,_RINvMs1_NtCs9JGNcCDhGtu_2db5retryNtB6_13RetryExecutor27execute_with_classificationpppEB8_
FN:216,_RINvMs1_NtCs9JGNcCDhGtu_2db5retryNtB6_13RetryExecutor7executeppppEB8_
FN:277,_RNCINvMs1_NtCs9JGNcCDhGtu_2db5retryNtB8_13RetryExecutor27execute_with_classificationpppE0Ba_
FN:221,_RNCINvMs1_NtCs9JGNcCDhGtu_2db5retryNtB8_13RetryExecutor7executeppppE0Ba_
FN:273,_RINvMs1_NtCs9JGNcCDhGtu_2db5retryNtB6_13RetryExecutor27execute_with_classificationNCNCNvMNtB8_10connectionNtB1p_12DatabasePool11with_config00NCNCB1k_00INtNtCsgkja2qPsmH1_9sqlx_core4pool4PoolNtNtCs9ZCbkk8MNCp_13sqlx_postgres8database8PostgresEECslijQrqBcbjW_16crate_management
FN:277,_RNCINvMs1_NtCs9JGNcCDhGtu_2db5retryNtB8_13RetryExecutor27execute_with_classificationNCNCNvMNtBa_10connectionNtB1r_12DatabasePool11with_config00NCNCB1m_00INtNtCsgkja2qPsmH1_9sqlx_core4pool4PoolNtNtCs9ZCbkk8MNCp_13sqlx_postgres8database8PostgresEE0CslijQrqBcbjW_16crate_management
FN:154,_RNvMs0_NtCs9JGNcCDhGtu_2db5retryNtB5_13DatabaseError12is_retryable
FN:167,_RNvMs0_NtCs9JGNcCDhGtu_2db5retryNtB5_13DatabaseError15from_sqlx_error
FN:205,_RNvMs1_NtCs9JGNcCDhGtu_2db5retryNtB5_13RetryExecutor11with_config
FN:197,_RNvMs1_NtCs9JGNcCDhGtu_2db5retryNtB5_13RetryExecutor3new
FN:126,_RNvMs_NtCs9JGNcCDhGtu_2db5retryNtB4_11RetryConfig10add_jitter
FN:109,_RNvMs_NtCs9JGNcCDhGtu_2db5retryNtB4_11RetryConfig15calculate_delay
FN:46,_RNvMs_NtCs9JGNcCDhGtu_2db5retryNtB4_11RetryConfig8from_env
FN:85,_RNvMs_NtCs9JGNcCDhGtu_2db5retryNtB4_11RetryConfig8validate
FN:32,_RNvXNtCs9JGNcCDhGtu_2db5retryNtB2_11RetryConfigNtNtCs66KPHxksi63_4core7default7Default7default
FN:339,_RNvXs2_NtCs9JGNcCDhGtu_2db5retryNtB5_13RetryExecutorNtNtCs66KPHxksi63_4core7default7Default7default
FN:345,_RNvXs3_NtCs9JGNcCDhGtu_2db5retryNtB5_13DatabaseErrorNtNtCs66KPHxksi63_4core3fmt7Display3fmt
FN:273,_RINvMs1_NtCs9JGNcCDhGtu_2db5retryNtB6_13RetryExecutor27execute_with_classificationNCNCNvMNtB8_10connectionNtB1p_12DatabasePool11with_config00NCNCB1k_00INtNtCsgkja2qPsmH1_9sqlx_core4pool4PoolNtNtCs9ZCbkk8MNCp_13sqlx_postgres8database8PostgresEECsfAMnWzr0b5l_18dynamic_tools_test
FN:277,_RNCINvMs1_NtCs9JGNcCDhGtu_2db5retryNtB8_13RetryExecutor27execute_with_classificationNCNCNvMNtBa_10connectionNtB1r_12DatabasePool11with_config00NCNCB1m_00INtNtCsgkja2qPsmH1_9sqlx_core4pool4PoolNtNtCs9ZCbkk8MNCp_13sqlx_postgres8database8PostgresEE0CsfAMnWzr0b5l_18dynamic_tools_test
FN:273,_RINvMs1_NtCs9JGNcCDhGtu_2db5retryNtB6_13RetryExecutor27execute_with_classificationNCNCNvMNtB8_10connectionNtB1p_12DatabasePool11with_config00NCNCB1k_00INtNtCsgkja2qPsmH1_9sqlx_core4pool4PoolNtNtCs9ZCbkk8MNCp_13sqlx_postgres8database8PostgresEECsiLqmQIFToUG_11http_server
FN:277,_RNCINvMs1_NtCs9JGNcCDhGtu_2db5retryNtB8_13RetryExecutor27execute_with_classificationNCNCNvMNtBa_10connectionNtB1r_12DatabasePool11with_config00NCNCB1m_00INtNtCsgkja2qPsmH1_9sqlx_core4pool4PoolNtNtCs9ZCbkk8MNCp_13sqlx_postgres8database8PostgresEE0CsiLqmQIFToUG_11http_server
FN:273,_RINvMs1_NtCs9JGNcCDhGtu_2db5retryNtB6_13RetryExecutor27execute_with_classificationNCNCNvMNtB8_10connectionNtB1p_12DatabasePool11with_config00NCNCB1k_00INtNtCsgkja2qPsmH1_9sqlx_core4pool4PoolNtNtCs9ZCbkk8MNCp_13sqlx_postgres8database8PostgresEECs3p1S6jYGLeO_14initialize_mvp
FN:277,_RNCINvMs1_NtCs9JGNcCDhGtu_2db5retryNtB8_13RetryExecutor27execute_with_classificationNCNCNvMNtBa_10connectionNtB1r_12DatabasePool11with_config00NCNCB1m_00INtNtCsgkja2qPsmH1_9sqlx_core4pool4PoolNtNtCs9ZCbkk8MNCp_13sqlx_postgres8database8PostgresEE0Cs3p1S6jYGLeO_14initialize_mvp
FN:273,_RINvMs1_NtCs9JGNcCDhGtu_2db5retryNtB6_13RetryExecutor27execute_with_classificationNCNCNvMNtB8_10connectionNtB1p_12DatabasePool11with_config00NCNCB1k_00INtNtCsgkja2qPsmH1_9sqlx_core4pool4PoolNtNtCs9ZCbkk8MNCp_13sqlx_postgres8database8PostgresEECsaT2uQ1v1wmQ_18json_only_mvp_test
FN:277,_RNCINvMs1_NtCs9JGNcCDhGtu_2db5retryNtB8_13RetryExecutor27execute_with_classificationNCNCNvMNtBa_10connectionNtB1r_12DatabasePool11with_config00NCNCB1m_00INtNtCsgkja2qPsmH1_9sqlx_core4pool4PoolNtNtCs9ZCbkk8MNCp_13sqlx_postgres8database8PostgresEE0CsaT2uQ1v1wmQ_18json_only_mvp_test
FN:273,_RINvMs1_NtCs9JGNcCDhGtu_2db5retryNtB6_13RetryExecutor27execute_with_classificationNCNCNvMNtB8_10connectionNtB1p_12DatabasePool11with_config00NCNCB1k_00INtNtCsgkja2qPsmH1_9sqlx_core4pool4PoolNtNtCs9ZCbkk8MNCp_13sqlx_postgres8database8PostgresEECscIjP2UPxd8q_12routing_test
FN:277,_RNCINvMs1_NtCs9JGNcCDhGtu_2db5retryNtB8_13RetryExecutor27execute_with_classificationNCNCNvMNtBa_10connectionNtB1r_12DatabasePool11with_config00NCNCB1m_00INtNtCsgkja2qPsmH1_9sqlx_core4pool4PoolNtNtCs9ZCbkk8MNCp_13sqlx_postgres8database8PostgresEE0CscIjP2UPxd8q_12routing_test
FN:273,_RINvMs1_NtCs9JGNcCDhGtu_2db5retryNtB6_13RetryExecutor27execute_with_classificationNCNCNvMNtB8_10connectionNtB1p_12DatabasePool11with_config00NCNCB1k_00INtNtCsgkja2qPsmH1_9sqlx_core4pool4PoolNtNtCs9ZCbkk8MNCp_13sqlx_postgres8database8PostgresEECsgCvF62eLOYw_24task_11_acceptance_tests
FN:277,_RNCINvMs1_NtCs9JGNcCDhGtu_2db5retryNtB8_13RetryExecutor27execute_with_classificationNCNCNvMNtBa_10connectionNtB1r_12DatabasePool11with_config00NCNCB1m_00INtNtCsgkja2qPsmH1_9sqlx_core4pool4PoolNtNtCs9ZCbkk8MNCp_13sqlx_postgres8database8PostgresEE0CsgCvF62eLOYw_24task_11_acceptance_tests
FN:273,_RINvMs1_NtCs9JGNcCDhGtu_2db5retryNtB6_13RetryExecutor27execute_with_classificationNCNCNvMNtB8_10connectionNtB1p_12DatabasePool11with_config00NCNCB1k_00INtNtCsgkja2qPsmH1_9sqlx_core4pool4PoolNtNtCs9ZCbkk8MNCp_13sqlx_postgres8database8PostgresEECsbO9dfj64rIG_21transport_integration
FN:277,_RNCINvMs1_NtCs9JGNcCDhGtu_2db5retryNtB8_13RetryExecutor27execute_with_classificationNCNCNvMNtBa_10connectionNtB1r_12DatabasePool11with_config00NCNCB1m_00INtNtCsgkja2qPsmH1_9sqlx_core4pool4PoolNtNtCs9ZCbkk8MNCp_13sqlx_postgres8database8PostgresEE0CsbO9dfj64rIG_21transport_integration
FNDA:0,_RINvMs1_NtCs9JGNcCDhGtu_2db5retryNtB6_13RetryExecutor27execute_with_classificationpppEB8_
FNDA:0,_RINvMs1_NtCs9JGNcCDhGtu_2db5retryNtB6_13RetryExecutor7executeppppEB8_
FNDA:0,_RNCINvMs1_NtCs9JGNcCDhGtu_2db5retryNtB8_13RetryExecutor27execute_with_classificationpppE0Ba_
FNDA:0,_RNCINvMs1_NtCs9JGNcCDhGtu_2db5retryNtB8_13RetryExecutor7executeppppE0Ba_
FNDA:0,_RINvMs1_NtCs9JGNcCDhGtu_2db5retryNtB6_13RetryExecutor27execute_with_classificationNCNCNvMNtB8_10connectionNtB1p_12DatabasePool11with_config00NCNCB1k_00INtNtCsgkja2qPsmH1_9sqlx_core4pool4PoolNtNtCs9ZCbkk8MNCp_13sqlx_postgres8database8PostgresEECslijQrqBcbjW_16crate_management
FNDA:0,_RNCINvMs1_NtCs9JGNcCDhGtu_2db5retryNtB8_13RetryExecutor27execute_with_classificationNCNCNvMNtBa_10connectionNtB1r_12DatabasePool11with_config00NCNCB1m_00INtNtCsgkja2qPsmH1_9sqlx_core4pool4PoolNtNtCs9ZCbkk8MNCp_13sqlx_postgres8database8PostgresEE0CslijQrqBcbjW_16crate_management
FNDA:0,_RNvMs0_NtCs9JGNcCDhGtu_2db5retryNtB5_13DatabaseError12is_retryable
FNDA:0,_RNvMs0_NtCs9JGNcCDhGtu_2db5retryNtB5_13DatabaseError15from_sqlx_error
FNDA:6,_RNvMs1_NtCs9JGNcCDhGtu_2db5retryNtB5_13RetryExecutor11with_config
FNDA:0,_RNvMs1_NtCs9JGNcCDhGtu_2db5retryNtB5_13RetryExecutor3new
FNDA:0,_RNvMs_NtCs9JGNcCDhGtu_2db5retryNtB4_11RetryConfig10add_jitter
FNDA:0,_RNvMs_NtCs9JGNcCDhGtu_2db5retryNtB4_11RetryConfig15calculate_delay
FNDA:6,_RNvMs_NtCs9JGNcCDhGtu_2db5retryNtB4_11RetryConfig8from_env
FNDA:0,_RNvMs_NtCs9JGNcCDhGtu_2db5retryNtB4_11RetryConfig8validate
FNDA:6,_RNvXNtCs9JGNcCDhGtu_2db5retryNtB2_11RetryConfigNtNtCs66KPHxksi63_4core7default7Default7default
FNDA:0,_RNvXs2_NtCs9JGNcCDhGtu_2db5retryNtB5_13RetryExecutorNtNtCs66KPHxksi63_4core7default7Default7default
FNDA:0,_RNvXs3_NtCs9JGNcCDhGtu_2db5retryNtB5_13DatabaseErrorNtNtCs66KPHxksi63_4core3fmt7Display3fmt
FNDA:0,_RINvMs1_NtCs9JGNcCDhGtu_2db5retryNtB6_13RetryExecutor27execute_with_classificationNCNCNvMNtB8_10connectionNtB1p_12DatabasePool11with_config00NCNCB1k_00INtNtCsgkja2qPsmH1_9sqlx_core4pool4PoolNtNtCs9ZCbkk8MNCp_13sqlx_postgres8database8PostgresEECsfAMnWzr0b5l_18dynamic_tools_test
FNDA:0,_RNCINvMs1_NtCs9JGNcCDhGtu_2db5retryNtB8_13RetryExecutor27execute_with_classificationNCNCNvMNtBa_10connectionNtB1r_12DatabasePool11with_config00NCNCB1m_00INtNtCsgkja2qPsmH1_9sqlx_core4pool4PoolNtNtCs9ZCbkk8MNCp_13sqlx_postgres8database8PostgresEE0CsfAMnWzr0b5l_18dynamic_tools_test
FNDA:0,_RINvMs1_NtCs9JGNcCDhGtu_2db5retryNtB6_13RetryExecutor27execute_with_classificationNCNCNvMNtB8_10connectionNtB1p_12DatabasePool11with_config00NCNCB1k_00INtNtCsgkja2qPsmH1_9sqlx_core4pool4PoolNtNtCs9ZCbkk8MNCp_13sqlx_postgres8database8PostgresEECsiLqmQIFToUG_11http_server
FNDA:0,_RNCINvMs1_NtCs9JGNcCDhGtu_2db5retryNtB8_13RetryExecutor27execute_with_classificationNCNCNvMNtBa_10connectionNtB1r_12DatabasePool11with_config00NCNCB1m_00INtNtCsgkja2qPsmH1_9sqlx_core4pool4PoolNtNtCs9ZCbkk8MNCp_13sqlx_postgres8database8PostgresEE0CsiLqmQIFToUG_11http_server
FNDA:0,_RINvMs1_NtCs9JGNcCDhGtu_2db5retryNtB6_13RetryExecutor27execute_with_classificationNCNCNvMNtB8_10connectionNtB1p_12DatabasePool11with_config00NCNCB1k_00INtNtCsgkja2qPsmH1_9sqlx_core4pool4PoolNtNtCs9ZCbkk8MNCp_13sqlx_postgres8database8PostgresEECs3p1S6jYGLeO_14initialize_mvp
FNDA:0,_RNCINvMs1_NtCs9JGNcCDhGtu_2db5retryNtB8_13RetryExecutor27execute_with_classificationNCNCNvMNtBa_10connectionNtB1r_12DatabasePool11with_config00NCNCB1m_00INtNtCsgkja2qPsmH1_9sqlx_core4pool4PoolNtNtCs9ZCbkk8MNCp_13sqlx_postgres8database8PostgresEE0Cs3p1S6jYGLeO_14initialize_mvp
FNDA:0,_RINvMs1_NtCs9JGNcCDhGtu_2db5retryNtB6_13RetryExecutor27execute_with_classificationNCNCNvMNtB8_10connectionNtB1p_12DatabasePool11with_config00NCNCB1k_00INtNtCsgkja2qPsmH1_9sqlx_core4pool4PoolNtNtCs9ZCbkk8MNCp_13sqlx_postgres8database8PostgresEECsaT2uQ1v1wmQ_18json_only_mvp_test
FNDA:0,_RNCINvMs1_NtCs9JGNcCDhGtu_2db5retryNtB8_13RetryExecutor27execute_with_classificationNCNCNvMNtBa_10connectionNtB1r_12DatabasePool11with_config00NCNCB1m_00INtNtCsgkja2qPsmH1_9sqlx_core4pool4PoolNtNtCs9ZCbkk8MNCp_13sqlx_postgres8database8PostgresEE0CsaT2uQ1v1wmQ_18json_only_mvp_test
FNDA:0,_RINvMs1_NtCs9JGNcCDhGtu_2db5retryNtB6_13RetryExecutor27execute_with_classificationNCNCNvMNtB8_10connectionNtB1p_12DatabasePool11with_config00NCNCB1k_00INtNtCsgkja2qPsmH1_9sqlx_core4pool4PoolNtNtCs9ZCbkk8MNCp_13sqlx_postgres8database8PostgresEECscIjP2UPxd8q_12routing_test
FNDA:0,_RNCINvMs1_NtCs9JGNcCDhGtu_2db5retryNtB8_13RetryExecutor27execute_with_classificationNCNCNvMNtBa_10connectionNtB1r_12DatabasePool11with_config00NCNCB1m_00INtNtCsgkja2qPsmH1_9sqlx_core4pool4PoolNtNtCs9ZCbkk8MNCp_13sqlx_postgres8database8PostgresEE0CscIjP2UPxd8q_12routing_test
FNDA:6,_RINvMs1_NtCs9JGNcCDhGtu_2db5retryNtB6_13RetryExecutor27execute_with_classificationNCNCNvMNtB8_10connectionNtB1p_12DatabasePool11with_config00NCNCB1k_00INtNtCsgkja2qPsmH1_9sqlx_core4pool4PoolNtNtCs9ZCbkk8MNCp_13sqlx_postgres8database8PostgresEECsgCvF62eLOYw_24task_11_acceptance_tests
FNDA:6,_RNCINvMs1_NtCs9JGNcCDhGtu_2db5retryNtB8_13RetryExecutor27execute_with_classificationNCNCNvMNtBa_10connectionNtB1r_12DatabasePool11with_config00NCNCB1m_00INtNtCsgkja2qPsmH1_9sqlx_core4pool4PoolNtNtCs9ZCbkk8MNCp_13sqlx_postgres8database8PostgresEE0CsgCvF62eLOYw_24task_11_acceptance_tests
FNDA:0,_RINvMs1_NtCs9JGNcCDhGtu_2db5retryNtB6_13RetryExecutor27execute_with_classificationNCNCNvMNtB8_10connectionNtB1p_12DatabasePool11with_config00NCNCB1k_00INtNtCsgkja2qPsmH1_9sqlx_core4pool4PoolNtNtCs9ZCbkk8MNCp_13sqlx_postgres8database8PostgresEECsbO9dfj64rIG_21transport_integration
FNDA:0,_RNCINvMs1_NtCs9JGNcCDhGtu_2db5retryNtB8_13RetryExecutor27execute_with_classificationNCNCNvMNtBa_10connectionNtB1r_12DatabasePool11with_config00NCNCB1m_00INtNtCsgkja2qPsmH1_9sqlx_core4pool4PoolNtNtCs9ZCbkk8MNCp_13sqlx_postgres8database8PostgresEE0CsbO9dfj64rIG_21transport_integration
FNF:15
FNH:5
DA:32,6
DA:33,6
DA:34,6
DA:35,6
DA:36,6
DA:37,6
DA:38,6
DA:39,6
DA:40,6
DA:46,6
DA:47,6
DA:49,6
DA:50,0
DA:51,0
DA:52,0
DA:53,6
DA:55,6
DA:56,0
DA:57,0
DA:58,0
DA:59,6
DA:61,6
DA:62,0
DA:63,0
DA:64,0
DA:65,6
DA:67,6
DA:68,0
DA:69,0
DA:70,0
DA:71,6
DA:73,6
DA:74,0
DA:75,6
DA:77,6
DA:78,6
DA:85,0
DA:86,0
DA:87,0
DA:88,0
DA:90,0
DA:91,0
DA:92,0
DA:94,0
DA:95,0
DA:96,0
DA:97,0
DA:98,0
DA:100,0
DA:101,0
DA:102,0
DA:104,0
DA:105,0
DA:109,0
DA:110,0
DA:111,0
DA:112,0
DA:114,0
DA:115,0
DA:116,0
DA:118,0
DA:119,0
DA:121,0
DA:123,0
DA:126,0
DA:128,0
DA:129,0
DA:130,0
DA:131,0
DA:154,0
DA:155,0
DA:158,0
DA:161,0
DA:163,0
DA:167,0
DA:168,0
DA:170,0
DA:172,0
DA:173,0
DA:174,0
DA:175,0
DA:176,0
DA:177,0
DA:179,0
DA:180,0
DA:182,0
DA:184,0
DA:186,0
DA:197,0
DA:198,0
DA:199,0
DA:200,0
DA:201,0
DA:205,6
DA:206,6
DA:207,6
DA:216,0
DA:217,0
DA:218,0
DA:219,0
DA:220,0
DA:221,0
DA:222,0
DA:224,0
DA:225,0
DA:226,0
DA:227,0
DA:228,0
DA:231,0
DA:232,0
DA:233,0
DA:234,0
DA:235,0
DA:236,0
DA:238,0
DA:239,0
DA:241,0
DA:242,0
DA:243,0
DA:244,0
DA:247,0
DA:248,0
DA:250,0
DA:251,0
DA:252,0
DA:253,0
DA:258,0
DA:263,0
DA:264,0
DA:273,6
DA:274,6
DA:275,6
DA:276,6
DA:277,6
DA:278,6
DA:279,6
DA:281,6
DA:282,6
DA:283,0
DA:284,0
DA:285,0
DA:288,6
DA:289,6
DA:290,6
DA:291,0
DA:292,6
DA:293,6
DA:295,0
DA:296,0
DA:297,0
DA:300,0
DA:301,0
DA:302,0
DA:303,0
DA:304,0
DA:305,0
DA:306,0
DA:308,0
DA:309,0
DA:310,0
DA:311,0
DA:312,0
DA:314,0
DA:315,0
DA:317,0
DA:318,0
DA:319,0
DA:320,0
DA:322,0
DA:325,0
DA:330,0
DA:331,0
DA:332,0
DA:333,0
DA:334,0
DA:335,6
DA:339,0
DA:340,0
DA:341,0
DA:345,0
DA:346,0
DA:347,0
DA:348,0
DA:349,0
DA:350,0
DA:352,0
DA:353,0
DA:354,0
DA:356,0
BRF:0
BRH:0
LF:189
LH:41
end_of_record
SF:/workspace/agent-docs/embed/src/batch.rs
FN:53,_RNvMNtCskebhhnGw9Ks_5embed5batchNtB2_21EmbeddingBatchRequest13new_optimized
FN:72,_RNvMNtCskebhhnGw9Ks_5embed5batchNtB2_21EmbeddingBatchRequest13to_jsonl_line
FN:65,_RNvMNtCskebhhnGw9Ks_5embed5batchNtB2_21EmbeddingBatchRequest13with_metadata
FN:88,_RNvMNtCskebhhnGw9Ks_5embed5batchNtB2_21EmbeddingBatchRequest15estimate_tokens
FN:41,_RNvMNtCskebhhnGw9Ks_5embed5batchNtB2_21EmbeddingBatchRequest3new
FN:189,_RNvMs_NtCskebhhnGw9Ks_5embed5batchNtB4_14EmbeddingBatch11add_request
FN:215,_RNvMs_NtCskebhhnGw9Ks_5embed5batchNtB4_14EmbeddingBatch14mark_submitted
FN:242,_RNvMs_NtCskebhhnGw9Ks_5embed5batchNtB4_14EmbeddingBatch15process_results
FN:167,_RNvMs_NtCskebhhnGw9Ks_5embed5batchNtB4_14EmbeddingBatch19can_accept_requests
FN:309,_RNvMs_NtCskebhhnGw9Ks_5embed5batchNtB4_14EmbeddingBatch22generate_jsonl_content
FN:173,_RNvMs_NtCskebhhnGw9Ks_5embed5batchNtB4_14EmbeddingBatch23is_ready_for_processing
FN:222,_RNvMs_NtCskebhhnGw9Ks_5embed5batchNtB4_14EmbeddingBatch27update_from_openai_response
FN:151,_RNvMs_NtCskebhhnGw9Ks_5embed5batchNtB4_14EmbeddingBatch3new
FN:319,_RNvMs_NtCskebhhnGw9Ks_5embed5batchNtB4_14EmbeddingBatch9get_stats
FN:334,_RNCNCNvMs_NtCskebhhnGw9Ks_5embed5batchNtB8_14EmbeddingBatch9get_statss1_00Ba_
FN:289,_RNCNvMs_NtCskebhhnGw9Ks_5embed5batchNtB6_14EmbeddingBatch15process_results0B8_
FN:312,_RNCNvMs_NtCskebhhnGw9Ks_5embed5batchNtB6_14EmbeddingBatch22generate_jsonl_content0B8_
FN:321,_RNCNvMs_NtCskebhhnGw9Ks_5embed5batchNtB6_14EmbeddingBatch9get_stats0B8_
FN:332,_RNCNvMs_NtCskebhhnGw9Ks_5embed5batchNtB6_14EmbeddingBatch9get_statss1_0B8_
FN:322,_RNCNvMs_NtCskebhhnGw9Ks_5embed5batchNtB6_14EmbeddingBatch9get_statss_0B8_
FNDA:0,_RNvMNtCskebhhnGw9Ks_5embed5batchNtB2_21EmbeddingBatchRequest13new_optimized
FNDA:0,_RNvMNtCskebhhnGw9Ks_5embed5batchNtB2_21EmbeddingBatchRequest13to_jsonl_line
FNDA:0,_RNvMNtCskebhhnGw9Ks_5embed5batchNtB2_21EmbeddingBatchRequest13with_metadata
FNDA:0,_RNvMNtCskebhhnGw9Ks_5embed5batchNtB2_21EmbeddingBatchRequest15estimate_tokens
FNDA:0,_RNvMNtCskebhhnGw9Ks_5embed5batchNtB2_21EmbeddingBatchRequest3new
FNDA:0,_RNvMs_NtCskebhhnGw9Ks_5embed5batchNtB4_14EmbeddingBatch11add_request
FNDA:0,_RNvMs_NtCskebhhnGw9Ks_5embed5batchNtB4_14EmbeddingBatch14mark_submitted
FNDA:0,_RNvMs_NtCskebhhnGw9Ks_5embed5batchNtB4_14EmbeddingBatch15process_results
FNDA:0,_RNvMs_NtCskebhhnGw9Ks_5embed5batchNtB4_14EmbeddingBatch19can_accept_requests
FNDA:0,_RNvMs_NtCskebhhnGw9Ks_5embed5batchNtB4_14EmbeddingBatch22generate_jsonl_content
FNDA:0,_RNvMs_NtCskebhhnGw9Ks_5embed5batchNtB4_14EmbeddingBatch23is_ready_for_processing
FNDA:0,_RNvMs_NtCskebhhnGw9Ks_5embed5batchNtB4_14EmbeddingBatch27update_from_openai_response
FNDA:0,_RNvMs_NtCskebhhnGw9Ks_5embed5batchNtB4_14EmbeddingBatch3new
FNDA:0,_RNvMs_NtCskebhhnGw9Ks_5embed5batchNtB4_14EmbeddingBatch9get_stats
FNDA:0,_RNCNCNvMs_NtCskebhhnGw9Ks_5embed5batchNtB8_14EmbeddingBatch9get_statss1_00Ba_
FNDA:0,_RNCNvMs_NtCskebhhnGw9Ks_5embed5batchNtB6_14EmbeddingBatch15process_results0B8_
FNDA:0,_RNCNvMs_NtCskebhhnGw9Ks_5embed5batchNtB6_14EmbeddingBatch22generate_jsonl_content0B8_
FNDA:0,_RNCNvMs_NtCskebhhnGw9Ks_5embed5batchNtB6_14EmbeddingBatch9get_stats0B8_
FNDA:0,_RNCNvMs_NtCskebhhnGw9Ks_5embed5batchNtB6_14EmbeddingBatch9get_statss1_0B8_
FNDA:0,_RNCNvMs_NtCskebhhnGw9Ks_5embed5batchNtB6_14EmbeddingBatch9get_statss_0B8_
FNF:20
FNH:0
DA:41,0
DA:42,0
DA:43,0
DA:44,0
DA:45,0
DA:46,0
DA:47,0
DA:48,0
DA:49,0
DA:53,0
DA:54,0
DA:55,0
DA:56,0
DA:57,0
DA:58,0
DA:59,0
DA:60,0
DA:61,0
DA:65,0
DA:66,0
DA:67,0
DA:68,0
DA:72,0
DA:73,0
DA:74,0
DA:75,0
DA:76,0
DA:77,0
DA:78,0
DA:79,0
DA:80,0
DA:81,0
DA:82,0
DA:83,0
DA:84,0
DA:88,0
DA:89,0
DA:90,0
DA:151,0
DA:152,0
DA:153,0
DA:154,0
DA:155,0
DA:156,0
DA:157,0
DA:158,0
DA:159,0
DA:160,0
DA:161,0
DA:162,0
DA:163,0
DA:167,0
DA:168,0
DA:169,0
DA:173,0
DA:174,0
DA:176,0
DA:177,0
DA:179,0
DA:180,0
DA:182,0
DA:189,0
DA:190,0
DA:191,0
DA:192,0
DA:193,0
DA:194,0
DA:195,0
DA:196,0
DA:197,0
DA:199,0
DA:202,0
DA:203,0
DA:204,0
DA:205,0
DA:207,0
DA:209,0
DA:211,0
DA:212,0
DA:215,0
DA:216,0
DA:217,0
DA:218,0
DA:219,0
DA:222,0
DA:223,0
DA:225,0
DA:227,0
DA:228,0
DA:229,0
DA:232,0
DA:233,0
DA:234,0
DA:235,0
DA:242,0
DA:243,0
DA:244,0
DA:246,0
DA:247,0
DA:249,0
DA:250,0
DA:252,0
DA:253,0
DA:254,0
DA:255,0
DA:256,0
DA:257,0
DA:258,0
DA:262,0
DA:263,0
DA:264,0
DA:265,0
DA:266,0
DA:267,0
DA:268,0
DA:269,0
DA:270,0
DA:271,0
DA:272,0
DA:273,0
DA:274,0
DA:275,0
DA:276,0
DA:277,0
DA:278,0
DA:279,0
DA:285,0
DA:286,0
DA:287,0
DA:288,0
DA:289,0
DA:290,0
DA:292,0
DA:294,0
DA:295,0
DA:296,0
DA:299,0
DA:300,0
DA:301,0
DA:304,0
DA:305,0
DA:309,0
DA:310,0
DA:311,0
DA:312,0
DA:313,0
DA:314,0
DA:315,0
DA:319,0
DA:320,0
DA:321,0
DA:322,0
DA:323,0
DA:326,0
DA:327,0
DA:328,0
DA:329,0
DA:330,0
DA:331,0
DA:332,0
DA:333,0
DA:334,0
DA:335,0
DA:337,0
BRF:0
BRH:0
LF:170
LH:0
end_of_record
SF:/workspace/agent-docs/embed/src/client.rs
FN:385,_RINvMs4_NtCskebhhnGw9Ks_5embed6clientNtB6_21OpenAIEmbeddingClient18execute_with_retryNCNCNvXsf_B6_Bz_NtB6_15EmbeddingClient12create_batch00NCNCB1n_00NtNtB8_6models13BatchResponseEB8_
FN:385,_RINvMs4_NtCskebhhnGw9Ks_5embed6clientNtB6_21OpenAIEmbeddingClient18execute_with_retryNCNCNvXsf_B6_Bz_NtB6_15EmbeddingClient17upload_batch_file00NCNCB1n_00NtNtB8_6models18FileUploadResponseEB8_
FN:389,_RNCINvMs4_NtCskebhhnGw9Ks_5embed6clientNtB8_21OpenAIEmbeddingClient18execute_with_retryNCNCNvXsf_B8_BB_NtB8_15EmbeddingClient12create_batch00NCNCB1p_00NtNtBa_6models13BatchResponseE0Ba_
FN:389,_RNCINvMs4_NtCskebhhnGw9Ks_5embed6clientNtB8_21OpenAIEmbeddingClient18execute_with_retryNCNCNvXsf_B8_BB_NtB8_15EmbeddingClient17upload_batch_file00NCNCB1p_00NtNtBa_6models18FileUploadResponseE0Ba_
FN:454,_RNCNCINvMs4_NtCskebhhnGw9Ks_5embed6clientNtBa_21OpenAIEmbeddingClient18execute_with_retryNCNCNvXsf_Ba_BD_NtBa_15EmbeddingClient12create_batch00NCNCB1r_00NtNtBc_6models13BatchResponseE00Bc_
FN:454,_RNCNCINvMs4_NtCskebhhnGw9Ks_5embed6clientNtBa_21OpenAIEmbeddingClient18execute_with_retryNCNCNvXsf_Ba_BD_NtBa_15EmbeddingClient17upload_batch_file00NCNCB1r_00NtNtBc_6models18FileUploadResponseE00Bc_
FN:610,_RNCNCNCNCNvXsf_NtCskebhhnGw9Ks_5embed6clientNtBd_21OpenAIEmbeddingClientNtBd_15EmbeddingClient12create_batch0000Bf_
FN:571,_RNCNCNCNCNvXsf_NtCskebhhnGw9Ks_5embed6clientNtBd_21OpenAIEmbeddingClientNtBd_15EmbeddingClient17upload_batch_file0000Bf_
FN:589,_RNCNCNCNvXsf_NtCskebhhnGw9Ks_5embed6clientNtBb_21OpenAIEmbeddingClientNtBb_15EmbeddingClient12create_batch000Bd_
FN:551,_RNCNCNCNvXsf_NtCskebhhnGw9Ks_5embed6clientNtBb_21OpenAIEmbeddingClientNtBb_15EmbeddingClient17upload_batch_file000Bd_
FN:523,_RNCNCNCNvXsf_NtCskebhhnGw9Ks_5embed6clientNtBb_21OpenAIEmbeddingClientNtBb_15EmbeddingClient18generate_embedding0s4_00Bd_
FN:524,_RNCNCNCNvXsf_NtCskebhhnGw9Ks_5embed6clientNtBb_21OpenAIEmbeddingClientNtBb_15EmbeddingClient18generate_embedding0s4_0s_0Bd_
FN:703,_RNCNCNvXsf_NtCskebhhnGw9Ks_5embed6clientNtB9_21OpenAIEmbeddingClientNtB9_15EmbeddingClient12cancel_batch00Bb_
FN:618,_RNCNCNvXsf_NtCskebhhnGw9Ks_5embed6clientNtB9_21OpenAIEmbeddingClientNtB9_15EmbeddingClient12create_batch00Bb_
FN:579,_RNCNCNvXsf_NtCskebhhnGw9Ks_5embed6clientNtB9_21OpenAIEmbeddingClientNtB9_15EmbeddingClient17upload_batch_file00Bb_
FN:503,_RNCNCNvXsf_NtCskebhhnGw9Ks_5embed6clientNtB9_21OpenAIEmbeddingClientNtB9_15EmbeddingClient18generate_embedding00Bb_
FN:513,_RNCNCNvXsf_NtCskebhhnGw9Ks_5embed6clientNtB9_21OpenAIEmbeddingClientNtB9_15EmbeddingClient18generate_embedding0s0_0Bb_
FN:514,_RNCNCNvXsf_NtCskebhhnGw9Ks_5embed6clientNtB9_21OpenAIEmbeddingClientNtB9_15EmbeddingClient18generate_embedding0s1_0Bb_
FN:515,_RNCNCNvXsf_NtCskebhhnGw9Ks_5embed6clientNtB9_21OpenAIEmbeddingClientNtB9_15EmbeddingClient18generate_embedding0s2_0Bb_
FN:516,_RNCNCNvXsf_NtCskebhhnGw9Ks_5embed6clientNtB9_21OpenAIEmbeddingClientNtB9_15EmbeddingClient18generate_embedding0s3_0Bb_
FN:521,_RNCNCNvXsf_NtCskebhhnGw9Ks_5embed6clientNtB9_21OpenAIEmbeddingClientNtB9_15EmbeddingClient18generate_embedding0s4_0Bb_
FN:512,_RNCNCNvXsf_NtCskebhhnGw9Ks_5embed6clientNtB9_21OpenAIEmbeddingClientNtB9_15EmbeddingClient18generate_embedding0s_0Bb_
FN:662,_RNCNCNvXsf_NtCskebhhnGw9Ks_5embed6clientNtB9_21OpenAIEmbeddingClientNtB9_15EmbeddingClient22download_batch_results00Bb_
FN:637,_RNCNCNvXsf_NtCskebhhnGw9Ks_5embed6clientNtB9_21OpenAIEmbeddingClientNtB9_15EmbeddingClient9get_batch00Bb_
FN:273,_RNCNvMs2_NtCskebhhnGw9Ks_5embed6clientNtB7_11RateLimiter17wait_for_capacity0B9_
FN:371,_RNCNvMs4_NtCskebhhnGw9Ks_5embed6clientNtB7_21OpenAIEmbeddingClient3new0B9_
FN:47,_RNvMNtCskebhhnGw9Ks_5embed6clientNtB2_11RetryPolicy15calculate_delay
FN:67,_RNvMNtCskebhhnGw9Ks_5embed6clientNtB2_11RetryPolicy18is_retryable_error
FN:35,_RNvMNtCskebhhnGw9Ks_5embed6clientNtB2_11RetryPolicy3new
FN:130,_RNvMs0_NtCskebhhnGw9Ks_5embed6clientNtB5_14CircuitBreaker11can_proceed
FN:158,_RNvMs0_NtCskebhhnGw9Ks_5embed6clientNtB5_14CircuitBreaker14record_failure
FN:151,_RNvMs0_NtCskebhhnGw9Ks_5embed6clientNtB5_14CircuitBreaker14record_success
FN:118,_RNvMs0_NtCskebhhnGw9Ks_5embed6clientNtB5_14CircuitBreaker3new
FN:215,_RNvMs1_NtCskebhhnGw9Ks_5embed6clientNtB5_11TokenBucket11try_consume
FN:226,_RNvMs1_NtCskebhhnGw9Ks_5embed6clientNtB5_11TokenBucket20time_to_availability
FN:195,_RNvMs1_NtCskebhhnGw9Ks_5embed6clientNtB5_11TokenBucket3new
FN:205,_RNvMs1_NtCskebhhnGw9Ks_5embed6clientNtB5_11TokenBucket6refill
FN:311,_RNvMs2_NtCskebhhnGw9Ks_5embed6clientNtB5_11RateLimiter15estimate_tokens
FN:273,_RNvMs2_NtCskebhhnGw9Ks_5embed6clientNtB5_11RateLimiter17wait_for_capacity
FN:250,_RNvMs2_NtCskebhhnGw9Ks_5embed6clientNtB5_11RateLimiter3new
FN:370,_RNvMs4_NtCskebhhnGw9Ks_5embed6clientNtB5_21OpenAIEmbeddingClient3new
FN:324,_RNvXs3_NtCskebhhnGw9Ks_5embed6clientNtB5_11RateLimiterNtNtCs66KPHxksi63_4core7default7Default7default
FN:84,_RNvXs_NtCskebhhnGw9Ks_5embed6clientNtB4_11RetryPolicyNtNtCs66KPHxksi63_4core7default7Default7default
FN:686,_RNvXsf_NtCskebhhnGw9Ks_5embed6clientNtB5_21OpenAIEmbeddingClientNtB5_15EmbeddingClient12cancel_batch
FN:584,_RNvXsf_NtCskebhhnGw9Ks_5embed6clientNtB5_21OpenAIEmbeddingClientNtB5_15EmbeddingClient12create_batch
FN:541,_RNvXsf_NtCskebhhnGw9Ks_5embed6clientNtB5_21OpenAIEmbeddingClientNtB5_15EmbeddingClient17upload_batch_file
FN:472,_RNvXsf_NtCskebhhnGw9Ks_5embed6clientNtB5_21OpenAIEmbeddingClientNtB5_15EmbeddingClient18generate_embedding
FN:648,_RNvXsf_NtCskebhhnGw9Ks_5embed6clientNtB5_21OpenAIEmbeddingClientNtB5_15EmbeddingClient22download_batch_results
FN:461,_RNvXsf_NtCskebhhnGw9Ks_5embed6clientNtB5_21OpenAIEmbeddingClientNtB5_15EmbeddingClient5embed
FN:623,_RNvXsf_NtCskebhhnGw9Ks_5embed6clientNtB5_21OpenAIEmbeddingClientNtB5_15EmbeddingClient9get_batch
FNDA:0,_RINvMs4_NtCskebhhnGw9Ks_5embed6clientNtB6_21OpenAIEmbeddingClient18execute_with_retryNCNCNvXsf_B6_Bz_NtB6_15EmbeddingClient12create_batch00NCNCB1n_00NtNtB8_6models13BatchResponseEB8_
FNDA:0,_RINvMs4_NtCskebhhnGw9Ks_5embed6clientNtB6_21OpenAIEmbeddingClient18execute_with_retryNCNCNvXsf_B6_Bz_NtB6_15EmbeddingClient17upload_batch_file00NCNCB1n_00NtNtB8_6models18FileUploadResponseEB8_
FNDA:0,_RNCINvMs4_NtCskebhhnGw9Ks_5embed6clientNtB8_21OpenAIEmbeddingClient18execute_with_retryNCNCNvXsf_B8_BB_NtB8_15EmbeddingClient12create_batch00NCNCB1p_00NtNtBa_6models13BatchResponseE0Ba_
FNDA:0,_RNCINvMs4_NtCskebhhnGw9Ks_5embed6clientNtB8_21OpenAIEmbeddingClient18execute_with_retryNCNCNvXsf_B8_BB_NtB8_15EmbeddingClient17upload_batch_file00NCNCB1p_00NtNtBa_6models18FileUploadResponseE0Ba_
FNDA:0,_RNCNCINvMs4_NtCskebhhnGw9Ks_5embed6clientNtBa_21OpenAIEmbeddingClient18execute_with_retryNCNCNvXsf_Ba_BD_NtBa_15EmbeddingClient12create_batch00NCNCB1r_00NtNtBc_6models13BatchResponseE00Bc_
FNDA:0,_RNCNCINvMs4_NtCskebhhnGw9Ks_5embed6clientNtBa_21OpenAIEmbeddingClient18execute_with_retryNCNCNvXsf_Ba_BD_NtBa_15EmbeddingClient17upload_batch_file00NCNCB1r_00NtNtBc_6models18FileUploadResponseE00Bc_
FNDA:0,_RNCNCNCNCNvXsf_NtCskebhhnGw9Ks_5embed6clientNtBd_21OpenAIEmbeddingClientNtBd_15EmbeddingClient12create_batch0000Bf_
FNDA:0,_RNCNCNCNCNvXsf_NtCskebhhnGw9Ks_5embed6clientNtBd_21OpenAIEmbeddingClientNtBd_15EmbeddingClient17upload_batch_file0000Bf_
FNDA:0,_RNCNCNCNvXsf_NtCskebhhnGw9Ks_5embed6clientNtBb_21OpenAIEmbeddingClientNtBb_15EmbeddingClient12create_batch000Bd_
FNDA:0,_RNCNCNCNvXsf_NtCskebhhnGw9Ks_5embed6clientNtBb_21OpenAIEmbeddingClientNtBb_15EmbeddingClient17upload_batch_file000Bd_
FNDA:0,_RNCNCNCNvXsf_NtCskebhhnGw9Ks_5embed6clientNtBb_21OpenAIEmbeddingClientNtBb_15EmbeddingClient18generate_embedding0s4_00Bd_
FNDA:0,_RNCNCNCNvXsf_NtCskebhhnGw9Ks_5embed6clientNtBb_21OpenAIEmbeddingClientNtBb_15EmbeddingClient18generate_embedding0s4_0s_0Bd_
FNDA:0,_RNCNCNvXsf_NtCskebhhnGw9Ks_5embed6clientNtB9_21OpenAIEmbeddingClientNtB9_15EmbeddingClient12cancel_batch00Bb_
FNDA:0,_RNCNCNvXsf_NtCskebhhnGw9Ks_5embed6clientNtB9_21OpenAIEmbeddingClientNtB9_15EmbeddingClient12create_batch00Bb_
FNDA:0,_RNCNCNvXsf_NtCskebhhnGw9Ks_5embed6clientNtB9_21OpenAIEmbeddingClientNtB9_15EmbeddingClient17upload_batch_file00Bb_
FNDA:0,_RNCNCNvXsf_NtCskebhhnGw9Ks_5embed6clientNtB9_21OpenAIEmbeddingClientNtB9_15EmbeddingClient18generate_embedding00Bb_
FNDA:0,_RNCNCNvXsf_NtCskebhhnGw9Ks_5embed6clientNtB9_21OpenAIEmbeddingClientNtB9_15EmbeddingClient18generate_embedding0s0_0Bb_
FNDA:0,_RNCNCNvXsf_NtCskebhhnGw9Ks_5embed6clientNtB9_21OpenAIEmbeddingClientNtB9_15EmbeddingClient18generate_embedding0s1_0Bb_
FNDA:0,_RNCNCNvXsf_NtCskebhhnGw9Ks_5embed6clientNtB9_21OpenAIEmbeddingClientNtB9_15EmbeddingClient18generate_embedding0s2_0Bb_
FNDA:0,_RNCNCNvXsf_NtCskebhhnGw9Ks_5embed6clientNtB9_21OpenAIEmbeddingClientNtB9_15EmbeddingClient18generate_embedding0s3_0Bb_
FNDA:0,_RNCNCNvXsf_NtCskebhhnGw9Ks_5embed6clientNtB9_21OpenAIEmbeddingClientNtB9_15EmbeddingClient18generate_embedding0s4_0Bb_
FNDA:0,_RNCNCNvXsf_NtCskebhhnGw9Ks_5embed6clientNtB9_21OpenAIEmbeddingClientNtB9_15EmbeddingClient18generate_embedding0s_0Bb_
FNDA:0,_RNCNCNvXsf_NtCskebhhnGw9Ks_5embed6clientNtB9_21OpenAIEmbeddingClientNtB9_15EmbeddingClient22download_batch_results00Bb_
FNDA:0,_RNCNCNvXsf_NtCskebhhnGw9Ks_5embed6clientNtB9_21OpenAIEmbeddingClientNtB9_15EmbeddingClient9get_batch00Bb_
FNDA:0,_RNCNvMs2_NtCskebhhnGw9Ks_5embed6clientNtB7_11RateLimiter17wait_for_capacity0B9_
FNDA:0,_RNCNvMs4_NtCskebhhnGw9Ks_5embed6clientNtB7_21OpenAIEmbeddingClient3new0B9_
FNDA:0,_RNvMNtCskebhhnGw9Ks_5embed6clientNtB2_11RetryPolicy15calculate_delay
FNDA:0,_RNvMNtCskebhhnGw9Ks_5embed6clientNtB2_11RetryPolicy18is_retryable_error
FNDA:1,_RNvMNtCskebhhnGw9Ks_5embed6clientNtB2_11RetryPolicy3new
FNDA:0,_RNvMs0_NtCskebhhnGw9Ks_5embed6clientNtB5_14CircuitBreaker11can_proceed
FNDA:0,_RNvMs0_NtCskebhhnGw9Ks_5embed6clientNtB5_14CircuitBreaker14record_failure
FNDA:0,_RNvMs0_NtCskebhhnGw9Ks_5embed6clientNtB5_14CircuitBreaker14record_success
FNDA:1,_RNvMs0_NtCskebhhnGw9Ks_5embed6clientNtB5_14CircuitBreaker3new
FNDA:0,_RNvMs1_NtCskebhhnGw9Ks_5embed6clientNtB5_11TokenBucket11try_consume
FNDA:0,_RNvMs1_NtCskebhhnGw9Ks_5embed6clientNtB5_11TokenBucket20time_to_availability
FNDA:2,_RNvMs1_NtCskebhhnGw9Ks_5embed6clientNtB5_11TokenBucket3new
FNDA:0,_RNvMs1_NtCskebhhnGw9Ks_5embed6clientNtB5_11TokenBucket6refill
FNDA:0,_RNvMs2_NtCskebhhnGw9Ks_5embed6clientNtB5_11RateLimiter15estimate_tokens
FNDA:0,_RNvMs2_NtCskebhhnGw9Ks_5embed6clientNtB5_11RateLimiter17wait_for_capacity
FNDA:1,_RNvMs2_NtCskebhhnGw9Ks_5embed6clientNtB5_11RateLimiter3new
FNDA:1,_RNvMs4_NtCskebhhnGw9Ks_5embed6clientNtB5_21OpenAIEmbeddingClient3new
FNDA:0,_RNvXs3_NtCskebhhnGw9Ks_5embed6clientNtB5_11RateLimiterNtNtCs66KPHxksi63_4core7default7Default7default
FNDA:0,_RNvXs_NtCskebhhnGw9Ks_5embed6clientNtB4_11RetryPolicyNtNtCs66KPHxksi63_4core7default7Default7default
FNDA:0,_RNvXsf_NtCskebhhnGw9Ks_5embed6clientNtB5_21OpenAIEmbeddingClientNtB5_15EmbeddingClient12cancel_batch
FNDA:0,_RNvXsf_NtCskebhhnGw9Ks_5embed6clientNtB5_21OpenAIEmbeddingClientNtB5_15EmbeddingClient12create_batch
FNDA:0,_RNvXsf_NtCskebhhnGw9Ks_5embed6clientNtB5_21OpenAIEmbeddingClientNtB5_15EmbeddingClient17upload_batch_file
FNDA:0,_RNvXsf_NtCskebhhnGw9Ks_5embed6clientNtB5_21OpenAIEmbeddingClientNtB5_15EmbeddingClient18generate_embedding
FNDA:0,_RNvXsf_NtCskebhhnGw9Ks_5embed6clientNtB5_21OpenAIEmbeddingClientNtB5_15EmbeddingClient22download_batch_results
FNDA:0,_RNvXsf_NtCskebhhnGw9Ks_5embed6clientNtB5_21OpenAIEmbeddingClientNtB5_15EmbeddingClient5embed
FNDA:0,_RNvXsf_NtCskebhhnGw9Ks_5embed6clientNtB5_21OpenAIEmbeddingClientNtB5_15EmbeddingClient9get_batch
FNF:47
FNH:5
DA:35,1
DA:36,1
DA:37,1
DA:38,1
DA:39,1
DA:40,1
DA:41,1
DA:42,1
DA:43,1
DA:47,0
DA:48,0
DA:49,0
DA:50,0
DA:53,0
DA:54,0
DA:55,0
DA:58,0
DA:59,0
DA:60,0
DA:62,0
DA:63,0
DA:67,0
DA:68,0
DA:71,0
DA:72,0
DA:73,0
DA:74,0
DA:75,0
DA:76,0
DA:77,0
DA:78,0
DA:79,0
DA:80,0
DA:84,0
DA:85,0
DA:86,0
DA:118,1
DA:119,1
DA:120,1
DA:121,1
DA:122,1
DA:123,1
DA:124,1
DA:125,1
DA:126,1
DA:130,0
DA:131,0
DA:132,0
DA:134,0
DA:135,0
DA:136,0
DA:137,0
DA:139,0
DA:143,0
DA:144,0
DA:148,0
DA:151,0
DA:152,0
DA:153,0
DA:154,0
DA:155,0
DA:158,0
DA:159,0
DA:160,0
DA:162,0
DA:163,0
DA:164,0
DA:165,0
DA:168,0
DA:169,0
DA:195,2
DA:196,2
DA:197,2
DA:198,2
DA:199,2
DA:200,2
DA:201,2
DA:202,2
DA:205,0
DA:206,0
DA:207,0
DA:208,0
DA:210,0
DA:211,0
DA:212,0
DA:215,0
DA:216,0
DA:217,0
DA:218,0
DA:219,0
DA:221,0
DA:223,0
DA:226,0
DA:227,0
DA:228,0
DA:229,0
DA:231,0
DA:232,0
DA:233,0
DA:235,0
DA:250,1
DA:252,1
DA:254,1
DA:256,1
DA:257,1
DA:258,1
DA:259,1
DA:260,1
DA:261,1
DA:262,1
DA:263,1
DA:264,1
DA:265,1
DA:266,1
DA:273,0
DA:274,0
DA:277,0
DA:278,0
DA:281,0
DA:282,0
DA:283,0
DA:286,0
DA:287,0
DA:290,0
DA:291,0
DA:292,0
DA:294,0
DA:295,0
DA:297,0
DA:298,0
DA:299,0
DA:302,0
DA:306,0
DA:307,0
DA:311,0
DA:318,0
DA:319,0
DA:320,0
DA:324,0
DA:325,0
DA:326,0
DA:370,1
DA:371,1
DA:373,1
DA:375,1
DA:376,1
DA:377,1
DA:378,1
DA:379,1
DA:380,1
DA:381,1
DA:382,1
DA:385,0
DA:386,0
DA:387,0
DA:388,0
DA:389,0
DA:392,0
DA:393,0
DA:394,0
DA:395,0
DA:396,0
DA:397,0
DA:400,0
DA:402,0
DA:403,0
DA:404,0
DA:407,0
DA:408,0
DA:410,0
DA:412,0
DA:413,0
DA:416,0
DA:417,0
DA:418,0
DA:421,0
DA:422,0
DA:423,0
DA:424,0
DA:425,0
DA:426,0
DA:429,0
DA:430,0
DA:431,0
DA:432,0
DA:433,0
DA:435,0
DA:436,0
DA:441,0
DA:442,0
DA:443,0
DA:450,0
DA:451,0
DA:454,0
DA:455,0
DA:461,0
DA:469,0
DA:472,0
DA:503,0
DA:512,0
DA:513,0
DA:514,0
DA:515,0
DA:516,0
DA:521,0
DA:522,0
DA:523,0
DA:524,0
DA:525,0
DA:538,0
DA:541,0
DA:551,0
DA:552,0
DA:554,0
DA:555,0
DA:556,0
DA:559,0
DA:560,0
DA:561,0
DA:562,0
DA:563,0
DA:564,0
DA:565,0
DA:567,0
DA:568,0
DA:569,0
DA:570,0
DA:571,0
DA:572,0
DA:573,0
DA:574,0
DA:576,0
DA:577,0
DA:578,0
DA:579,0
DA:581,0
DA:584,0
DA:589,0
DA:590,0
DA:591,0
DA:592,0
DA:593,0
DA:594,0
DA:595,0
DA:597,0
DA:598,0
DA:599,0
DA:600,0
DA:601,0
DA:602,0
DA:603,0
DA:604,0
DA:606,0
DA:607,0
DA:608,0
DA:609,0
DA:610,0
DA:611,0
DA:612,0
DA:613,0
DA:615,0
DA:616,0
DA:617,0
DA:618,0
DA:620,0
DA:623,0
DA:637,0
DA:645,0
DA:648,0
DA:662,0
DA:683,0
DA:686,0
DA:703,0
DA:711,0
BRF:0
BRH:0
LF:283
LH:51
end_of_record
SF:/workspace/agent-docs/embed/src/models.rs
FN:222,_RNvMNtCskebhhnGw9Ks_5embed6modelsNtB2_8CostInfo28savings_percentage_formatted
FN:202,_RNvMNtCskebhhnGw9Ks_5embed6modelsNtB2_8CostInfo9calculate
FNDA:0,_RNvMNtCskebhhnGw9Ks_5embed6modelsNtB2_8CostInfo28savings_percentage_formatted
FNDA:0,_RNvMNtCskebhhnGw9Ks_5embed6modelsNtB2_8CostInfo9calculate
FNF:2
FNH:0
DA:202,0
DA:203,0
DA:204,0
DA:205,0
DA:206,0
DA:207,0
DA:209,0
DA:210,0
DA:211,0
DA:212,0
DA:213,0
DA:214,0
DA:215,0
DA:216,0
DA:217,0
DA:218,0
DA:222,0
DA:223,0
DA:224,0
BRF:0
BRH:0
LF:19
LH:0
end_of_record
SF:/workspace/agent-docs/loader/src/loaders.rs
FN:60,_RNCNCNvMNtCs42xciLWDxiV_6loader7loadersNtB6_11RateLimiter3get00Csi7GHPcvMyXT_3mcp
FN:193,_RNCNCNvMs1_NtCs42xciLWDxiV_6loader7loadersNtB9_10RustLoader20fetch_crate_metadata00Csi7GHPcvMyXT_3mcp
FN:202,_RNCNCNvMs1_NtCs42xciLWDxiV_6loader7loadersNtB9_10RustLoader20fetch_crate_metadata0s0_0Csi7GHPcvMyXT_3mcp
FN:207,_RNCNCNvMs1_NtCs42xciLWDxiV_6loader7loadersNtB9_10RustLoader20fetch_crate_metadata0s1_0Csi7GHPcvMyXT_3mcp
FN:212,_RNCNCNvMs1_NtCs42xciLWDxiV_6loader7loadersNtB9_10RustLoader20fetch_crate_metadata0s2_0Csi7GHPcvMyXT_3mcp
FN:216,_RNCNCNvMs1_NtCs42xciLWDxiV_6loader7loadersNtB9_10RustLoader20fetch_crate_metadata0s3_0Csi7GHPcvMyXT_3mcp
FN:197,_RNCNCNvMs1_NtCs42xciLWDxiV_6loader7loadersNtB9_10RustLoader20fetch_crate_metadata0s_0Csi7GHPcvMyXT_3mcp
FN:40,_RNCNvMNtCs42xciLWDxiV_6loader7loadersNtB4_11RateLimiter3get0Csi7GHPcvMyXT_3mcp
FN:132,_RNCNvMs1_NtCs42xciLWDxiV_6loader7loadersNtB7_10RustLoader15load_crate_docs0Csi7GHPcvMyXT_3mcp
FN:187,_RNCNvMs1_NtCs42xciLWDxiV_6loader7loadersNtB7_10RustLoader20fetch_crate_metadata0Csi7GHPcvMyXT_3mcp
FN:40,_RNvMNtCs42xciLWDxiV_6loader7loadersNtB2_11RateLimiter3get
FN:27,_RNvMNtCs42xciLWDxiV_6loader7loadersNtB2_11RateLimiter3new
FN:128,_RNvMs1_NtCs42xciLWDxiV_6loader7loadersNtB5_10RustLoader15load_crate_docs
FN:256,_RNvMs1_NtCs42xciLWDxiV_6loader7loadersNtB5_10RustLoader17fetch_single_page
FN:369,_RNvMs1_NtCs42xciLWDxiV_6loader7loadersNtB5_10RustLoader18fetch_docs_rs_item
FN:392,_RNvMs1_NtCs42xciLWDxiV_6loader7loadersNtB5_10RustLoader19extract_module_path
FN:348,_RNvMs1_NtCs42xciLWDxiV_6loader7loadersNtB5_10RustLoader19resolve_docs_rs_url
FN:187,_RNvMs1_NtCs42xciLWDxiV_6loader7loadersNtB5_10RustLoader20fetch_crate_metadata
FN:159,_RNvMs1_NtCs42xciLWDxiV_6loader7loadersNtB5_10RustLoader25create_stub_documentation
FN:375,_RNvMs1_NtCs42xciLWDxiV_6loader7loadersNtB5_10RustLoader28determine_item_type_from_url
FN:309,_RNvMs1_NtCs42xciLWDxiV_6loader7loadersNtB5_10RustLoader28discover_documentation_pages
FN:115,_RNvMs1_NtCs42xciLWDxiV_6loader7loadersNtB5_10RustLoader3new
FN:106,_RNvXs0_NtCs42xciLWDxiV_6loader7loadersNtB5_10RustLoaderNtNtCs66KPHxksi63_4core7default7Default7default
FN:76,_RNvXs_NtCs42xciLWDxiV_6loader7loadersNtB4_11RateLimiterNtNtCs66KPHxksi63_4core7default7Default7default
FN:399,_RNCNvMs1_NtCs42xciLWDxiV_6loader7loadersNtB7_10RustLoader19extract_module_path0B9_
FN:407,_RNCNvMs1_NtCs42xciLWDxiV_6loader7loadersNtB7_10RustLoader19extract_module_paths0_0B9_
FN:408,_RNCNvMs1_NtCs42xciLWDxiV_6loader7loadersNtB7_10RustLoader19extract_module_paths1_0B9_
FN:409,_RNCNvMs1_NtCs42xciLWDxiV_6loader7loadersNtB7_10RustLoader19extract_module_paths2_0B9_
FN:403,_RNCNvMs1_NtCs42xciLWDxiV_6loader7loadersNtB7_10RustLoader19extract_module_paths_0B9_
FNDA:0,_RNCNCNvMNtCs42xciLWDxiV_6loader7loadersNtB6_11RateLimiter3get00Csi7GHPcvMyXT_3mcp
FNDA:0,_RNCNCNvMs1_NtCs42xciLWDxiV_6loader7loadersNtB9_10RustLoader20fetch_crate_metadata00Csi7GHPcvMyXT_3mcp
FNDA:0,_RNCNCNvMs1_NtCs42xciLWDxiV_6loader7loadersNtB9_10RustLoader20fetch_crate_metadata0s0_0Csi7GHPcvMyXT_3mcp
FNDA:0,_RNCNCNvMs1_NtCs42xciLWDxiV_6loader7loadersNtB9_10RustLoader20fetch_crate_metadata0s1_0Csi7GHPcvMyXT_3mcp
FNDA:0,_RNCNCNvMs1_NtCs42xciLWDxiV_6loader7loadersNtB9_10RustLoader20fetch_crate_metadata0s2_0Csi7GHPcvMyXT_3mcp
FNDA:0,_RNCNCNvMs1_NtCs42xciLWDxiV_6loader7loadersNtB9_10RustLoader20fetch_crate_metadata0s3_0Csi7GHPcvMyXT_3mcp
FNDA:0,_RNCNCNvMs1_NtCs42xciLWDxiV_6loader7loadersNtB9_10RustLoader20fetch_crate_metadata0s_0Csi7GHPcvMyXT_3mcp
FNDA:0,_RNCNvMNtCs42xciLWDxiV_6loader7loadersNtB4_11RateLimiter3get0Csi7GHPcvMyXT_3mcp
FNDA:0,_RNCNvMs1_NtCs42xciLWDxiV_6loader7loadersNtB7_10RustLoader15load_crate_docs0Csi7GHPcvMyXT_3mcp
FNDA:0,_RNCNvMs1_NtCs42xciLWDxiV_6loader7loadersNtB7_10RustLoader20fetch_crate_metadata0Csi7GHPcvMyXT_3mcp
FNDA:0,_RNvMNtCs42xciLWDxiV_6loader7loadersNtB2_11RateLimiter3get
FNDA:1,_RNvMNtCs42xciLWDxiV_6loader7loadersNtB2_11RateLimiter3new
FNDA:0,_RNvMs1_NtCs42xciLWDxiV_6loader7loadersNtB5_10RustLoader15load_crate_docs
FNDA:0,_RNvMs1_NtCs42xciLWDxiV_6loader7loadersNtB5_10RustLoader17fetch_single_page
FNDA:0,_RNvMs1_NtCs42xciLWDxiV_6loader7loadersNtB5_10RustLoader18fetch_docs_rs_item
FNDA:0,_RNvMs1_NtCs42xciLWDxiV_6loader7loadersNtB5_10RustLoader19extract_module_path
FNDA:0,_RNvMs1_NtCs42xciLWDxiV_6loader7loadersNtB5_10RustLoader19resolve_docs_rs_url
FNDA:0,_RNvMs1_NtCs42xciLWDxiV_6loader7loadersNtB5_10RustLoader20fetch_crate_metadata
FNDA:0,_RNvMs1_NtCs42xciLWDxiV_6loader7loadersNtB5_10RustLoader25create_stub_documentation
FNDA:0,_RNvMs1_NtCs42xciLWDxiV_6loader7loadersNtB5_10RustLoader28determine_item_type_from_url
FNDA:0,_RNvMs1_NtCs42xciLWDxiV_6loader7loadersNtB5_10RustLoader28discover_documentation_pages
FNDA:1,_RNvMs1_NtCs42xciLWDxiV_6loader7loadersNtB5_10RustLoader3new
FNDA:0,_RNvXs0_NtCs42xciLWDxiV_6loader7loadersNtB5_10RustLoaderNtNtCs66KPHxksi63_4core7default7Default7default
FNDA:0,_RNvXs_NtCs42xciLWDxiV_6loader7loadersNtB4_11RateLimiterNtNtCs66KPHxksi63_4core7default7Default7default
FNDA:0,_RNCNvMs1_NtCs42xciLWDxiV_6loader7loadersNtB7_10RustLoader19extract_module_path0B9_
FNDA:0,_RNCNvMs1_NtCs42xciLWDxiV_6loader7loadersNtB7_10RustLoader19extract_module_paths0_0B9_
FNDA:0,_RNCNvMs1_NtCs42xciLWDxiV_6loader7loadersNtB7_10RustLoader19extract_module_paths1_0B9_
FNDA:0,_RNCNvMs1_NtCs42xciLWDxiV_6loader7loadersNtB7_10RustLoader19extract_module_paths2_0B9_
FNDA:0,_RNCNvMs1_NtCs42xciLWDxiV_6loader7loadersNtB7_10RustLoader19extract_module_paths_0B9_
FNF:29
FNH:2
DA:27,1
DA:28,1
DA:29,1
DA:30,1
DA:31,1
DA:32,1
DA:33,1
DA:34,1
DA:35,1
DA:36,1
DA:37,1
DA:40,0
DA:42,0
DA:43,0
DA:44,0
DA:45,0
DA:46,0
DA:47,0
DA:48,0
DA:50,0
DA:51,0
DA:52,0
DA:54,0
DA:55,0
DA:56,0
DA:57,0
DA:58,0
DA:59,0
DA:60,0
DA:62,0
DA:64,0
DA:65,0
DA:66,0
DA:67,0
DA:68,0
DA:69,0
DA:71,0
DA:72,0
DA:76,0
DA:77,0
DA:78,0
DA:106,0
DA:107,0
DA:108,0
DA:115,1
DA:116,1
DA:117,1
DA:118,1
DA:119,1
DA:128,0
DA:129,0
DA:130,0
DA:131,0
DA:132,0
DA:133,0
DA:134,0
DA:139,0
DA:141,0
DA:142,0
DA:143,0
DA:148,0
DA:150,0
DA:151,0
DA:152,0
DA:155,0
DA:156,0
DA:159,0
DA:160,0
DA:162,0
DA:163,0
DA:164,0
DA:165,0
DA:166,0
DA:167,0
DA:168,0
DA:169,0
DA:170,0
DA:171,0
DA:172,0
DA:173,0
DA:174,0
DA:175,0
DA:176,0
DA:177,0
DA:178,0
DA:179,0
DA:180,0
DA:183,0
DA:184,0
DA:187,0
DA:188,0
DA:189,0
DA:190,0
DA:192,0
DA:193,0
DA:195,0
DA:196,0
DA:197,0
DA:200,0
DA:201,0
DA:202,0
DA:203,0
DA:204,0
DA:205,0
DA:206,0
DA:207,0
DA:208,0
DA:209,0
DA:210,0
DA:211,0
DA:212,0
DA:213,0
DA:214,0
DA:215,0
DA:216,0
DA:217,0
DA:219,0
DA:256,0
DA:257,0
DA:258,0
DA:259,0
DA:260,0
DA:261,0
DA:309,0
DA:310,0
DA:311,0
DA:312,0
DA:313,0
DA:348,0
DA:349,0
DA:350,0
DA:351,0
DA:353,0
DA:354,0
DA:355,0
DA:356,0
DA:358,0
DA:359,0
DA:360,0
DA:361,0
DA:362,0
DA:363,0
DA:365,0
DA:366,0
DA:369,0
DA:375,0
DA:376,0
DA:377,0
DA:378,0
DA:379,0
DA:380,0
DA:381,0
DA:382,0
DA:383,0
DA:384,0
DA:385,0
DA:387,0
DA:389,0
DA:392,0
DA:396,0
DA:397,0
DA:398,0
DA:399,0
DA:400,0
DA:403,0
DA:404,0
DA:405,0
DA:406,0
DA:407,0
DA:408,0
DA:409,0
DA:410,0
DA:412,0
DA:413,0
DA:414,0
DA:415,0
DA:416,0
DA:418,0
DA:419,0
BRF:0
BRH:0
LF:194
LH:16
end_of_record
SF:/workspace/agent-docs/mcp/src/bin/http_server.rs
FN:159,_RNCNCNvCs3BlP0p94KEI_11http_server15shutdown_signal00B5_
FN:166,_RNCNCNvCs3BlP0p94KEI_11http_server15shutdown_signal0s_0B5_
FN:510,_RNCNCNvCs3BlP0p94KEI_11http_server19run_migrations_only00B5_
FN:41,_RNCNCNvCs3BlP0p94KEI_11http_server4main00B5_
FN:52,_RNCNCNvCs3BlP0p94KEI_11http_server4main0s0_0B5_
FN:98,_RNCNCNvCs3BlP0p94KEI_11http_server4main0s1_0B5_
FN:127,_RNCNCNvCs3BlP0p94KEI_11http_server4main0s2_0B5_
FN:51,_RNCNCNvCs3BlP0p94KEI_11http_server4main0s_0B5_
FN:158,_RNCNvCs3BlP0p94KEI_11http_server15shutdown_signal0B3_
FN:503,_RNCNvCs3BlP0p94KEI_11http_server19run_migrations_only0B3_
FN:137,_RNCNvCs3BlP0p94KEI_11http_server33run_server_with_graceful_shutdown0B3_
FN:15,_RNCNvCs3BlP0p94KEI_11http_server4main0B3_
FN:158,_RNvCs3BlP0p94KEI_11http_server15shutdown_signal
FN:503,_RNvCs3BlP0p94KEI_11http_server19run_migrations_only
FN:190,_RNvCs3BlP0p94KEI_11http_server24register_core_migrations
FN:137,_RNvCs3BlP0p94KEI_11http_server33run_server_with_graceful_shutdown
FN:15,_RNvCs3BlP0p94KEI_11http_server4main
FN:195,_RNvNvCs3BlP0p94KEI_11http_server24register_core_migrations18calculate_checksum
FN:158,_RNvCsiLqmQIFToUG_11http_server15shutdown_signal
FN:503,_RNvCsiLqmQIFToUG_11http_server19run_migrations_only
FN:190,_RNvCsiLqmQIFToUG_11http_server24register_core_migrations
FN:137,_RNvCsiLqmQIFToUG_11http_server33run_server_with_graceful_shutdown
FN:15,_RNvCsiLqmQIFToUG_11http_server4main
FN:195,_RNvNvCsiLqmQIFToUG_11http_server24register_core_migrations18calculate_checksum
FN:159,_RNCNCNvCsiLqmQIFToUG_11http_server15shutdown_signal00B5_
FN:166,_RNCNCNvCsiLqmQIFToUG_11http_server15shutdown_signal0s_0B5_
FN:510,_RNCNCNvCsiLqmQIFToUG_11http_server19run_migrations_only00B5_
FN:41,_RNCNCNvCsiLqmQIFToUG_11http_server4main00B5_
FN:52,_RNCNCNvCsiLqmQIFToUG_11http_server4main0s0_0B5_
FN:98,_RNCNCNvCsiLqmQIFToUG_11http_server4main0s1_0B5_
FN:127,_RNCNCNvCsiLqmQIFToUG_11http_server4main0s2_0B5_
FN:51,_RNCNCNvCsiLqmQIFToUG_11http_server4main0s_0B5_
FN:158,_RNCNvCsiLqmQIFToUG_11http_server15shutdown_signal0B3_
FN:503,_RNCNvCsiLqmQIFToUG_11http_server19run_migrations_only0B3_
FN:137,_RNCNvCsiLqmQIFToUG_11http_server33run_server_with_graceful_shutdown0B3_
FN:15,_RNCNvCsiLqmQIFToUG_11http_server4main0B3_
FNDA:0,_RNCNCNvCs3BlP0p94KEI_11http_server15shutdown_signal00B5_
FNDA:0,_RNCNCNvCs3BlP0p94KEI_11http_server15shutdown_signal0s_0B5_
FNDA:0,_RNCNCNvCs3BlP0p94KEI_11http_server19run_migrations_only00B5_
FNDA:0,_RNCNCNvCs3BlP0p94KEI_11http_server4main00B5_
FNDA:0,_RNCNCNvCs3BlP0p94KEI_11http_server4main0s0_0B5_
FNDA:0,_RNCNCNvCs3BlP0p94KEI_11http_server4main0s1_0B5_
FNDA:0,_RNCNCNvCs3BlP0p94KEI_11http_server4main0s2_0B5_
FNDA:0,_RNCNCNvCs3BlP0p94KEI_11http_server4main0s_0B5_
FNDA:0,_RNCNvCs3BlP0p94KEI_11http_server15shutdown_signal0B3_
FNDA:0,_RNCNvCs3BlP0p94KEI_11http_server19run_migrations_only0B3_
FNDA:0,_RNCNvCs3BlP0p94KEI_11http_server33run_server_with_graceful_shutdown0B3_
FNDA:0,_RNCNvCs3BlP0p94KEI_11http_server4main0B3_
FNDA:0,_RNvCs3BlP0p94KEI_11http_server15shutdown_signal
FNDA:0,_RNvCs3BlP0p94KEI_11http_server19run_migrations_only
FNDA:0,_RNvCs3BlP0p94KEI_11http_server24register_core_migrations
FNDA:0,_RNvCs3BlP0p94KEI_11http_server33run_server_with_graceful_shutdown
FNDA:0,_RNvCs3BlP0p94KEI_11http_server4main
FNDA:0,_RNvNvCs3BlP0p94KEI_11http_server24register_core_migrations18calculate_checksum
FNDA:0,_RNvCsiLqmQIFToUG_11http_server15shutdown_signal
FNDA:0,_RNvCsiLqmQIFToUG_11http_server19run_migrations_only
FNDA:0,_RNvCsiLqmQIFToUG_11http_server24register_core_migrations
FNDA:0,_RNvCsiLqmQIFToUG_11http_server33run_server_with_graceful_shutdown
FNDA:0,_RNvCsiLqmQIFToUG_11http_server4main
FNDA:0,_RNvNvCsiLqmQIFToUG_11http_server24register_core_migrations18calculate_checksum
FNDA:0,_RNCNCNvCsiLqmQIFToUG_11http_server15shutdown_signal00B5_
FNDA:0,_RNCNCNvCsiLqmQIFToUG_11http_server15shutdown_signal0s_0B5_
FNDA:0,_RNCNCNvCsiLqmQIFToUG_11http_server19run_migrations_only00B5_
FNDA:0,_RNCNCNvCsiLqmQIFToUG_11http_server4main00B5_
FNDA:0,_RNCNCNvCsiLqmQIFToUG_11http_server4main0s0_0B5_
FNDA:0,_RNCNCNvCsiLqmQIFToUG_11http_server4main0s1_0B5_
FNDA:0,_RNCNCNvCsiLqmQIFToUG_11http_server4main0s2_0B5_
FNDA:0,_RNCNCNvCsiLqmQIFToUG_11http_server4main0s_0B5_
FNDA:0,_RNCNvCsiLqmQIFToUG_11http_server15shutdown_signal0B3_
FNDA:0,_RNCNvCsiLqmQIFToUG_11http_server19run_migrations_only0B3_
FNDA:0,_RNCNvCsiLqmQIFToUG_11http_server33run_server_with_graceful_shutdown0B3_
FNDA:0,_RNCNvCsiLqmQIFToUG_11http_server4main0B3_
FNF:18
FNH:0
DA:15,0
DA:17,0
DA:18,0
DA:19,0
DA:20,0
DA:22,0
DA:23,0
DA:25,0
DA:27,0
DA:29,0
DA:30,0
DA:31,0
DA:33,0
DA:36,0
DA:39,0
DA:40,0
DA:41,0
DA:43,0
DA:45,0
DA:48,0
DA:50,0
DA:51,0
DA:52,0
DA:53,0
DA:54,0
DA:57,0
DA:60,0
DA:63,0
DA:66,0
DA:67,0
DA:68,0
DA:69,0
DA:70,0
DA:72,0
DA:73,0
DA:75,0
DA:78,0
DA:79,0
DA:80,0
DA:81,0
DA:83,0
DA:86,0
DA:87,0
DA:88,0
DA:93,0
DA:94,0
DA:95,0
DA:96,0
DA:97,0
DA:98,0
DA:99,0
DA:101,0
DA:102,0
DA:104,0
DA:105,0
DA:106,0
DA:110,0
DA:111,0
DA:112,0
DA:116,0
DA:117,0
DA:123,0
DA:127,0
DA:128,0
DA:129,0
DA:131,0
DA:133,0
DA:134,0
DA:137,0
DA:141,0
DA:142,0
DA:143,0
DA:144,0
DA:149,0
DA:150,0
DA:151,0
DA:153,0
DA:154,0
DA:155,0
DA:158,0
DA:159,0
DA:160,0
DA:161,0
DA:162,0
DA:163,0
DA:166,0
DA:167,0
DA:168,0
DA:169,0
DA:170,0
DA:171,0
DA:176,0
DA:177,0
DA:178,0
DA:180,0
DA:181,0
DA:185,0
DA:186,0
DA:190,0
DA:195,0
DA:196,0
DA:197,0
DA:198,0
DA:199,0
DA:202,0
DA:203,0
DA:204,0
DA:205,0
DA:206,0
DA:207,0
DA:208,0
DA:209,0
DA:210,0
DA:211,0
DA:212,0
DA:213,0
DA:214,0
DA:215,0
DA:216,0
DA:219,0
DA:220,0
DA:221,0
DA:222,0
DA:223,0
DA:224,0
DA:225,0
DA:226,0
DA:227,0
DA:228,0
DA:229,0
DA:230,0
DA:231,0
DA:232,0
DA:233,0
DA:234,0
DA:235,0
DA:236,0
DA:237,0
DA:240,0
DA:241,0
DA:242,0
DA:243,0
DA:244,0
DA:245,0
DA:246,0
DA:247,0
DA:248,0
DA:249,0
DA:250,0
DA:251,0
DA:252,0
DA:253,0
DA:254,0
DA:255,0
DA:256,0
DA:257,0
DA:258,0
DA:259,0
DA:260,0
DA:261,0
DA:262,0
DA:263,0
DA:264,0
DA:267,0
DA:268,0
DA:269,0
DA:270,0
DA:271,0
DA:272,0
DA:273,0
DA:274,0
DA:275,0
DA:276,0
DA:277,0
DA:278,0
DA:279,0
DA:280,0
DA:281,0
DA:282,0
DA:283,0
DA:284,0
DA:285,0
DA:286,0
DA:287,0
DA:288,0
DA:291,0
DA:292,0
DA:293,0
DA:294,0
DA:295,0
DA:296,0
DA:297,0
DA:298,0
DA:299,0
DA:300,0
DA:301,0
DA:302,0
DA:303,0
DA:304,0
DA:305,0
DA:306,0
DA:307,0
DA:308,0
DA:309,0
DA:310,0
DA:311,0
DA:312,0
DA:313,0
DA:314,0
DA:315,0
DA:316,0
DA:317,0
DA:318,0
DA:319,0
DA:322,0
DA:323,0
DA:324,0
DA:325,0
DA:326,0
DA:327,0
DA:328,0
DA:329,0
DA:330,0
DA:331,0
DA:332,0
DA:333,0
DA:334,0
DA:335,0
DA:336,0
DA:337,0
DA:338,0
DA:339,0
DA:340,0
DA:341,0
DA:342,0
DA:345,0
DA:346,0
DA:347,0
DA:348,0
DA:349,0
DA:350,0
DA:351,0
DA:352,0
DA:353,0
DA:354,0
DA:355,0
DA:356,0
DA:357,0
DA:358,0
DA:359,0
DA:360,0
DA:361,0
DA:362,0
DA:363,0
DA:364,0
DA:365,0
DA:366,0
DA:367,0
DA:368,0
DA:369,0
DA:370,0
DA:371,0
DA:372,0
DA:373,0
DA:374,0
DA:375,0
DA:376,0
DA:377,0
DA:378,0
DA:379,0
DA:380,0
DA:381,0
DA:382,0
DA:383,0
DA:384,0
DA:385,0
DA:386,0
DA:387,0
DA:388,0
DA:389,0
DA:390,0
DA:391,0
DA:392,0
DA:393,0
DA:394,0
DA:395,0
DA:396,0
DA:397,0
DA:398,0
DA:399,0
DA:400,0
DA:401,0
DA:402,0
DA:403,0
DA:404,0
DA:405,0
DA:406,0
DA:407,0
DA:408,0
DA:409,0
DA:410,0
DA:411,0
DA:412,0
DA:413,0
DA:414,0
DA:415,0
DA:416,0
DA:417,0
DA:418,0
DA:419,0
DA:420,0
DA:421,0
DA:422,0
DA:423,0
DA:424,0
DA:425,0
DA:426,0
DA:429,0
DA:430,0
DA:431,0
DA:432,0
DA:433,0
DA:434,0
DA:435,0
DA:436,0
DA:437,0
DA:438,0
DA:439,0
DA:440,0
DA:441,0
DA:442,0
DA:443,0
DA:444,0
DA:445,0
DA:446,0
DA:447,0
DA:448,0
DA:449,0
DA:450,0
DA:451,0
DA:452,0
DA:453,0
DA:454,0
DA:455,0
DA:456,0
DA:457,0
DA:458,0
DA:459,0
DA:460,0
DA:461,0
DA:462,0
DA:463,0
DA:464,0
DA:465,0
DA:466,0
DA:467,0
DA:468,0
DA:469,0
DA:470,0
DA:471,0
DA:472,0
DA:473,0
DA:474,0
DA:475,0
DA:476,0
DA:477,0
DA:478,0
DA:479,0
DA:480,0
DA:481,0
DA:482,0
DA:483,0
DA:484,0
DA:485,0
DA:486,0
DA:487,0
DA:488,0
DA:489,0
DA:490,0
DA:491,0
DA:492,0
DA:493,0
DA:494,0
DA:495,0
DA:496,0
DA:497,0
DA:498,0
DA:499,0
DA:500,0
DA:503,0
DA:505,0
DA:508,0
DA:509,0
DA:510,0
DA:512,0
DA:514,0
DA:517,0
DA:520,0
DA:523,0
DA:526,0
DA:529,0
DA:530,0
DA:531,0
DA:532,0
DA:533,0
DA:534,0
DA:536,0
DA:537,0
DA:539,0
DA:542,0
DA:543,0
DA:544,0
DA:545,0
DA:546,0
DA:548,0
DA:549,0
DA:550,0
DA:551,0
DA:557,0
DA:558,0
DA:559,0
DA:564,0
DA:565,0
DA:566,0
DA:567,0
DA:569,0
DA:570,0
DA:571,0
DA:573,0
DA:574,0
DA:576,0
DA:580,0
DA:581,0
DA:582,0
DA:586,0
DA:587,0
DA:588,0
BRF:0
BRH:0
LF:450
LH:0
end_of_record
SF:/workspace/agent-docs/mcp/src/config.rs
FN:43,_RNvMNtCsi7GHPcvMyXT_3mcp6configNtB2_12ConfigLoader12load_default
FN:66,_RNvMNtCsi7GHPcvMyXT_3mcp6configNtB2_12ConfigLoader15validate_config
FN:128,_RNvMNtCsi7GHPcvMyXT_3mcp6configNtB2_12ConfigLoader20filter_enabled_tools
FN:18,_RINvMNtCsi7GHPcvMyXT_3mcp6configNtB3_12ConfigLoader14load_from_fileNtNtCs8Ty2CzGA6U3_5alloc6string6StringEB5_
FN:22,_RNCINvMNtCsi7GHPcvMyXT_3mcp6configNtB5_12ConfigLoader14load_from_fileNtNtCs8Ty2CzGA6U3_5alloc6string6StringE0B7_
FN:25,_RNCINvMNtCsi7GHPcvMyXT_3mcp6configNtB5_12ConfigLoader14load_from_fileNtNtCs8Ty2CzGA6U3_5alloc6string6StringEs_0B7_
FN:49,_RNCNvMNtCsi7GHPcvMyXT_3mcp6configNtB4_12ConfigLoader12load_default0B6_
FN:143,_RNvNtNtCshSK2vqEfhA7_3mcp6config5testss_24test_load_default_config
FN:229,_RNvNtNtCshSK2vqEfhA7_3mcp6config5testss_25test_filter_enabled_tools
FN:158,_RNvNtNtCshSK2vqEfhA7_3mcp6config5testss_32test_validate_config_empty_tools
FN:169,_RNvNtNtCshSK2vqEfhA7_3mcp6config5testss_36test_validate_config_duplicate_names
FN:212,_RNvNtNtCshSK2vqEfhA7_3mcp6config5testss_37test_validate_config_invalid_doc_type
FN:192,_RNvNtNtCshSK2vqEfhA7_3mcp6config5testss_40test_validate_config_invalid_name_format
FN:49,_RNCNvMNtCshSK2vqEfhA7_3mcp6configNtB4_12ConfigLoader12load_default0B6_
FN:43,_RNvMNtCshSK2vqEfhA7_3mcp6configNtB2_12ConfigLoader12load_default
FN:66,_RNvMNtCshSK2vqEfhA7_3mcp6configNtB2_12ConfigLoader15validate_config
FN:128,_RNvMNtCshSK2vqEfhA7_3mcp6configNtB2_12ConfigLoader20filter_enabled_tools
FN:18,_RINvMNtCshSK2vqEfhA7_3mcp6configNtB3_12ConfigLoader14load_from_filepEB5_
FN:22,_RNCINvMNtCshSK2vqEfhA7_3mcp6configNtB5_12ConfigLoader14load_from_filepE0B7_
FN:25,_RNCINvMNtCshSK2vqEfhA7_3mcp6configNtB5_12ConfigLoader14load_from_filepEs_0B7_
FNDA:3,_RNvMNtCsi7GHPcvMyXT_3mcp6configNtB2_12ConfigLoader12load_default
FNDA:11,_RNvMNtCsi7GHPcvMyXT_3mcp6configNtB2_12ConfigLoader15validate_config
FNDA:2,_RNvMNtCsi7GHPcvMyXT_3mcp6configNtB2_12ConfigLoader20filter_enabled_tools
FNDA:0,_RINvMNtCsi7GHPcvMyXT_3mcp6configNtB3_12ConfigLoader14load_from_fileNtNtCs8Ty2CzGA6U3_5alloc6string6StringEB5_
FNDA:0,_RNCINvMNtCsi7GHPcvMyXT_3mcp6configNtB5_12ConfigLoader14load_from_fileNtNtCs8Ty2CzGA6U3_5alloc6string6StringE0B7_
FNDA:0,_RNCINvMNtCsi7GHPcvMyXT_3mcp6configNtB5_12ConfigLoader14load_from_fileNtNtCs8Ty2CzGA6U3_5alloc6string6StringEs_0B7_
FNDA:0,_RNCNvMNtCsi7GHPcvMyXT_3mcp6configNtB4_12ConfigLoader12load_default0B6_
FNDA:1,_RNvNtNtCshSK2vqEfhA7_3mcp6config5testss_24test_load_default_config
FNDA:1,_RNvNtNtCshSK2vqEfhA7_3mcp6config5testss_25test_filter_enabled_tools
FNDA:1,_RNvNtNtCshSK2vqEfhA7_3mcp6config5testss_32test_validate_config_empty_tools
FNDA:1,_RNvNtNtCshSK2vqEfhA7_3mcp6config5testss_36test_validate_config_duplicate_names
FNDA:1,_RNvNtNtCshSK2vqEfhA7_3mcp6config5testss_37test_validate_config_invalid_doc_type
FNDA:1,_RNvNtNtCshSK2vqEfhA7_3mcp6config5testss_40test_validate_config_invalid_name_format
FNDA:0,_RNCNvMNtCshSK2vqEfhA7_3mcp6configNtB4_12ConfigLoader12load_default0B6_
FNDA:1,_RNvMNtCshSK2vqEfhA7_3mcp6configNtB2_12ConfigLoader12load_default
FNDA:5,_RNvMNtCshSK2vqEfhA7_3mcp6configNtB2_12ConfigLoader15validate_config
FNDA:1,_RNvMNtCshSK2vqEfhA7_3mcp6configNtB2_12ConfigLoader20filter_enabled_tools
FNDA:0,_RINvMNtCshSK2vqEfhA7_3mcp6configNtB3_12ConfigLoader14load_from_filepEB5_
FNDA:0,_RNCINvMNtCshSK2vqEfhA7_3mcp6configNtB5_12ConfigLoader14load_from_filepE0B7_
FNDA:0,_RNCINvMNtCshSK2vqEfhA7_3mcp6configNtB5_12ConfigLoader14load_from_filepEs_0B7_
FNF:13
FNH:9
DA:18,0
DA:19,0
DA:21,0
DA:22,0
DA:24,0
DA:25,0
DA:27,0
DA:29,0
DA:30,0
DA:31,0
DA:32,0
DA:35,0
DA:36,0
DA:43,4
DA:46,4
DA:48,4
DA:49,4
DA:51,4
DA:53,4
DA:54,0
DA:55,0
DA:58,4
DA:59,4
DA:66,16
DA:67,16
DA:68,1
DA:69,15
DA:71,15
DA:72,15
DA:73,15
DA:74,15
DA:75,15
DA:76,15
DA:77,15
DA:78,15
DA:79,15
DA:80,15
DA:81,15
DA:82,15
DA:83,15
DA:85,61
DA:87,52
DA:88,0
DA:89,52
DA:90,52
DA:91,0
DA:92,52
DA:93,52
DA:94,0
DA:95,52
DA:96,52
DA:97,0
DA:98,52
DA:101,52
DA:102,2
DA:103,50
DA:106,50
DA:107,2
DA:108,48
DA:111,48
DA:112,2
DA:113,2
DA:114,2
DA:115,2
DA:116,2
DA:117,2
DA:118,46
DA:120,46
DA:123,9
DA:124,16
DA:128,3
DA:129,3
DA:130,3
DA:131,3
DA:132,3
DA:133,3
DA:134,3
DA:135,3
DA:143,1
DA:144,1
DA:145,1
DA:148,10
DA:149,9
DA:150,9
DA:151,9
DA:152,9
DA:153,9
DA:155,1
DA:158,1
DA:159,1
DA:160,1
DA:161,1
DA:162,1
DA:163,1
DA:164,1
DA:165,1
DA:166,1
DA:169,1
DA:170,1
DA:171,1
DA:172,1
DA:173,1
DA:174,1
DA:175,1
DA:176,1
DA:177,1
DA:178,1
DA:179,1
DA:180,1
DA:181,1
DA:183,1
DA:184,1
DA:185,1
DA:186,1
DA:187,1
DA:188,1
DA:189,1
DA:192,1
DA:193,1
DA:194,1
DA:195,1
DA:196,1
DA:197,1
DA:198,1
DA:199,1
DA:200,1
DA:201,1
DA:203,1
DA:204,1
DA:205,1
DA:206,1
DA:207,1
DA:208,1
DA:209,1
DA:212,1
DA:213,1
DA:214,1
DA:215,1
DA:216,1
DA:217,1
DA:218,1
DA:219,1
DA:220,1
DA:221,1
DA:223,1
DA:224,1
DA:225,1
DA:226,1
DA:229,1
DA:230,1
DA:231,1
DA:232,1
DA:233,1
DA:234,1
DA:235,1
DA:236,1
DA:237,1
DA:238,1
DA:239,1
DA:240,1
DA:241,1
DA:242,1
DA:243,1
DA:244,1
DA:245,1
DA:246,1
DA:247,1
DA:248,1
DA:250,1
DA:251,1
DA:252,1
DA:253,1
BRF:0
BRH:0
LF:175
LH:153
end_of_record
SF:/workspace/agent-docs/mcp/src/crate_tools.rs
FN:843,_RNCNvMs4_NtCsi7GHPcvMyXT_3mcp11crate_toolsNtB7_19CheckRustStatusTool15get_job_metrics0B9_
FN:831,_RNCNvMs4_NtCsi7GHPcvMyXT_3mcp11crate_toolsNtB7_19CheckRustStatusTool19get_storage_metrics0B9_
FN:843,_RNvMs4_NtCsi7GHPcvMyXT_3mcp11crate_toolsNtB5_19CheckRustStatusTool15get_job_metrics
FN:831,_RNvMs4_NtCsi7GHPcvMyXT_3mcp11crate_toolsNtB5_19CheckRustStatusTool19get_storage_metrics
FN:339,_RNCNCNCNvXs6_NtCsi7GHPcvMyXT_3mcp11crate_toolsNtBb_19RemoveRustCrateToolNtNtBd_5tools4Tool7execute0s_00Bd_
FN:169,_RNCNCNvMs_NtCsi7GHPcvMyXT_3mcp11crate_toolsNtB8_16AddRustCrateTool23process_crate_ingestion00Ba_
FN:78,_RNCNCNvXs5_NtCsi7GHPcvMyXT_3mcp11crate_toolsNtB9_16AddRustCrateToolNtNtBb_5tools4Tool7execute00Bb_
FN:108,_RNCNCNvXs5_NtCsi7GHPcvMyXT_3mcp11crate_toolsNtB9_16AddRustCrateToolNtNtBb_5tools4Tool7execute0s0_0Bb_
FN:79,_RNCNCNvXs5_NtCsi7GHPcvMyXT_3mcp11crate_toolsNtB9_16AddRustCrateToolNtNtBb_5tools4Tool7execute0s_0Bb_
FN:338,_RNCNCNvXs6_NtCsi7GHPcvMyXT_3mcp11crate_toolsNtB9_19RemoveRustCrateToolNtNtBb_5tools4Tool7execute00Bb_
FN:340,_RNCNCNvXs6_NtCsi7GHPcvMyXT_3mcp11crate_toolsNtB9_19RemoveRustCrateToolNtNtBb_5tools4Tool7execute0s0_0Bb_
FN:339,_RNCNCNvXs6_NtCsi7GHPcvMyXT_3mcp11crate_toolsNtB9_19RemoveRustCrateToolNtNtBb_5tools4Tool7execute0s_0Bb_
FN:505,_RNCNCNvXs7_NtCsi7GHPcvMyXT_3mcp11crate_toolsNtB9_18ListRustCratesToolNtNtBb_5tools4Tool7execute00Bb_
FN:509,_RNCNCNvXs7_NtCsi7GHPcvMyXT_3mcp11crate_toolsNtB9_18ListRustCratesToolNtNtBb_5tools4Tool7execute0s_0Bb_
FN:668,_RNCNCNvXs8_NtCsi7GHPcvMyXT_3mcp11crate_toolsNtB9_19CheckRustStatusToolNtNtBb_5tools4Tool7execute00Bb_
FN:765,_RNCNCNvXs8_NtCsi7GHPcvMyXT_3mcp11crate_toolsNtB9_19CheckRustStatusToolNtNtBb_5tools4Tool7execute0s_0Bb_
FN:405,_RNCNvMs1_NtCsi7GHPcvMyXT_3mcp11crate_toolsNtB7_19RemoveRustCrateTool21perform_soft_deletion0B9_
FN:370,_RNCNvMs1_NtCsi7GHPcvMyXT_3mcp11crate_toolsNtB7_19RemoveRustCrateTool24perform_cascade_deletion0B9_
FN:158,_RNCNvMs_NtCsi7GHPcvMyXT_3mcp11crate_toolsNtB6_16AddRustCrateTool23process_crate_ingestion0B8_
FN:39,_RNvMNtCsi7GHPcvMyXT_3mcp11crate_toolsNtB2_16AddRustCrateTool3new
FN:303,_RNvMs0_NtCsi7GHPcvMyXT_3mcp11crate_toolsNtB5_19RemoveRustCrateTool3new
FN:405,_RNvMs1_NtCsi7GHPcvMyXT_3mcp11crate_toolsNtB5_19RemoveRustCrateTool21perform_soft_deletion
FN:370,_RNvMs1_NtCsi7GHPcvMyXT_3mcp11crate_toolsNtB5_19RemoveRustCrateTool24perform_cascade_deletion
FN:457,_RNvMs2_NtCsi7GHPcvMyXT_3mcp11crate_toolsNtB5_18ListRustCratesTool3new
FN:624,_RNvMs3_NtCsi7GHPcvMyXT_3mcp11crate_toolsNtB5_19CheckRustStatusTool3new
FN:150,_RNvMs_NtCsi7GHPcvMyXT_3mcp11crate_toolsNtB4_16AddRustCrateTool23process_crate_ingestion
FN:54,_RNvXs5_NtCsi7GHPcvMyXT_3mcp11crate_toolsNtB5_16AddRustCrateToolNtNtB7_5tools4Tool10definition
FN:75,_RNvXs5_NtCsi7GHPcvMyXT_3mcp11crate_toolsNtB5_16AddRustCrateToolNtNtB7_5tools4Tool7execute
FN:310,_RNvXs6_NtCsi7GHPcvMyXT_3mcp11crate_toolsNtB5_19RemoveRustCrateToolNtNtB7_5tools4Tool10definition
FN:335,_RNvXs6_NtCsi7GHPcvMyXT_3mcp11crate_toolsNtB5_19RemoveRustCrateToolNtNtB7_5tools4Tool7execute
FN:464,_RNvXs7_NtCsi7GHPcvMyXT_3mcp11crate_toolsNtB5_18ListRustCratesToolNtNtB7_5tools4Tool10definition
FN:501,_RNvXs7_NtCsi7GHPcvMyXT_3mcp11crate_toolsNtB5_18ListRustCratesToolNtNtB7_5tools4Tool7execute
FN:635,_RNvXs8_NtCsi7GHPcvMyXT_3mcp11crate_toolsNtB5_19CheckRustStatusToolNtNtB7_5tools4Tool10definition
FN:656,_RNvXs8_NtCsi7GHPcvMyXT_3mcp11crate_toolsNtB5_19CheckRustStatusToolNtNtB7_5tools4Tool7execute
FN:339,_RNCNCNCNvXs6_NtCshSK2vqEfhA7_3mcp11crate_toolsNtBb_19RemoveRustCrateToolNtNtBd_5tools4Tool7execute0s_00Bd_
FN:169,_RNCNCNvMs_NtCshSK2vqEfhA7_3mcp11crate_toolsNtB8_16AddRustCrateTool23process_crate_ingestion00Ba_
FN:78,_RNCNCNvXs5_NtCshSK2vqEfhA7_3mcp11crate_toolsNtB9_16AddRustCrateToolNtNtBb_5tools4Tool7execute00Bb_
FN:108,_RNCNCNvXs5_NtCshSK2vqEfhA7_3mcp11crate_toolsNtB9_16AddRustCrateToolNtNtBb_5tools4Tool7execute0s0_0Bb_
FN:79,_RNCNCNvXs5_NtCshSK2vqEfhA7_3mcp11crate_toolsNtB9_16AddRustCrateToolNtNtBb_5tools4Tool7execute0s_0Bb_
FN:338,_RNCNCNvXs6_NtCshSK2vqEfhA7_3mcp11crate_toolsNtB9_19RemoveRustCrateToolNtNtBb_5tools4Tool7execute00Bb_
FN:340,_RNCNCNvXs6_NtCshSK2vqEfhA7_3mcp11crate_toolsNtB9_19RemoveRustCrateToolNtNtBb_5tools4Tool7execute0s0_0Bb_
FN:339,_RNCNCNvXs6_NtCshSK2vqEfhA7_3mcp11crate_toolsNtB9_19RemoveRustCrateToolNtNtBb_5tools4Tool7execute0s_0Bb_
FN:505,_RNCNCNvXs7_NtCshSK2vqEfhA7_3mcp11crate_toolsNtB9_18ListRustCratesToolNtNtBb_5tools4Tool7execute00Bb_
FN:509,_RNCNCNvXs7_NtCshSK2vqEfhA7_3mcp11crate_toolsNtB9_18ListRustCratesToolNtNtBb_5tools4Tool7execute0s_0Bb_
FN:668,_RNCNCNvXs8_NtCshSK2vqEfhA7_3mcp11crate_toolsNtB9_19CheckRustStatusToolNtNtBb_5tools4Tool7execute00Bb_
FN:765,_RNCNCNvXs8_NtCshSK2vqEfhA7_3mcp11crate_toolsNtB9_19CheckRustStatusToolNtNtBb_5tools4Tool7execute0s_0Bb_
FN:405,_RNCNvMs1_NtCshSK2vqEfhA7_3mcp11crate_toolsNtB7_19RemoveRustCrateTool21perform_soft_deletion0B9_
FN:370,_RNCNvMs1_NtCshSK2vqEfhA7_3mcp11crate_toolsNtB7_19RemoveRustCrateTool24perform_cascade_deletion0B9_
FN:843,_RNCNvMs4_NtCshSK2vqEfhA7_3mcp11crate_toolsNtB7_19CheckRustStatusTool15get_job_metrics0B9_
FN:831,_RNCNvMs4_NtCshSK2vqEfhA7_3mcp11crate_toolsNtB7_19CheckRustStatusTool19get_storage_metrics0B9_
FN:158,_RNCNvMs_NtCshSK2vqEfhA7_3mcp11crate_toolsNtB6_16AddRustCrateTool23process_crate_ingestion0B8_
FN:39,_RNvMNtCshSK2vqEfhA7_3mcp11crate_toolsNtB2_16AddRustCrateTool3new
FN:303,_RNvMs0_NtCshSK2vqEfhA7_3mcp11crate_toolsNtB5_19RemoveRustCrateTool3new
FN:405,_RNvMs1_NtCshSK2vqEfhA7_3mcp11crate_toolsNtB5_19RemoveRustCrateTool21perform_soft_deletion
FN:370,_RNvMs1_NtCshSK2vqEfhA7_3mcp11crate_toolsNtB5_19RemoveRustCrateTool24perform_cascade_deletion
FN:457,_RNvMs2_NtCshSK2vqEfhA7_3mcp11crate_toolsNtB5_18ListRustCratesTool3new
FN:624,_RNvMs3_NtCshSK2vqEfhA7_3mcp11crate_toolsNtB5_19CheckRustStatusTool3new
FN:843,_RNvMs4_NtCshSK2vqEfhA7_3mcp11crate_toolsNtB5_19CheckRustStatusTool15get_job_metrics
FN:831,_RNvMs4_NtCshSK2vqEfhA7_3mcp11crate_toolsNtB5_19CheckRustStatusTool19get_storage_metrics
FN:150,_RNvMs_NtCshSK2vqEfhA7_3mcp11crate_toolsNtB4_16AddRustCrateTool23process_crate_ingestion
FN:54,_RNvXs5_NtCshSK2vqEfhA7_3mcp11crate_toolsNtB5_16AddRustCrateToolNtNtB7_5tools4Tool10definition
FN:75,_RNvXs5_NtCshSK2vqEfhA7_3mcp11crate_toolsNtB5_16AddRustCrateToolNtNtB7_5tools4Tool7execute
FN:310,_RNvXs6_NtCshSK2vqEfhA7_3mcp11crate_toolsNtB5_19RemoveRustCrateToolNtNtB7_5tools4Tool10definition
FN:335,_RNvXs6_NtCshSK2vqEfhA7_3mcp11crate_toolsNtB5_19RemoveRustCrateToolNtNtB7_5tools4Tool7execute
FN:464,_RNvXs7_NtCshSK2vqEfhA7_3mcp11crate_toolsNtB5_18ListRustCratesToolNtNtB7_5tools4Tool10definition
FN:501,_RNvXs7_NtCshSK2vqEfhA7_3mcp11crate_toolsNtB5_18ListRustCratesToolNtNtB7_5tools4Tool7execute
FN:635,_RNvXs8_NtCshSK2vqEfhA7_3mcp11crate_toolsNtB5_19CheckRustStatusToolNtNtB7_5tools4Tool10definition
FN:656,_RNvXs8_NtCshSK2vqEfhA7_3mcp11crate_toolsNtB5_19CheckRustStatusToolNtNtB7_5tools4Tool7execute
FNDA:0,_RNCNvMs4_NtCsi7GHPcvMyXT_3mcp11crate_toolsNtB7_19CheckRustStatusTool15get_job_metrics0B9_
FNDA:0,_RNCNvMs4_NtCsi7GHPcvMyXT_3mcp11crate_toolsNtB7_19CheckRustStatusTool19get_storage_metrics0B9_
FNDA:0,_RNvMs4_NtCsi7GHPcvMyXT_3mcp11crate_toolsNtB5_19CheckRustStatusTool15get_job_metrics
FNDA:0,_RNvMs4_NtCsi7GHPcvMyXT_3mcp11crate_toolsNtB5_19CheckRustStatusTool19get_storage_metrics
FNDA:0,_RNCNCNCNvXs6_NtCsi7GHPcvMyXT_3mcp11crate_toolsNtBb_19RemoveRustCrateToolNtNtBd_5tools4Tool7execute0s_00Bd_
FNDA:0,_RNCNCNvMs_NtCsi7GHPcvMyXT_3mcp11crate_toolsNtB8_16AddRustCrateTool23process_crate_ingestion00Ba_
FNDA:1,_RNCNCNvXs5_NtCsi7GHPcvMyXT_3mcp11crate_toolsNtB9_16AddRustCrateToolNtNtBb_5tools4Tool7execute00Bb_
FNDA:0,_RNCNCNvXs5_NtCsi7GHPcvMyXT_3mcp11crate_toolsNtB9_16AddRustCrateToolNtNtBb_5tools4Tool7execute0s0_0Bb_
FNDA:0,_RNCNCNvXs5_NtCsi7GHPcvMyXT_3mcp11crate_toolsNtB9_16AddRustCrateToolNtNtBb_5tools4Tool7execute0s_0Bb_
FNDA:2,_RNCNCNvXs6_NtCsi7GHPcvMyXT_3mcp11crate_toolsNtB9_19RemoveRustCrateToolNtNtBb_5tools4Tool7execute00Bb_
FNDA:0,_RNCNCNvXs6_NtCsi7GHPcvMyXT_3mcp11crate_toolsNtB9_19RemoveRustCrateToolNtNtBb_5tools4Tool7execute0s0_0Bb_
FNDA:0,_RNCNCNvXs6_NtCsi7GHPcvMyXT_3mcp11crate_toolsNtB9_19RemoveRustCrateToolNtNtBb_5tools4Tool7execute0s_0Bb_
FNDA:1,_RNCNCNvXs7_NtCsi7GHPcvMyXT_3mcp11crate_toolsNtB9_18ListRustCratesToolNtNtBb_5tools4Tool7execute00Bb_
FNDA:2,_RNCNCNvXs7_NtCsi7GHPcvMyXT_3mcp11crate_toolsNtB9_18ListRustCratesToolNtNtBb_5tools4Tool7execute0s_0Bb_
FNDA:0,_RNCNCNvXs8_NtCsi7GHPcvMyXT_3mcp11crate_toolsNtB9_19CheckRustStatusToolNtNtBb_5tools4Tool7execute00Bb_
FNDA:15,_RNCNCNvXs8_NtCsi7GHPcvMyXT_3mcp11crate_toolsNtB9_19CheckRustStatusToolNtNtBb_5tools4Tool7execute0s_0Bb_
FNDA:0,_RNCNvMs1_NtCsi7GHPcvMyXT_3mcp11crate_toolsNtB7_19RemoveRustCrateTool21perform_soft_deletion0B9_
FNDA:0,_RNCNvMs1_NtCsi7GHPcvMyXT_3mcp11crate_toolsNtB7_19RemoveRustCrateTool24perform_cascade_deletion0B9_
FNDA:0,_RNCNvMs_NtCsi7GHPcvMyXT_3mcp11crate_toolsNtB6_16AddRustCrateTool23process_crate_ingestion0B8_
FNDA:1,_RNvMNtCsi7GHPcvMyXT_3mcp11crate_toolsNtB2_16AddRustCrateTool3new
FNDA:1,_RNvMs0_NtCsi7GHPcvMyXT_3mcp11crate_toolsNtB5_19RemoveRustCrateTool3new
FNDA:0,_RNvMs1_NtCsi7GHPcvMyXT_3mcp11crate_toolsNtB5_19RemoveRustCrateTool21perform_soft_deletion
FNDA:0,_RNvMs1_NtCsi7GHPcvMyXT_3mcp11crate_toolsNtB5_19RemoveRustCrateTool24perform_cascade_deletion
FNDA:2,_RNvMs2_NtCsi7GHPcvMyXT_3mcp11crate_toolsNtB5_18ListRustCratesTool3new
FNDA:2,_RNvMs3_NtCsi7GHPcvMyXT_3mcp11crate_toolsNtB5_19CheckRustStatusTool3new
FNDA:0,_RNvMs_NtCsi7GHPcvMyXT_3mcp11crate_toolsNtB4_16AddRustCrateTool23process_crate_ingestion
FNDA:0,_RNvXs5_NtCsi7GHPcvMyXT_3mcp11crate_toolsNtB5_16AddRustCrateToolNtNtB7_5tools4Tool10definition
FNDA:1,_RNvXs5_NtCsi7GHPcvMyXT_3mcp11crate_toolsNtB5_16AddRustCrateToolNtNtB7_5tools4Tool7execute
FNDA:0,_RNvXs6_NtCsi7GHPcvMyXT_3mcp11crate_toolsNtB5_19RemoveRustCrateToolNtNtB7_5tools4Tool10definition
FNDA:2,_RNvXs6_NtCsi7GHPcvMyXT_3mcp11crate_toolsNtB5_19RemoveRustCrateToolNtNtB7_5tools4Tool7execute
FNDA:0,_RNvXs7_NtCsi7GHPcvMyXT_3mcp11crate_toolsNtB5_18ListRustCratesToolNtNtB7_5tools4Tool10definition
FNDA:4,_RNvXs7_NtCsi7GHPcvMyXT_3mcp11crate_toolsNtB5_18ListRustCratesToolNtNtB7_5tools4Tool7execute
FNDA:0,_RNvXs8_NtCsi7GHPcvMyXT_3mcp11crate_toolsNtB5_19CheckRustStatusToolNtNtB7_5tools4Tool10definition
FNDA:3,_RNvXs8_NtCsi7GHPcvMyXT_3mcp11crate_toolsNtB5_19CheckRustStatusToolNtNtB7_5tools4Tool7execute
FNDA:0,_RNCNCNCNvXs6_NtCshSK2vqEfhA7_3mcp11crate_toolsNtBb_19RemoveRustCrateToolNtNtBd_5tools4Tool7execute0s_00Bd_
FNDA:0,_RNCNCNvMs_NtCshSK2vqEfhA7_3mcp11crate_toolsNtB8_16AddRustCrateTool23process_crate_ingestion00Ba_
FNDA:0,_RNCNCNvXs5_NtCshSK2vqEfhA7_3mcp11crate_toolsNtB9_16AddRustCrateToolNtNtBb_5tools4Tool7execute00Bb_
FNDA:0,_RNCNCNvXs5_NtCshSK2vqEfhA7_3mcp11crate_toolsNtB9_16AddRustCrateToolNtNtBb_5tools4Tool7execute0s0_0Bb_
FNDA:0,_RNCNCNvXs5_NtCshSK2vqEfhA7_3mcp11crate_toolsNtB9_16AddRustCrateToolNtNtBb_5tools4Tool7execute0s_0Bb_
FNDA:0,_RNCNCNvXs6_NtCshSK2vqEfhA7_3mcp11crate_toolsNtB9_19RemoveRustCrateToolNtNtBb_5tools4Tool7execute00Bb_
FNDA:0,_RNCNCNvXs6_NtCshSK2vqEfhA7_3mcp11crate_toolsNtB9_19RemoveRustCrateToolNtNtBb_5tools4Tool7execute0s0_0Bb_
FNDA:0,_RNCNCNvXs6_NtCshSK2vqEfhA7_3mcp11crate_toolsNtB9_19RemoveRustCrateToolNtNtBb_5tools4Tool7execute0s_0Bb_
FNDA:0,_RNCNCNvXs7_NtCshSK2vqEfhA7_3mcp11crate_toolsNtB9_18ListRustCratesToolNtNtBb_5tools4Tool7execute00Bb_
FNDA:0,_RNCNCNvXs7_NtCshSK2vqEfhA7_3mcp11crate_toolsNtB9_18ListRustCratesToolNtNtBb_5tools4Tool7execute0s_0Bb_
FNDA:0,_RNCNCNvXs8_NtCshSK2vqEfhA7_3mcp11crate_toolsNtB9_19CheckRustStatusToolNtNtBb_5tools4Tool7execute00Bb_
FNDA:0,_RNCNCNvXs8_NtCshSK2vqEfhA7_3mcp11crate_toolsNtB9_19CheckRustStatusToolNtNtBb_5tools4Tool7execute0s_0Bb_
FNDA:0,_RNCNvMs1_NtCshSK2vqEfhA7_3mcp11crate_toolsNtB7_19RemoveRustCrateTool21perform_soft_deletion0B9_
FNDA:0,_RNCNvMs1_NtCshSK2vqEfhA7_3mcp11crate_toolsNtB7_19RemoveRustCrateTool24perform_cascade_deletion0B9_
FNDA:0,_RNCNvMs4_NtCshSK2vqEfhA7_3mcp11crate_toolsNtB7_19CheckRustStatusTool15get_job_metrics0B9_
FNDA:0,_RNCNvMs4_NtCshSK2vqEfhA7_3mcp11crate_toolsNtB7_19CheckRustStatusTool19get_storage_metrics0B9_
FNDA:0,_RNCNvMs_NtCshSK2vqEfhA7_3mcp11crate_toolsNtB6_16AddRustCrateTool23process_crate_ingestion0B8_
FNDA:0,_RNvMNtCshSK2vqEfhA7_3mcp11crate_toolsNtB2_16AddRustCrateTool3new
FNDA:0,_RNvMs0_NtCshSK2vqEfhA7_3mcp11crate_toolsNtB5_19RemoveRustCrateTool3new
FNDA:0,_RNvMs1_NtCshSK2vqEfhA7_3mcp11crate_toolsNtB5_19RemoveRustCrateTool21perform_soft_deletion
FNDA:0,_RNvMs1_NtCshSK2vqEfhA7_3mcp11crate_toolsNtB5_19RemoveRustCrateTool24perform_cascade_deletion
FNDA:0,_RNvMs2_NtCshSK2vqEfhA7_3mcp11crate_toolsNtB5_18ListRustCratesTool3new
FNDA:0,_RNvMs3_NtCshSK2vqEfhA7_3mcp11crate_toolsNtB5_19CheckRustStatusTool3new
FNDA:0,_RNvMs4_NtCshSK2vqEfhA7_3mcp11crate_toolsNtB5_19CheckRustStatusTool15get_job_metrics
FNDA:0,_RNvMs4_NtCshSK2vqEfhA7_3mcp11crate_toolsNtB5_19CheckRustStatusTool19get_storage_metrics
FNDA:0,_RNvMs_NtCshSK2vqEfhA7_3mcp11crate_toolsNtB4_16AddRustCrateTool23process_crate_ingestion
FNDA:0,_RNvXs5_NtCshSK2vqEfhA7_3mcp11crate_toolsNtB5_16AddRustCrateToolNtNtB7_5tools4Tool10definition
FNDA:0,_RNvXs5_NtCshSK2vqEfhA7_3mcp11crate_toolsNtB5_16AddRustCrateToolNtNtB7_5tools4Tool7execute
FNDA:0,_RNvXs6_NtCshSK2vqEfhA7_3mcp11crate_toolsNtB5_19RemoveRustCrateToolNtNtB7_5tools4Tool10definition
FNDA:0,_RNvXs6_NtCshSK2vqEfhA7_3mcp11crate_toolsNtB5_19RemoveRustCrateToolNtNtB7_5tools4Tool7execute
FNDA:0,_RNvXs7_NtCshSK2vqEfhA7_3mcp11crate_toolsNtB5_18ListRustCratesToolNtNtB7_5tools4Tool10definition
FNDA:0,_RNvXs7_NtCshSK2vqEfhA7_3mcp11crate_toolsNtB5_18ListRustCratesToolNtNtB7_5tools4Tool7execute
FNDA:0,_RNvXs8_NtCshSK2vqEfhA7_3mcp11crate_toolsNtB5_19CheckRustStatusToolNtNtB7_5tools4Tool10definition
FNDA:0,_RNvXs8_NtCshSK2vqEfhA7_3mcp11crate_toolsNtB5_19CheckRustStatusToolNtNtB7_5tools4Tool7execute
FNF:34
FNH:13
DA:39,1
DA:40,1
DA:41,1
DA:42,1
DA:43,1
DA:44,1
DA:45,1
DA:46,1
DA:47,1
DA:48,1
DA:49,1
DA:54,0
DA:55,0
DA:56,0
DA:57,0
DA:58,0
DA:59,0
DA:60,0
DA:61,0
DA:62,0
DA:63,0
DA:65,0
DA:66,0
DA:67,0
DA:70,0
DA:73,0
DA:75,1
DA:78,1
DA:79,0
DA:108,0
DA:109,0
DA:110,0
DA:111,0
DA:112,0
DA:113,0
DA:114,0
DA:115,0
DA:116,0
DA:117,0
DA:119,0
DA:121,0
DA:123,0
DA:124,0
DA:125,0
DA:127,0
DA:128,0
DA:129,0
DA:130,0
DA:144,1
DA:150,0
DA:151,0
DA:152,0
DA:153,0
DA:154,0
DA:155,0
DA:156,0
DA:157,0
DA:158,0
DA:160,0
DA:161,0
DA:162,0
DA:165,0
DA:166,0
DA:167,0
DA:168,0
DA:169,0
DA:172,0
DA:173,0
DA:174,0
DA:177,0
DA:178,0
DA:179,0
DA:184,0
DA:185,0
DA:186,0
DA:188,0
DA:189,0
DA:190,0
DA:193,0
DA:194,0
DA:196,0
DA:198,0
DA:199,0
DA:200,0
DA:201,0
DA:202,0
DA:203,0
DA:204,0
DA:205,0
DA:209,0
DA:211,0
DA:214,0
DA:215,0
DA:216,0
DA:217,0
DA:218,0
DA:219,0
DA:220,0
DA:221,0
DA:222,0
DA:223,0
DA:224,0
DA:225,0
DA:226,0
DA:227,0
DA:230,0
DA:231,0
DA:232,0
DA:233,0
DA:236,0
DA:237,0
DA:238,0
DA:239,0
DA:240,0
DA:242,0
DA:243,0
DA:244,0
DA:250,0
DA:252,0
DA:254,0
DA:255,0
DA:259,0
DA:262,0
DA:263,0
DA:265,0
DA:266,0
DA:267,0
DA:268,0
DA:270,0
DA:271,0
DA:272,0
DA:281,0
DA:282,0
DA:283,0
DA:285,0
DA:286,0
DA:292,0
DA:293,0
DA:303,1
DA:304,1
DA:305,1
DA:310,0
DA:311,0
DA:312,0
DA:313,0
DA:314,0
DA:315,0
DA:316,0
DA:317,0
DA:318,0
DA:319,0
DA:321,0
DA:322,0
DA:323,0
DA:325,0
DA:326,0
DA:327,0
DA:330,0
DA:333,0
DA:335,2
DA:338,2
DA:339,0
DA:340,0
DA:365,2
DA:370,0
DA:371,0
DA:374,0
DA:375,0
DA:376,0
DA:377,0
DA:378,0
DA:379,0
DA:382,0
DA:383,0
DA:384,0
DA:385,0
DA:386,0
DA:387,0
DA:390,0
DA:392,0
DA:393,0
DA:395,0
DA:398,0
DA:399,0
DA:400,0
DA:401,0
DA:402,0
DA:405,0
DA:406,0
DA:409,0
DA:410,0
DA:411,0
DA:412,0
DA:413,0
DA:414,0
DA:416,0
DA:417,0
DA:418,0
DA:419,0
DA:422,0
DA:423,0
DA:424,0
DA:425,0
DA:426,0
DA:427,0
DA:428,0
DA:429,0
DA:430,0
DA:431,0
DA:432,0
DA:433,0
DA:435,0
DA:437,0
DA:438,0
DA:440,0
DA:443,0
DA:444,0
DA:445,0
DA:446,0
DA:447,0
DA:457,2
DA:458,2
DA:459,2
DA:464,0
DA:465,0
DA:466,0
DA:467,0
DA:468,0
DA:469,0
DA:470,0
DA:471,0
DA:472,0
DA:473,0
DA:474,0
DA:476,0
DA:477,0
DA:478,0
DA:479,0
DA:480,0
DA:482,0
DA:483,0
DA:484,0
DA:485,0
DA:487,0
DA:488,0
DA:489,0
DA:491,0
DA:492,0
DA:493,0
DA:496,0
DA:499,0
DA:501,4
DA:505,1
DA:509,2
DA:613,4
DA:624,2
DA:625,2
DA:626,2
DA:627,2
DA:628,2
DA:629,2
DA:630,2
DA:635,0
DA:636,0
DA:637,0
DA:638,0
DA:639,0
DA:640,0
DA:641,0
DA:642,0
DA:643,0
DA:644,0
DA:646,0
DA:647,0
DA:648,0
DA:651,0
DA:654,0
DA:656,3
DA:668,0
DA:765,15
DA:825,3
DA:831,0
DA:833,0
DA:834,0
DA:835,0
DA:836,0
DA:837,0
DA:838,0
DA:839,0
DA:843,0
DA:845,0
DA:846,0
DA:847,0
DA:848,0
DA:849,0
DA:850,0
DA:851,0
BRF:0
BRH:0
LF:304
LH:37
end_of_record
SF:/workspace/agent-docs/mcp/src/handlers.rs
FN:163,_RNCNCNvMNtCsi7GHPcvMyXT_3mcp8handlersNtB6_10McpHandler14handle_request00B8_
FN:164,_RNCNCNvMNtCsi7GHPcvMyXT_3mcp8handlersNtB6_10McpHandler14handle_request0s_0B8_
FN:187,_RNCNCNvMNtCsi7GHPcvMyXT_3mcp8handlersNtB6_10McpHandler16handle_tool_call00B8_
FN:192,_RNCNCNvMNtCsi7GHPcvMyXT_3mcp8handlersNtB6_10McpHandler16handle_tool_call0s0_0B8_
FN:202,_RNCNCNvMNtCsi7GHPcvMyXT_3mcp8handlersNtB6_10McpHandler16handle_tool_call0s1_0B8_
FN:191,_RNCNCNvMNtCsi7GHPcvMyXT_3mcp8handlersNtB6_10McpHandler16handle_tool_call0s_0B8_
FN:157,_RNCNvMNtCsi7GHPcvMyXT_3mcp8handlersNtB4_10McpHandler14handle_request0B6_
FN:184,_RNCNvMNtCsi7GHPcvMyXT_3mcp8handlersNtB4_10McpHandler16handle_tool_call0B6_
FN:176,_RNCNvMNtCsi7GHPcvMyXT_3mcp8handlersNtB4_10McpHandler17handle_tools_list0B6_
FN:157,_RNvMNtCsi7GHPcvMyXT_3mcp8handlersNtB2_10McpHandler14handle_request
FN:184,_RNvMNtCsi7GHPcvMyXT_3mcp8handlersNtB2_10McpHandler16handle_tool_call
FN:232,_RNvMNtCsi7GHPcvMyXT_3mcp8handlersNtB2_10McpHandler17handle_initialize
FN:175,_RNvMNtCsi7GHPcvMyXT_3mcp8handlersNtB2_10McpHandler17handle_tools_list
FN:64,_RNvMNtCsi7GHPcvMyXT_3mcp8handlersNtB2_10McpHandler22register_dynamic_tools
FN:120,_RNvMNtCsi7GHPcvMyXT_3mcp8handlersNtB2_10McpHandler31register_crate_management_tools
FN:28,_RNvMNtCsi7GHPcvMyXT_3mcp8handlersNtB2_10McpHandler3new
FN:163,_RNCNCNvMNtCshSK2vqEfhA7_3mcp8handlersNtB6_10McpHandler14handle_request00B8_
FN:164,_RNCNCNvMNtCshSK2vqEfhA7_3mcp8handlersNtB6_10McpHandler14handle_request0s_0B8_
FN:187,_RNCNCNvMNtCshSK2vqEfhA7_3mcp8handlersNtB6_10McpHandler16handle_tool_call00B8_
FN:192,_RNCNCNvMNtCshSK2vqEfhA7_3mcp8handlersNtB6_10McpHandler16handle_tool_call0s0_0B8_
FN:202,_RNCNCNvMNtCshSK2vqEfhA7_3mcp8handlersNtB6_10McpHandler16handle_tool_call0s1_0B8_
FN:191,_RNCNCNvMNtCshSK2vqEfhA7_3mcp8handlersNtB6_10McpHandler16handle_tool_call0s_0B8_
FN:157,_RNCNvMNtCshSK2vqEfhA7_3mcp8handlersNtB4_10McpHandler14handle_request0B6_
FN:184,_RNCNvMNtCshSK2vqEfhA7_3mcp8handlersNtB4_10McpHandler16handle_tool_call0B6_
FN:176,_RNCNvMNtCshSK2vqEfhA7_3mcp8handlersNtB4_10McpHandler17handle_tools_list0B6_
FN:157,_RNvMNtCshSK2vqEfhA7_3mcp8handlersNtB2_10McpHandler14handle_request
FN:184,_RNvMNtCshSK2vqEfhA7_3mcp8handlersNtB2_10McpHandler16handle_tool_call
FN:232,_RNvMNtCshSK2vqEfhA7_3mcp8handlersNtB2_10McpHandler17handle_initialize
FN:175,_RNvMNtCshSK2vqEfhA7_3mcp8handlersNtB2_10McpHandler17handle_tools_list
FN:64,_RNvMNtCshSK2vqEfhA7_3mcp8handlersNtB2_10McpHandler22register_dynamic_tools
FN:120,_RNvMNtCshSK2vqEfhA7_3mcp8handlersNtB2_10McpHandler31register_crate_management_tools
FN:28,_RNvMNtCshSK2vqEfhA7_3mcp8handlersNtB2_10McpHandler3new
FNDA:0,_RNCNCNvMNtCsi7GHPcvMyXT_3mcp8handlersNtB6_10McpHandler14handle_request00B8_
FNDA:0,_RNCNCNvMNtCsi7GHPcvMyXT_3mcp8handlersNtB6_10McpHandler14handle_request0s_0B8_
FNDA:0,_RNCNCNvMNtCsi7GHPcvMyXT_3mcp8handlersNtB6_10McpHandler16handle_tool_call00B8_
FNDA:0,_RNCNCNvMNtCsi7GHPcvMyXT_3mcp8handlersNtB6_10McpHandler16handle_tool_call0s0_0B8_
FNDA:0,_RNCNCNvMNtCsi7GHPcvMyXT_3mcp8handlersNtB6_10McpHandler16handle_tool_call0s1_0B8_
FNDA:0,_RNCNCNvMNtCsi7GHPcvMyXT_3mcp8handlersNtB6_10McpHandler16handle_tool_call0s_0B8_
FNDA:0,_RNCNvMNtCsi7GHPcvMyXT_3mcp8handlersNtB4_10McpHandler14handle_request0B6_
FNDA:0,_RNCNvMNtCsi7GHPcvMyXT_3mcp8handlersNtB4_10McpHandler16handle_tool_call0B6_
FNDA:0,_RNCNvMNtCsi7GHPcvMyXT_3mcp8handlersNtB4_10McpHandler17handle_tools_list0B6_
FNDA:0,_RNvMNtCsi7GHPcvMyXT_3mcp8handlersNtB2_10McpHandler14handle_request
FNDA:0,_RNvMNtCsi7GHPcvMyXT_3mcp8handlersNtB2_10McpHandler16handle_tool_call
FNDA:0,_RNvMNtCsi7GHPcvMyXT_3mcp8handlersNtB2_10McpHandler17handle_initialize
FNDA:0,_RNvMNtCsi7GHPcvMyXT_3mcp8handlersNtB2_10McpHandler17handle_tools_list
FNDA:0,_RNvMNtCsi7GHPcvMyXT_3mcp8handlersNtB2_10McpHandler22register_dynamic_tools
FNDA:0,_RNvMNtCsi7GHPcvMyXT_3mcp8handlersNtB2_10McpHandler31register_crate_management_tools
FNDA:0,_RNvMNtCsi7GHPcvMyXT_3mcp8handlersNtB2_10McpHandler3new
FNDA:0,_RNCNCNvMNtCshSK2vqEfhA7_3mcp8handlersNtB6_10McpHandler14handle_request00B8_
FNDA:0,_RNCNCNvMNtCshSK2vqEfhA7_3mcp8handlersNtB6_10McpHandler14handle_request0s_0B8_
FNDA:0,_RNCNCNvMNtCshSK2vqEfhA7_3mcp8handlersNtB6_10McpHandler16handle_tool_call00B8_
FNDA:0,_RNCNCNvMNtCshSK2vqEfhA7_3mcp8handlersNtB6_10McpHandler16handle_tool_call0s0_0B8_
FNDA:0,_RNCNCNvMNtCshSK2vqEfhA7_3mcp8handlersNtB6_10McpHandler16handle_tool_call0s1_0B8_
FNDA:0,_RNCNCNvMNtCshSK2vqEfhA7_3mcp8handlersNtB6_10McpHandler16handle_tool_call0s_0B8_
FNDA:0,_RNCNvMNtCshSK2vqEfhA7_3mcp8handlersNtB4_10McpHandler14handle_request0B6_
FNDA:0,_RNCNvMNtCshSK2vqEfhA7_3mcp8handlersNtB4_10McpHandler16handle_tool_call0B6_
FNDA:0,_RNCNvMNtCshSK2vqEfhA7_3mcp8handlersNtB4_10McpHandler17handle_tools_list0B6_
FNDA:0,_RNvMNtCshSK2vqEfhA7_3mcp8handlersNtB2_10McpHandler14handle_request
FNDA:0,_RNvMNtCshSK2vqEfhA7_3mcp8handlersNtB2_10McpHandler16handle_tool_call
FNDA:0,_RNvMNtCshSK2vqEfhA7_3mcp8handlersNtB2_10McpHandler17handle_initialize
FNDA:0,_RNvMNtCshSK2vqEfhA7_3mcp8handlersNtB2_10McpHandler17handle_tools_list
FNDA:0,_RNvMNtCshSK2vqEfhA7_3mcp8handlersNtB2_10McpHandler22register_dynamic_tools
FNDA:0,_RNvMNtCshSK2vqEfhA7_3mcp8handlersNtB2_10McpHandler31register_crate_management_tools
FNDA:0,_RNvMNtCshSK2vqEfhA7_3mcp8handlersNtB2_10McpHandler3new
FNF:16
FNH:0
DA:28,0
DA:29,0
DA:32,0
DA:33,0
DA:34,0
DA:37,0
DA:40,0
DA:41,0
DA:42,0
DA:43,0
DA:47,0
DA:48,0
DA:49,0
DA:55,0
DA:56,0
DA:57,0
DA:64,0
DA:65,0
DA:66,0
DA:67,0
DA:69,0
DA:70,0
DA:71,0
DA:73,0
DA:74,0
DA:77,0
DA:78,0
DA:80,0
DA:82,0
DA:83,0
DA:84,0
DA:85,0
DA:88,0
DA:89,0
DA:90,0
DA:91,0
DA:94,0
DA:95,0
DA:96,0
DA:97,0
DA:100,0
DA:101,0
DA:103,0
DA:104,0
DA:105,0
DA:112,0
DA:113,0
DA:120,0
DA:121,0
DA:122,0
DA:123,0
DA:125,0
DA:126,0
DA:129,0
DA:130,0
DA:131,0
DA:134,0
DA:135,0
DA:136,0
DA:139,0
DA:140,0
DA:141,0
DA:144,0
DA:145,0
DA:146,0
DA:148,0
DA:149,0
DA:150,0
DA:157,0
DA:158,0
DA:161,0
DA:162,0
DA:163,0
DA:164,0
DA:166,0
DA:167,0
DA:168,0
DA:169,0
DA:170,0
DA:172,0
DA:175,0
DA:176,0
DA:178,0
DA:179,0
DA:181,0
DA:184,0
DA:185,0
DA:186,0
DA:187,0
DA:189,0
DA:190,0
DA:191,0
DA:192,0
DA:194,0
DA:195,0
DA:197,0
DA:199,0
DA:200,0
DA:201,0
DA:202,0
DA:204,0
DA:205,0
DA:206,0
DA:207,0
DA:208,0
DA:209,0
DA:210,0
DA:211,0
DA:212,0
DA:213,0
DA:214,0
DA:215,0
DA:216,0
DA:217,0
DA:218,0
DA:219,0
DA:220,0
DA:221,0
DA:222,0
DA:223,0
DA:226,0
DA:232,0
DA:233,0
DA:235,0
DA:236,0
DA:237,0
DA:240,0
DA:241,0
DA:242,0
DA:243,0
DA:245,0
DA:246,0
DA:247,0
DA:250,0
BRF:0
BRH:0
LF:143
LH:0
end_of_record
SF:/workspace/agent-docs/mcp/src/headers.rs
FN:101,_RNCNCNvXININtCsi7GHPcvMyXT_3mcp7headerss6_0pENtB9_24McpProtocolVersionHeaderINtNtCsl3nYzWiYlSC_9axum_core7extract16FromRequestPartspE18from_request_parts00Bb_
FN:94,_RNvXININtCsi7GHPcvMyXT_3mcp7headerss6_0pENtB5_24McpProtocolVersionHeaderINtNtCsl3nYzWiYlSC_9axum_core7extract16FromRequestPartspE18from_request_partsB7_
FN:223,_RNvXININtCsi7GHPcvMyXT_3mcp7headerssf_0pENtB5_20ContentTypeValidatorINtNtCsl3nYzWiYlSC_9axum_core7extract16FromRequestPartspE18from_request_partsB7_
FN:274,_RNvXININtCsi7GHPcvMyXT_3mcp7headerssi_0pENtB5_21AcceptHeaderValidatorINtNtCsl3nYzWiYlSC_9axum_core7extract16FromRequestPartspE18from_request_partsB7_
FN:396,_RNvNtCsi7GHPcvMyXT_3mcp7headers18extract_session_id
FN:358,_RNvNtCsi7GHPcvMyXT_3mcp7headers20set_standard_headers
FN:384,_RNvNtCsi7GHPcvMyXT_3mcp7headers24set_sse_response_headers
FN:374,_RNvNtCsi7GHPcvMyXT_3mcp7headers25set_json_response_headers
FN:330,_RNvNtCsi7GHPcvMyXT_3mcp7headers25validate_protocol_version
FN:43,_RNvXNtCsi7GHPcvMyXT_3mcp7headersNtB2_20ProtocolVersionErrorNtNtNtCsl3nYzWiYlSC_9axum_core8response13into_response12IntoResponse13into_response
FN:178,_RNvXs0_NtCsi7GHPcvMyXT_3mcp7headersNtB5_17AcceptHeaderErrorNtNtNtCsl3nYzWiYlSC_9axum_core8response13into_response12IntoResponse13into_response
FN:147,_RNvXs_NtCsi7GHPcvMyXT_3mcp7headersNtB4_16ContentTypeErrorNtNtNtCsl3nYzWiYlSC_9axum_core8response13into_response12IntoResponse13into_response
FN:401,_RNCNvNtCsi7GHPcvMyXT_3mcp7headers18extract_session_id0B5_
FN:403,_RNCNvNtCsi7GHPcvMyXT_3mcp7headers18extract_session_ids_0B5_
FN:335,_RNCNvNtCsi7GHPcvMyXT_3mcp7headers25validate_protocol_version0B5_
FN:339,_RNCNvNtCsi7GHPcvMyXT_3mcp7headers25validate_protocol_versions_0B5_
FN:101,_RNCNCNvXININtCshSK2vqEfhA7_3mcp7headerss6_0pENtB9_24McpProtocolVersionHeaderINtNtCsl3nYzWiYlSC_9axum_core7extract16FromRequestPartspE18from_request_parts00Bb_
FN:401,_RNCNvNtCshSK2vqEfhA7_3mcp7headers18extract_session_id0B5_
FN:403,_RNCNvNtCshSK2vqEfhA7_3mcp7headers18extract_session_ids_0B5_
FN:335,_RNCNvNtCshSK2vqEfhA7_3mcp7headers25validate_protocol_version0B5_
FN:339,_RNCNvNtCshSK2vqEfhA7_3mcp7headers25validate_protocol_versions_0B5_
FN:396,_RNvNtCshSK2vqEfhA7_3mcp7headers18extract_session_id
FN:358,_RNvNtCshSK2vqEfhA7_3mcp7headers20set_standard_headers
FN:384,_RNvNtCshSK2vqEfhA7_3mcp7headers24set_sse_response_headers
FN:374,_RNvNtCshSK2vqEfhA7_3mcp7headers25set_json_response_headers
FN:330,_RNvNtCshSK2vqEfhA7_3mcp7headers25validate_protocol_version
FN:94,_RNvXININtCshSK2vqEfhA7_3mcp7headerss6_0pENtB5_24McpProtocolVersionHeaderINtNtCsl3nYzWiYlSC_9axum_core7extract16FromRequestPartspE18from_request_partsB7_
FN:223,_RNvXININtCshSK2vqEfhA7_3mcp7headerssf_0pENtB5_20ContentTypeValidatorINtNtCsl3nYzWiYlSC_9axum_core7extract16FromRequestPartspE18from_request_partsB7_
FN:274,_RNvXININtCshSK2vqEfhA7_3mcp7headerssi_0pENtB5_21AcceptHeaderValidatorINtNtCsl3nYzWiYlSC_9axum_core7extract16FromRequestPartspE18from_request_partsB7_
FN:43,_RNvXNtCshSK2vqEfhA7_3mcp7headersNtB2_20ProtocolVersionErrorNtNtNtCsl3nYzWiYlSC_9axum_core8response13into_response12IntoResponse13into_response
FN:178,_RNvXs0_NtCshSK2vqEfhA7_3mcp7headersNtB5_17AcceptHeaderErrorNtNtNtCsl3nYzWiYlSC_9axum_core8response13into_response12IntoResponse13into_response
FN:147,_RNvXs_NtCshSK2vqEfhA7_3mcp7headersNtB4_16ContentTypeErrorNtNtNtCsl3nYzWiYlSC_9axum_core8response13into_response12IntoResponse13into_response
FN:101,_RNCNCNvXs6_NtCsi7GHPcvMyXT_3mcp7headersNtB9_24McpProtocolVersionHeaderINtNtCsl3nYzWiYlSC_9axum_core7extract16FromRequestPartsuE18from_request_parts00CsanCUBpZVPCt_33protocol_version_integration_test
FN:94,_RNvXs6_NtCsi7GHPcvMyXT_3mcp7headersNtB5_24McpProtocolVersionHeaderINtNtCsl3nYzWiYlSC_9axum_core7extract16FromRequestPartsuE18from_request_partsCsanCUBpZVPCt_33protocol_version_integration_test
FN:101,_RNCNCNvXs6_NtCsi7GHPcvMyXT_3mcp7headersNtB9_24McpProtocolVersionHeaderINtNtCsl3nYzWiYlSC_9axum_core7extract16FromRequestPartsuE18from_request_parts00Cs1uNnPcV1XW3_22protocol_version_tests
FN:94,_RNvXs6_NtCsi7GHPcvMyXT_3mcp7headersNtB5_24McpProtocolVersionHeaderINtNtCsl3nYzWiYlSC_9axum_core7extract16FromRequestPartsuE18from_request_partsCs1uNnPcV1XW3_22protocol_version_tests
FN:223,_RNvXsf_NtCsi7GHPcvMyXT_3mcp7headersNtB5_20ContentTypeValidatorINtNtCsl3nYzWiYlSC_9axum_core7extract16FromRequestPartsuE18from_request_partsCs1uNnPcV1XW3_22protocol_version_tests
FN:274,_RNvXsi_NtCsi7GHPcvMyXT_3mcp7headersNtB5_21AcceptHeaderValidatorINtNtCsl3nYzWiYlSC_9axum_core7extract16FromRequestPartsuE18from_request_partsCs1uNnPcV1XW3_22protocol_version_tests
FNDA:0,_RNCNCNvXININtCsi7GHPcvMyXT_3mcp7headerss6_0pENtB9_24McpProtocolVersionHeaderINtNtCsl3nYzWiYlSC_9axum_core7extract16FromRequestPartspE18from_request_parts00Bb_
FNDA:0,_RNvXININtCsi7GHPcvMyXT_3mcp7headerss6_0pENtB5_24McpProtocolVersionHeaderINtNtCsl3nYzWiYlSC_9axum_core7extract16FromRequestPartspE18from_request_partsB7_
FNDA:0,_RNvXININtCsi7GHPcvMyXT_3mcp7headerssf_0pENtB5_20ContentTypeValidatorINtNtCsl3nYzWiYlSC_9axum_core7extract16FromRequestPartspE18from_request_partsB7_
FNDA:0,_RNvXININtCsi7GHPcvMyXT_3mcp7headerssi_0pENtB5_21AcceptHeaderValidatorINtNtCsl3nYzWiYlSC_9axum_core7extract16FromRequestPartspE18from_request_partsB7_
FNDA:3,_RNvNtCsi7GHPcvMyXT_3mcp7headers18extract_session_id
FNDA:38,_RNvNtCsi7GHPcvMyXT_3mcp7headers20set_standard_headers
FNDA:0,_RNvNtCsi7GHPcvMyXT_3mcp7headers24set_sse_response_headers
FNDA:20,_RNvNtCsi7GHPcvMyXT_3mcp7headers25set_json_response_headers
FNDA:27,_RNvNtCsi7GHPcvMyXT_3mcp7headers25validate_protocol_version
FNDA:2,_RNvXNtCsi7GHPcvMyXT_3mcp7headersNtB2_20ProtocolVersionErrorNtNtNtCsl3nYzWiYlSC_9axum_core8response13into_response12IntoResponse13into_response
FNDA:0,_RNvXs0_NtCsi7GHPcvMyXT_3mcp7headersNtB5_17AcceptHeaderErrorNtNtNtCsl3nYzWiYlSC_9axum_core8response13into_response12IntoResponse13into_response
FNDA:0,_RNvXs_NtCsi7GHPcvMyXT_3mcp7headersNtB4_16ContentTypeErrorNtNtNtCsl3nYzWiYlSC_9axum_core8response13into_response12IntoResponse13into_response
FNDA:0,_RNCNvNtCsi7GHPcvMyXT_3mcp7headers18extract_session_id0B5_
FNDA:1,_RNCNvNtCsi7GHPcvMyXT_3mcp7headers18extract_session_ids_0B5_
FNDA:0,_RNCNvNtCsi7GHPcvMyXT_3mcp7headers25validate_protocol_version0B5_
FNDA:22,_RNCNvNtCsi7GHPcvMyXT_3mcp7headers25validate_protocol_versions_0B5_
FNDA:0,_RNCNCNvXININtCshSK2vqEfhA7_3mcp7headerss6_0pENtB9_24McpProtocolVersionHeaderINtNtCsl3nYzWiYlSC_9axum_core7extract16FromRequestPartspE18from_request_parts00Bb_
FNDA:0,_RNCNvNtCshSK2vqEfhA7_3mcp7headers18extract_session_id0B5_
FNDA:0,_RNCNvNtCshSK2vqEfhA7_3mcp7headers18extract_session_ids_0B5_
FNDA:0,_RNCNvNtCshSK2vqEfhA7_3mcp7headers25validate_protocol_version0B5_
FNDA:0,_RNCNvNtCshSK2vqEfhA7_3mcp7headers25validate_protocol_versions_0B5_
FNDA:0,_RNvNtCshSK2vqEfhA7_3mcp7headers18extract_session_id
FNDA:0,_RNvNtCshSK2vqEfhA7_3mcp7headers20set_standard_headers
FNDA:0,_RNvNtCshSK2vqEfhA7_3mcp7headers24set_sse_response_headers
FNDA:0,_RNvNtCshSK2vqEfhA7_3mcp7headers25set_json_response_headers
FNDA:0,_RNvNtCshSK2vqEfhA7_3mcp7headers25validate_protocol_version
FNDA:0,_RNvXININtCshSK2vqEfhA7_3mcp7headerss6_0pENtB5_24McpProtocolVersionHeaderINtNtCsl3nYzWiYlSC_9axum_core7extract16FromRequestPartspE18from_request_partsB7_
FNDA:0,_RNvXININtCshSK2vqEfhA7_3mcp7headerssf_0pENtB5_20ContentTypeValidatorINtNtCsl3nYzWiYlSC_9axum_core7extract16FromRequestPartspE18from_request_partsB7_
FNDA:0,_RNvXININtCshSK2vqEfhA7_3mcp7headerssi_0pENtB5_21AcceptHeaderValidatorINtNtCsl3nYzWiYlSC_9axum_core7extract16FromRequestPartspE18from_request_partsB7_
FNDA:0,_RNvXNtCshSK2vqEfhA7_3mcp7headersNtB2_20ProtocolVersionErrorNtNtNtCsl3nYzWiYlSC_9axum_core8response13into_response12IntoResponse13into_response
FNDA:0,_RNvXs0_NtCshSK2vqEfhA7_3mcp7headersNtB5_17AcceptHeaderErrorNtNtNtCsl3nYzWiYlSC_9axum_core8response13into_response12IntoResponse13into_response
FNDA:0,_RNvXs_NtCshSK2vqEfhA7_3mcp7headersNtB4_16ContentTypeErrorNtNtNtCsl3nYzWiYlSC_9axum_core8response13into_response12IntoResponse13into_response
FNDA:0,_RNCNCNvXs6_NtCsi7GHPcvMyXT_3mcp7headersNtB9_24McpProtocolVersionHeaderINtNtCsl3nYzWiYlSC_9axum_core7extract16FromRequestPartsuE18from_request_parts00CsanCUBpZVPCt_33protocol_version_integration_test
FNDA:2,_RNvXs6_NtCsi7GHPcvMyXT_3mcp7headersNtB5_24McpProtocolVersionHeaderINtNtCsl3nYzWiYlSC_9axum_core7extract16FromRequestPartsuE18from_request_partsCsanCUBpZVPCt_33protocol_version_integration_test
FNDA:0,_RNCNCNvXs6_NtCsi7GHPcvMyXT_3mcp7headersNtB9_24McpProtocolVersionHeaderINtNtCsl3nYzWiYlSC_9axum_core7extract16FromRequestPartsuE18from_request_parts00Cs1uNnPcV1XW3_22protocol_version_tests
FNDA:3,_RNvXs6_NtCsi7GHPcvMyXT_3mcp7headersNtB5_24McpProtocolVersionHeaderINtNtCsl3nYzWiYlSC_9axum_core7extract16FromRequestPartsuE18from_request_partsCs1uNnPcV1XW3_22protocol_version_tests
FNDA:4,_RNvXsf_NtCsi7GHPcvMyXT_3mcp7headersNtB5_20ContentTypeValidatorINtNtCsl3nYzWiYlSC_9axum_core7extract16FromRequestPartsuE18from_request_partsCs1uNnPcV1XW3_22protocol_version_tests
FNDA:7,_RNvXsi_NtCsi7GHPcvMyXT_3mcp7headersNtB5_21AcceptHeaderValidatorINtNtCsl3nYzWiYlSC_9axum_core7extract16FromRequestPartsuE18from_request_partsCs1uNnPcV1XW3_22protocol_version_tests
FNF:16
FNH:10
DA:43,2
DA:44,2
DA:45,0
DA:46,0
DA:47,0
DA:48,0
DA:49,0
DA:50,0
DA:51,0
DA:52,0
DA:54,2
DA:58,2
DA:59,2
DA:60,2
DA:61,2
DA:62,2
DA:66,2
DA:67,2
DA:68,2
DA:70,2
DA:71,2
DA:94,5
DA:101,0
DA:102,0
DA:103,0
DA:123,5
DA:147,0
DA:148,0
DA:150,0
DA:153,0
DA:155,0
DA:156,0
DA:157,0
DA:158,0
DA:161,0
DA:162,0
DA:163,0
DA:164,0
DA:165,0
DA:169,0
DA:170,0
DA:171,0
DA:173,0
DA:174,0
DA:178,0
DA:179,0
DA:181,0
DA:184,0
DA:188,0
DA:189,0
DA:190,0
DA:191,0
DA:192,0
DA:196,0
DA:197,0
DA:198,0
DA:200,0
DA:201,0
DA:223,4
DA:252,4
DA:274,7
DA:318,7
DA:330,27
DA:331,27
DA:333,27
DA:334,22
DA:335,0
DA:336,0
DA:337,0
DA:338,0
DA:339,22
DA:340,22
DA:341,17
DA:343,5
DA:344,5
DA:346,22
DA:349,5
DA:350,5
DA:352,27
DA:358,38
DA:359,38
DA:361,38
DA:363,38
DA:364,12
DA:365,12
DA:366,12
DA:367,26
DA:368,38
DA:374,20
DA:375,20
DA:376,20
DA:377,20
DA:384,0
DA:385,0
DA:386,0
DA:387,0
DA:388,0
DA:389,0
DA:396,3
DA:397,3
DA:398,2
DA:399,2
DA:400,2
DA:401,2
DA:402,2
DA:403,2
DA:404,1
DA:406,1
DA:408,3
BRF:0
BRH:0
LF:111
LH:57
end_of_record
SF:/workspace/agent-docs/mcp/src/health.rs
FN:97,_RNCNvNtCsi7GHPcvMyXT_3mcp6health12health_check0B5_
FN:201,_RNCNvNtCsi7GHPcvMyXT_3mcp6health14liveness_check0B5_
FN:116,_RNCNvNtCsi7GHPcvMyXT_3mcp6health15readiness_check0B5_
FN:286,_RNCNvNtCsi7GHPcvMyXT_3mcp6health17build_pool_health0B5_
FN:79,_RNCNvNtCsi7GHPcvMyXT_3mcp6health18get_uptime_seconds0B5_
FN:248,_RNCNvNtCsi7GHPcvMyXT_3mcp6health21build_database_health0B5_
FN:216,_RNCNvNtCsi7GHPcvMyXT_3mcp6health21detailed_health_check0B5_
FN:95,_RNvNtCsi7GHPcvMyXT_3mcp6health12health_check
FN:201,_RNvNtCsi7GHPcvMyXT_3mcp6health14liveness_check
FN:337,_RNvNtCsi7GHPcvMyXT_3mcp6health15elevate_overall
FN:114,_RNvNtCsi7GHPcvMyXT_3mcp6health15readiness_check
FN:286,_RNvNtCsi7GHPcvMyXT_3mcp6health17build_pool_health
FN:76,_RNvNtCsi7GHPcvMyXT_3mcp6health18get_uptime_seconds
FN:83,_RNvNtCsi7GHPcvMyXT_3mcp6health20create_health_router
FN:248,_RNvNtCsi7GHPcvMyXT_3mcp6health21build_database_health
FN:214,_RNvNtCsi7GHPcvMyXT_3mcp6health21detailed_health_check
FN:71,_RNvNtCsi7GHPcvMyXT_3mcp6health23init_service_start_time
FN:325,_RNvNtCsi7GHPcvMyXT_3mcp6health28build_session_manager_health
FN:348,_RNvNtCsi7GHPcvMyXT_3mcp6health28determine_pool_health_status
FN:348,_RNvNtCshSK2vqEfhA7_3mcp6health28determine_pool_health_status
FN:97,_RNCNvNtCshSK2vqEfhA7_3mcp6health12health_check0B5_
FN:201,_RNCNvNtCshSK2vqEfhA7_3mcp6health14liveness_check0B5_
FN:116,_RNCNvNtCshSK2vqEfhA7_3mcp6health15readiness_check0B5_
FN:286,_RNCNvNtCshSK2vqEfhA7_3mcp6health17build_pool_health0B5_
FN:79,_RNCNvNtCshSK2vqEfhA7_3mcp6health18get_uptime_seconds0B5_
FN:248,_RNCNvNtCshSK2vqEfhA7_3mcp6health21build_database_health0B5_
FN:216,_RNCNvNtCshSK2vqEfhA7_3mcp6health21detailed_health_check0B5_
FN:95,_RNvNtCshSK2vqEfhA7_3mcp6health12health_check
FN:201,_RNvNtCshSK2vqEfhA7_3mcp6health14liveness_check
FN:337,_RNvNtCshSK2vqEfhA7_3mcp6health15elevate_overall
FN:114,_RNvNtCshSK2vqEfhA7_3mcp6health15readiness_check
FN:286,_RNvNtCshSK2vqEfhA7_3mcp6health17build_pool_health
FN:76,_RNvNtCshSK2vqEfhA7_3mcp6health18get_uptime_seconds
FN:83,_RNvNtCshSK2vqEfhA7_3mcp6health20create_health_router
FN:248,_RNvNtCshSK2vqEfhA7_3mcp6health21build_database_health
FN:214,_RNvNtCshSK2vqEfhA7_3mcp6health21detailed_health_check
FN:71,_RNvNtCshSK2vqEfhA7_3mcp6health23init_service_start_time
FN:325,_RNvNtCshSK2vqEfhA7_3mcp6health28build_session_manager_health
FN:383,_RNvNtNtCshSK2vqEfhA7_3mcp6health5testss_30test_pool_health_determination
FNDA:0,_RNCNvNtCsi7GHPcvMyXT_3mcp6health12health_check0B5_
FNDA:0,_RNCNvNtCsi7GHPcvMyXT_3mcp6health14liveness_check0B5_
FNDA:0,_RNCNvNtCsi7GHPcvMyXT_3mcp6health15readiness_check0B5_
FNDA:0,_RNCNvNtCsi7GHPcvMyXT_3mcp6health17build_pool_health0B5_
FNDA:0,_RNCNvNtCsi7GHPcvMyXT_3mcp6health18get_uptime_seconds0B5_
FNDA:0,_RNCNvNtCsi7GHPcvMyXT_3mcp6health21build_database_health0B5_
FNDA:0,_RNCNvNtCsi7GHPcvMyXT_3mcp6health21detailed_health_check0B5_
FNDA:0,_RNvNtCsi7GHPcvMyXT_3mcp6health12health_check
FNDA:0,_RNvNtCsi7GHPcvMyXT_3mcp6health14liveness_check
FNDA:0,_RNvNtCsi7GHPcvMyXT_3mcp6health15elevate_overall
FNDA:0,_RNvNtCsi7GHPcvMyXT_3mcp6health15readiness_check
FNDA:0,_RNvNtCsi7GHPcvMyXT_3mcp6health17build_pool_health
FNDA:0,_RNvNtCsi7GHPcvMyXT_3mcp6health18get_uptime_seconds
FNDA:0,_RNvNtCsi7GHPcvMyXT_3mcp6health20create_health_router
FNDA:0,_RNvNtCsi7GHPcvMyXT_3mcp6health21build_database_health
FNDA:0,_RNvNtCsi7GHPcvMyXT_3mcp6health21detailed_health_check
FNDA:0,_RNvNtCsi7GHPcvMyXT_3mcp6health23init_service_start_time
FNDA:0,_RNvNtCsi7GHPcvMyXT_3mcp6health28build_session_manager_health
FNDA:0,_RNvNtCsi7GHPcvMyXT_3mcp6health28determine_pool_health_status
FNDA:5,_RNvNtCshSK2vqEfhA7_3mcp6health28determine_pool_health_status
FNDA:0,_RNCNvNtCshSK2vqEfhA7_3mcp6health12health_check0B5_
FNDA:0,_RNCNvNtCshSK2vqEfhA7_3mcp6health14liveness_check0B5_
FNDA:0,_RNCNvNtCshSK2vqEfhA7_3mcp6health15readiness_check0B5_
FNDA:0,_RNCNvNtCshSK2vqEfhA7_3mcp6health17build_pool_health0B5_
FNDA:0,_RNCNvNtCshSK2vqEfhA7_3mcp6health18get_uptime_seconds0B5_
FNDA:0,_RNCNvNtCshSK2vqEfhA7_3mcp6health21build_database_health0B5_
FNDA:0,_RNCNvNtCshSK2vqEfhA7_3mcp6health21detailed_health_check0B5_
FNDA:0,_RNvNtCshSK2vqEfhA7_3mcp6health12health_check
FNDA:0,_RNvNtCshSK2vqEfhA7_3mcp6health14liveness_check
FNDA:0,_RNvNtCshSK2vqEfhA7_3mcp6health15elevate_overall
FNDA:0,_RNvNtCshSK2vqEfhA7_3mcp6health15readiness_check
FNDA:0,_RNvNtCshSK2vqEfhA7_3mcp6health17build_pool_health
FNDA:0,_RNvNtCshSK2vqEfhA7_3mcp6health18get_uptime_seconds
FNDA:0,_RNvNtCshSK2vqEfhA7_3mcp6health20create_health_router
FNDA:0,_RNvNtCshSK2vqEfhA7_3mcp6health21build_database_health
FNDA:0,_RNvNtCshSK2vqEfhA7_3mcp6health21detailed_health_check
FNDA:0,_RNvNtCshSK2vqEfhA7_3mcp6health23init_service_start_time
FNDA:0,_RNvNtCshSK2vqEfhA7_3mcp6health28build_session_manager_health
FNDA:1,_RNvNtNtCshSK2vqEfhA7_3mcp6health5testss_30test_pool_health_determination
FNF:20
FNH:2
DA:71,0
DA:72,0
DA:73,0
DA:76,0
DA:77,0
DA:78,0
DA:79,0
DA:80,0
DA:83,0
DA:84,0
DA:85,0
DA:86,0
DA:87,0
DA:88,0
DA:89,0
DA:95,0
DA:96,0
DA:97,0
DA:99,0
DA:100,0
DA:101,0
DA:102,0
DA:103,0
DA:104,0
DA:105,0
DA:106,0
DA:108,0
DA:114,0
DA:115,0
DA:116,0
DA:117,0
DA:118,0
DA:121,0
DA:122,0
DA:123,0
DA:125,0
DA:127,0
DA:128,0
DA:129,0
DA:130,0
DA:131,0
DA:132,0
DA:133,0
DA:134,0
DA:135,0
DA:137,0
DA:138,0
DA:139,0
DA:140,0
DA:141,0
DA:142,0
DA:144,0
DA:147,0
DA:148,0
DA:149,0
DA:150,0
DA:151,0
DA:152,0
DA:153,0
DA:155,0
DA:156,0
DA:157,0
DA:158,0
DA:160,0
DA:161,0
DA:162,0
DA:163,0
DA:167,0
DA:168,0
DA:169,0
DA:170,0
DA:171,0
DA:172,0
DA:173,0
DA:176,0
DA:178,0
DA:179,0
DA:180,0
DA:181,0
DA:183,0
DA:185,0
DA:188,0
DA:189,0
DA:191,0
DA:194,0
DA:195,0
DA:201,0
DA:202,0
DA:203,0
DA:204,0
DA:205,0
DA:206,0
DA:207,0
DA:214,0
DA:215,0
DA:216,0
DA:217,0
DA:218,0
DA:220,0
DA:221,0
DA:222,0
DA:224,0
DA:225,0
DA:226,0
DA:228,0
DA:229,0
DA:231,0
DA:232,0
DA:233,0
DA:234,0
DA:235,0
DA:236,0
DA:237,0
DA:238,0
DA:240,0
DA:241,0
DA:242,0
DA:245,0
DA:246,0
DA:248,0
DA:249,0
DA:250,0
DA:251,0
DA:252,0
DA:253,0
DA:255,0
DA:257,0
DA:258,0
DA:259,0
DA:260,0
DA:261,0
DA:262,0
DA:263,0
DA:264,0
DA:265,0
DA:266,0
DA:267,0
DA:268,0
DA:269,0
DA:270,0
DA:271,0
DA:273,0
DA:274,0
DA:275,0
DA:276,0
DA:277,0
DA:278,0
DA:279,0
DA:280,0
DA:281,0
DA:282,0
DA:284,0
DA:286,0
DA:287,0
DA:288,0
DA:289,0
DA:290,0
DA:291,0
DA:292,0
DA:293,0
DA:294,0
DA:295,0
DA:296,0
DA:297,0
DA:298,0
DA:299,0
DA:300,0
DA:301,0
DA:302,0
DA:303,0
DA:304,0
DA:305,0
DA:306,0
DA:307,0
DA:308,0
DA:309,0
DA:310,0
DA:312,0
DA:313,0
DA:314,0
DA:315,0
DA:316,0
DA:317,0
DA:318,0
DA:319,0
DA:320,0
DA:321,0
DA:323,0
DA:325,0
DA:326,0
DA:327,0
DA:328,0
DA:329,0
DA:330,0
DA:331,0
DA:332,0
DA:333,0
DA:334,0
DA:335,0
DA:337,0
DA:338,0
DA:339,0
DA:340,0
DA:341,0
DA:343,0
DA:345,0
DA:348,5
DA:350,5
DA:351,1
DA:352,4
DA:354,4
DA:355,1
DA:356,3
DA:358,3
DA:359,1
DA:360,2
DA:363,2
DA:364,1
DA:365,1
DA:367,1
DA:368,0
DA:369,1
DA:371,1
DA:372,0
DA:373,1
DA:375,1
DA:376,5
DA:383,1
DA:384,1
DA:385,1
DA:386,1
DA:387,1
DA:388,1
DA:389,1
DA:390,1
DA:391,1
DA:392,1
DA:393,1
DA:394,1
DA:395,1
DA:396,1
DA:397,1
DA:398,1
DA:399,1
DA:400,1
DA:401,1
DA:402,1
DA:403,1
DA:404,1
DA:407,1
DA:408,1
DA:413,1
DA:414,1
DA:415,1
DA:420,1
DA:421,1
DA:422,1
DA:427,1
DA:428,1
DA:429,1
DA:430,1
DA:435,1
DA:436,1
DA:437,1
DA:438,1
DA:441,1
BRF:0
BRH:0
LF:273
LH:58
end_of_record
SF:/workspace/agent-docs/mcp/src/job_queue.rs
FN:75,_RNCNvMNtCsi7GHPcvMyXT_3mcp9job_queueNtB4_17CrateJobProcessor16cleanup_old_jobs0B6_
FN:50,_RNvMNtCsi7GHPcvMyXT_3mcp9job_queueNtB2_17CrateJobProcessor14get_job_status
FN:75,_RNvMNtCsi7GHPcvMyXT_3mcp9job_queueNtB2_17CrateJobProcessor16cleanup_old_jobs
FN:59,_RNvMNtCsi7GHPcvMyXT_3mcp9job_queueNtB2_17CrateJobProcessor17update_job_status
FN:38,_RNvMNtCsi7GHPcvMyXT_3mcp9job_queueNtB2_17CrateJobProcessor21enqueue_add_crate_job
FN:24,_RNvMNtCsi7GHPcvMyXT_3mcp9job_queueNtB2_17CrateJobProcessor3new
FN:29,_RNvMNtCsi7GHPcvMyXT_3mcp9job_queueNtB2_17CrateJobProcessor7db_pool
FN:50,_RNCNvMNtCsi7GHPcvMyXT_3mcp9job_queueNtB4_17CrateJobProcessor14get_job_status0B6_
FN:65,_RNCNvMNtCsi7GHPcvMyXT_3mcp9job_queueNtB4_17CrateJobProcessor17update_job_status0B6_
FN:38,_RNCNvMNtCsi7GHPcvMyXT_3mcp9job_queueNtB4_17CrateJobProcessor21enqueue_add_crate_job0B6_
FN:50,_RNCNvMNtCshSK2vqEfhA7_3mcp9job_queueNtB4_17CrateJobProcessor14get_job_status0B6_
FN:75,_RNCNvMNtCshSK2vqEfhA7_3mcp9job_queueNtB4_17CrateJobProcessor16cleanup_old_jobs0B6_
FN:65,_RNCNvMNtCshSK2vqEfhA7_3mcp9job_queueNtB4_17CrateJobProcessor17update_job_status0B6_
FN:38,_RNCNvMNtCshSK2vqEfhA7_3mcp9job_queueNtB4_17CrateJobProcessor21enqueue_add_crate_job0B6_
FN:50,_RNvMNtCshSK2vqEfhA7_3mcp9job_queueNtB2_17CrateJobProcessor14get_job_status
FN:75,_RNvMNtCshSK2vqEfhA7_3mcp9job_queueNtB2_17CrateJobProcessor16cleanup_old_jobs
FN:59,_RNvMNtCshSK2vqEfhA7_3mcp9job_queueNtB2_17CrateJobProcessor17update_job_status
FN:38,_RNvMNtCshSK2vqEfhA7_3mcp9job_queueNtB2_17CrateJobProcessor21enqueue_add_crate_job
FN:24,_RNvMNtCshSK2vqEfhA7_3mcp9job_queueNtB2_17CrateJobProcessor3new
FN:29,_RNvMNtCshSK2vqEfhA7_3mcp9job_queueNtB2_17CrateJobProcessor7db_pool
FNDA:0,_RNCNvMNtCsi7GHPcvMyXT_3mcp9job_queueNtB4_17CrateJobProcessor16cleanup_old_jobs0B6_
FNDA:1,_RNvMNtCsi7GHPcvMyXT_3mcp9job_queueNtB2_17CrateJobProcessor14get_job_status
FNDA:0,_RNvMNtCsi7GHPcvMyXT_3mcp9job_queueNtB2_17CrateJobProcessor16cleanup_old_jobs
FNDA:0,_RNvMNtCsi7GHPcvMyXT_3mcp9job_queueNtB2_17CrateJobProcessor17update_job_status
FNDA:1,_RNvMNtCsi7GHPcvMyXT_3mcp9job_queueNtB2_17CrateJobProcessor21enqueue_add_crate_job
FNDA:3,_RNvMNtCsi7GHPcvMyXT_3mcp9job_queueNtB2_17CrateJobProcessor3new
FNDA:0,_RNvMNtCsi7GHPcvMyXT_3mcp9job_queueNtB2_17CrateJobProcessor7db_pool
FNDA:1,_RNCNvMNtCsi7GHPcvMyXT_3mcp9job_queueNtB4_17CrateJobProcessor14get_job_status0B6_
FNDA:0,_RNCNvMNtCsi7GHPcvMyXT_3mcp9job_queueNtB4_17CrateJobProcessor17update_job_status0B6_
FNDA:1,_RNCNvMNtCsi7GHPcvMyXT_3mcp9job_queueNtB4_17CrateJobProcessor21enqueue_add_crate_job0B6_
FNDA:0,_RNCNvMNtCshSK2vqEfhA7_3mcp9job_queueNtB4_17CrateJobProcessor14get_job_status0B6_
FNDA:0,_RNCNvMNtCshSK2vqEfhA7_3mcp9job_queueNtB4_17CrateJobProcessor16cleanup_old_jobs0B6_
FNDA:0,_RNCNvMNtCshSK2vqEfhA7_3mcp9job_queueNtB4_17CrateJobProcessor17update_job_status0B6_
FNDA:0,_RNCNvMNtCshSK2vqEfhA7_3mcp9job_queueNtB4_17CrateJobProcessor21enqueue_add_crate_job0B6_
FNDA:0,_RNvMNtCshSK2vqEfhA7_3mcp9job_queueNtB2_17CrateJobProcessor14get_job_status
FNDA:0,_RNvMNtCshSK2vqEfhA7_3mcp9job_queueNtB2_17CrateJobProcessor16cleanup_old_jobs
FNDA:0,_RNvMNtCshSK2vqEfhA7_3mcp9job_queueNtB2_17CrateJobProcessor17update_job_status
FNDA:0,_RNvMNtCshSK2vqEfhA7_3mcp9job_queueNtB2_17CrateJobProcessor21enqueue_add_crate_job
FNDA:0,_RNvMNtCshSK2vqEfhA7_3mcp9job_queueNtB2_17CrateJobProcessor3new
FNDA:0,_RNvMNtCshSK2vqEfhA7_3mcp9job_queueNtB2_17CrateJobProcessor7db_pool
FNF:10
FNH:5
DA:24,3
DA:25,3
DA:26,3
DA:29,0
DA:30,0
DA:31,0
DA:38,1
DA:39,1
DA:41,1
DA:42,1
DA:43,1
DA:50,1
DA:51,1
DA:52,1
DA:59,0
DA:60,0
DA:61,0
DA:62,0
DA:63,0
DA:64,0
DA:65,0
DA:66,0
DA:67,0
DA:68,0
DA:75,0
DA:76,0
DA:77,0
BRF:0
BRH:0
LF:31
LH:13
end_of_record
SF:/workspace/agent-docs/mcp/src/metrics.rs
FN:50,_RNvMNtCsi7GHPcvMyXT_3mcp7metricsNtB2_10McpMetrics18increment_requests
FN:55,_RNvMNtCsi7GHPcvMyXT_3mcp7metricsNtB2_10McpMetrics22increment_post_success
FN:82,_RNvMNtCsi7GHPcvMyXT_3mcp7metricsNtB2_10McpMetrics25increment_internal_errors
FN:87,_RNvMNtCsi7GHPcvMyXT_3mcp7metricsNtB2_10McpMetrics26increment_sessions_created
FN:92,_RNvMNtCsi7GHPcvMyXT_3mcp7metricsNtB2_10McpMetrics26increment_sessions_deleted
FN:71,_RNvMNtCsi7GHPcvMyXT_3mcp7metricsNtB2_10McpMetrics27increment_json_parse_errors
FN:60,_RNvMNtCsi7GHPcvMyXT_3mcp7metricsNtB2_10McpMetrics28increment_method_not_allowed
FN:66,_RNvMNtCsi7GHPcvMyXT_3mcp7metricsNtB2_10McpMetrics33increment_protocol_version_errors
FN:76,_RNvMNtCsi7GHPcvMyXT_3mcp7metricsNtB2_10McpMetrics36increment_security_validation_errors
FN:35,_RNvMNtCsi7GHPcvMyXT_3mcp7metricsNtB2_10McpMetrics3new
FN:98,_RNvMNtCsi7GHPcvMyXT_3mcp7metricsNtB2_10McpMetrics8snapshot
FN:138,_RNvNtCsi7GHPcvMyXT_3mcp7metrics7metrics
FN:114,_RNvXs_NtCsi7GHPcvMyXT_3mcp7metricsNtB4_10McpMetricsNtNtCs66KPHxksi63_4core7default7Default7default
FN:178,_RNvNtNtCshSK2vqEfhA7_3mcp7metrics5testss_19test_global_metrics
FN:147,_RNvNtNtCshSK2vqEfhA7_3mcp7metrics5testss_21test_metrics_creation
FN:164,_RNvNtNtCshSK2vqEfhA7_3mcp7metrics5testss_22test_metrics_increment
FN:50,_RNvMNtCshSK2vqEfhA7_3mcp7metricsNtB2_10McpMetrics18increment_requests
FN:55,_RNvMNtCshSK2vqEfhA7_3mcp7metricsNtB2_10McpMetrics22increment_post_success
FN:60,_RNvMNtCshSK2vqEfhA7_3mcp7metricsNtB2_10McpMetrics28increment_method_not_allowed
FN:35,_RNvMNtCshSK2vqEfhA7_3mcp7metricsNtB2_10McpMetrics3new
FN:98,_RNvMNtCshSK2vqEfhA7_3mcp7metricsNtB2_10McpMetrics8snapshot
FN:138,_RNvNtCshSK2vqEfhA7_3mcp7metrics7metrics
FN:82,_RNvMNtCshSK2vqEfhA7_3mcp7metricsNtB2_10McpMetrics25increment_internal_errors
FN:87,_RNvMNtCshSK2vqEfhA7_3mcp7metricsNtB2_10McpMetrics26increment_sessions_created
FN:92,_RNvMNtCshSK2vqEfhA7_3mcp7metricsNtB2_10McpMetrics26increment_sessions_deleted
FN:71,_RNvMNtCshSK2vqEfhA7_3mcp7metricsNtB2_10McpMetrics27increment_json_parse_errors
FN:66,_RNvMNtCshSK2vqEfhA7_3mcp7metricsNtB2_10McpMetrics33increment_protocol_version_errors
FN:76,_RNvMNtCshSK2vqEfhA7_3mcp7metricsNtB2_10McpMetrics36increment_security_validation_errors
FN:114,_RNvXs_NtCshSK2vqEfhA7_3mcp7metricsNtB4_10McpMetricsNtNtCs66KPHxksi63_4core7default7Default7default
FNDA:11,_RNvMNtCsi7GHPcvMyXT_3mcp7metricsNtB2_10McpMetrics18increment_requests
FNDA:2,_RNvMNtCsi7GHPcvMyXT_3mcp7metricsNtB2_10McpMetrics22increment_post_success
FNDA:0,_RNvMNtCsi7GHPcvMyXT_3mcp7metricsNtB2_10McpMetrics25increment_internal_errors
FNDA:0,_RNvMNtCsi7GHPcvMyXT_3mcp7metricsNtB2_10McpMetrics26increment_sessions_created
FNDA:0,_RNvMNtCsi7GHPcvMyXT_3mcp7metricsNtB2_10McpMetrics26increment_sessions_deleted
FNDA:2,_RNvMNtCsi7GHPcvMyXT_3mcp7metricsNtB2_10McpMetrics27increment_json_parse_errors
FNDA:3,_RNvMNtCsi7GHPcvMyXT_3mcp7metricsNtB2_10McpMetrics28increment_method_not_allowed
FNDA:2,_RNvMNtCsi7GHPcvMyXT_3mcp7metricsNtB2_10McpMetrics33increment_protocol_version_errors
FNDA:0,_RNvMNtCsi7GHPcvMyXT_3mcp7metricsNtB2_10McpMetrics36increment_security_validation_errors
FNDA:1,_RNvMNtCsi7GHPcvMyXT_3mcp7metricsNtB2_10McpMetrics3new
FNDA:8,_RNvMNtCsi7GHPcvMyXT_3mcp7metricsNtB2_10McpMetrics8snapshot
FNDA:28,_RNvNtCsi7GHPcvMyXT_3mcp7metrics7metrics
FNDA:0,_RNvXs_NtCsi7GHPcvMyXT_3mcp7metricsNtB4_10McpMetricsNtNtCs66KPHxksi63_4core7default7Default7default
FNDA:1,_RNvNtNtCshSK2vqEfhA7_3mcp7metrics5testss_19test_global_metrics
FNDA:1,_RNvNtNtCshSK2vqEfhA7_3mcp7metrics5testss_21test_metrics_creation
FNDA:1,_RNvNtNtCshSK2vqEfhA7_3mcp7metrics5testss_22test_metrics_increment
FNDA:1,_RNvMNtCshSK2vqEfhA7_3mcp7metricsNtB2_10McpMetrics18increment_requests
FNDA:1,_RNvMNtCshSK2vqEfhA7_3mcp7metricsNtB2_10McpMetrics22increment_post_success
FNDA:1,_RNvMNtCshSK2vqEfhA7_3mcp7metricsNtB2_10McpMetrics28increment_method_not_allowed
FNDA:3,_RNvMNtCshSK2vqEfhA7_3mcp7metricsNtB2_10McpMetrics3new
FNDA:2,_RNvMNtCshSK2vqEfhA7_3mcp7metricsNtB2_10McpMetrics8snapshot
FNDA:2,_RNvNtCshSK2vqEfhA7_3mcp7metrics7metrics
FNDA:0,_RNvMNtCshSK2vqEfhA7_3mcp7metricsNtB2_10McpMetrics25increment_internal_errors
FNDA:0,_RNvMNtCshSK2vqEfhA7_3mcp7metricsNtB2_10McpMetrics26increment_sessions_created
FNDA:0,_RNvMNtCshSK2vqEfhA7_3mcp7metricsNtB2_10McpMetrics26increment_sessions_deleted
FNDA:0,_RNvMNtCshSK2vqEfhA7_3mcp7metricsNtB2_10McpMetrics27increment_json_parse_errors
FNDA:0,_RNvMNtCshSK2vqEfhA7_3mcp7metricsNtB2_10McpMetrics33increment_protocol_version_errors
FNDA:0,_RNvMNtCshSK2vqEfhA7_3mcp7metricsNtB2_10McpMetrics36increment_security_validation_errors
FNDA:0,_RNvXs_NtCshSK2vqEfhA7_3mcp7metricsNtB4_10McpMetricsNtNtCs66KPHxksi63_4core7default7Default7default
FNF:16
FNH:11
DA:35,4
DA:36,4
DA:37,4
DA:38,4
DA:39,4
DA:40,4
DA:41,4
DA:42,4
DA:43,4
DA:44,4
DA:45,4
DA:46,4
DA:47,4
DA:50,12
DA:51,12
DA:52,12
DA:55,3
DA:56,3
DA:57,3
DA:60,4
DA:61,4
DA:62,4
DA:63,4
DA:66,2
DA:67,2
DA:68,2
DA:71,2
DA:72,2
DA:73,2
DA:76,0
DA:77,0
DA:78,0
DA:79,0
DA:82,0
DA:83,0
DA:84,0
DA:87,0
DA:88,0
DA:89,0
DA:92,0
DA:93,0
DA:94,0
DA:98,10
DA:99,10
DA:100,10
DA:101,10
DA:102,10
DA:103,10
DA:104,10
DA:105,10
DA:106,10
DA:107,10
DA:108,10
DA:109,10
DA:110,10
DA:114,0
DA:115,0
DA:116,0
DA:138,30
DA:139,30
DA:140,30
DA:147,1
DA:148,1
DA:149,1
DA:152,1
DA:153,1
DA:154,1
DA:155,1
DA:156,1
DA:157,1
DA:158,1
DA:159,1
DA:160,1
DA:161,1
DA:164,1
DA:165,1
DA:167,1
DA:168,1
DA:169,1
DA:171,1
DA:172,1
DA:173,1
DA:174,1
DA:175,1
DA:178,1
DA:179,1
DA:180,1
DA:183,1
DA:184,1
BRF:0
BRH:0
LF:89
LH:73
end_of_record
SF:/workspace/agent-docs/mcp/src/protocol_version.rs
FN:101,_RNCNvMs2_NtCsi7GHPcvMyXT_3mcp16protocol_versionNtB7_16ProtocolRegistry27is_version_string_supported0B9_
FN:32,_RNvMNtCsi7GHPcvMyXT_3mcp16protocol_versionNtB2_15ProtocolVersion12is_supported
FN:24,_RNvMNtCsi7GHPcvMyXT_3mcp16protocol_versionNtB2_15ProtocolVersion6as_str
FN:38,_RNvMNtCsi7GHPcvMyXT_3mcp16protocol_versionNtB2_15ProtocolVersion7current
FN:106,_RNvMs2_NtCsi7GHPcvMyXT_3mcp16protocol_versionNtB5_16ProtocolRegistry15current_version
FN:93,_RNvMs2_NtCsi7GHPcvMyXT_3mcp16protocol_versionNtB5_16ProtocolRegistry20is_version_supported
FN:112,_RNvMs2_NtCsi7GHPcvMyXT_3mcp16protocol_versionNtB5_16ProtocolRegistry22current_version_string
FN:121,_RNvMs2_NtCsi7GHPcvMyXT_3mcp16protocol_versionNtB5_16ProtocolRegistry23validate_version_string
FN:99,_RNvMs2_NtCsi7GHPcvMyXT_3mcp16protocol_versionNtB5_16ProtocolRegistry27is_version_string_supported
FN:85,_RNvMs2_NtCsi7GHPcvMyXT_3mcp16protocol_versionNtB5_16ProtocolRegistry3new
FN:52,_RNvXs0_NtCsi7GHPcvMyXT_3mcp16protocol_versionNtB5_15ProtocolVersionNtNtNtCs66KPHxksi63_4core3str6traits7FromStr8from_str
FN:63,_RNvXs1_NtCsi7GHPcvMyXT_3mcp16protocol_versionNtB5_15ProtocolVersionNtNtCs66KPHxksi63_4core7default7Default7default
FN:137,_RNvXs3_NtCsi7GHPcvMyXT_3mcp16protocol_versionNtB5_16ProtocolRegistryNtNtCs66KPHxksi63_4core7default7Default7default
FN:44,_RNvXs_NtCsi7GHPcvMyXT_3mcp16protocol_versionNtB4_15ProtocolVersionNtNtCs66KPHxksi63_4core3fmt7Display3fmt
FN:101,_RNCNvMs2_NtCshSK2vqEfhA7_3mcp16protocol_versionNtB7_16ProtocolRegistry27is_version_string_supported0B9_
FN:247,_RNvNtNtCshSK2vqEfhA7_3mcp16protocol_version5testss_26test_constants_consistency
FN:196,_RNvNtNtCshSK2vqEfhA7_3mcp16protocol_version5testss_26test_protocol_registry_new
FN:147,_RNvNtNtCshSK2vqEfhA7_3mcp16protocol_version5testss_28test_protocol_version_as_str
FN:162,_RNvNtNtCshSK2vqEfhA7_3mcp16protocol_version5testss_29test_protocol_version_current
FN:167,_RNvNtNtCshSK2vqEfhA7_3mcp16protocol_version5testss_29test_protocol_version_default
FN:152,_RNvNtNtCshSK2vqEfhA7_3mcp16protocol_version5testss_29test_protocol_version_display
FN:202,_RNvNtNtCshSK2vqEfhA7_3mcp16protocol_version5testss_30test_protocol_registry_default
FN:157,_RNvNtNtCshSK2vqEfhA7_3mcp16protocol_version5testss_34test_protocol_version_is_supported
FN:172,_RNvNtNtCshSK2vqEfhA7_3mcp16protocol_version5testss_36test_protocol_version_from_str_valid
FN:178,_RNvNtNtCshSK2vqEfhA7_3mcp16protocol_version5testss_38test_protocol_version_from_str_invalid
FN:208,_RNvNtNtCshSK2vqEfhA7_3mcp16protocol_version5testss_43test_protocol_registry_is_version_supported
FN:222,_RNvNtNtCshSK2vqEfhA7_3mcp16protocol_version5testss_45test_protocol_registry_current_version_string
FN:188,_RNvNtNtCshSK2vqEfhA7_3mcp16protocol_version5testss_46test_protocol_version_from_str_with_whitespace
FN:214,_RNvNtNtCshSK2vqEfhA7_3mcp16protocol_version5testss_50test_protocol_registry_is_version_string_supported
FN:228,_RNvNtNtCshSK2vqEfhA7_3mcp16protocol_version5testss_52test_protocol_registry_validate_version_string_valid
FN:236,_RNvNtNtCshSK2vqEfhA7_3mcp16protocol_version5testss_54test_protocol_registry_validate_version_string_invalid
FN:32,_RNvMNtCshSK2vqEfhA7_3mcp16protocol_versionNtB2_15ProtocolVersion12is_supported
FN:24,_RNvMNtCshSK2vqEfhA7_3mcp16protocol_versionNtB2_15ProtocolVersion6as_str
FN:38,_RNvMNtCshSK2vqEfhA7_3mcp16protocol_versionNtB2_15ProtocolVersion7current
FN:106,_RNvMs2_NtCshSK2vqEfhA7_3mcp16protocol_versionNtB5_16ProtocolRegistry15current_version
FN:93,_RNvMs2_NtCshSK2vqEfhA7_3mcp16protocol_versionNtB5_16ProtocolRegistry20is_version_supported
FN:112,_RNvMs2_NtCshSK2vqEfhA7_3mcp16protocol_versionNtB5_16ProtocolRegistry22current_version_string
FN:121,_RNvMs2_NtCshSK2vqEfhA7_3mcp16protocol_versionNtB5_16ProtocolRegistry23validate_version_string
FN:99,_RNvMs2_NtCshSK2vqEfhA7_3mcp16protocol_versionNtB5_16ProtocolRegistry27is_version_string_supported
FN:85,_RNvMs2_NtCshSK2vqEfhA7_3mcp16protocol_versionNtB5_16ProtocolRegistry3new
FN:52,_RNvXs0_NtCshSK2vqEfhA7_3mcp16protocol_versionNtB5_15ProtocolVersionNtNtNtCs66KPHxksi63_4core3str6traits7FromStr8from_str
FN:63,_RNvXs1_NtCshSK2vqEfhA7_3mcp16protocol_versionNtB5_15ProtocolVersionNtNtCs66KPHxksi63_4core7default7Default7default
FN:137,_RNvXs3_NtCshSK2vqEfhA7_3mcp16protocol_versionNtB5_16ProtocolRegistryNtNtCs66KPHxksi63_4core7default7Default7default
FN:44,_RNvXs_NtCshSK2vqEfhA7_3mcp16protocol_versionNtB4_15ProtocolVersionNtNtCs66KPHxksi63_4core3fmt7Display3fmt
FNDA:18,_RNCNvMs2_NtCsi7GHPcvMyXT_3mcp16protocol_versionNtB7_16ProtocolRegistry27is_version_string_supported0B9_
FNDA:21,_RNvMNtCsi7GHPcvMyXT_3mcp16protocol_versionNtB2_15ProtocolVersion12is_supported
FNDA:2,_RNvMNtCsi7GHPcvMyXT_3mcp16protocol_versionNtB2_15ProtocolVersion6as_str
FNDA:507,_RNvMNtCsi7GHPcvMyXT_3mcp16protocol_versionNtB2_15ProtocolVersion7current
FNDA:2,_RNvMs2_NtCsi7GHPcvMyXT_3mcp16protocol_versionNtB5_16ProtocolRegistry15current_version
FNDA:21,_RNvMs2_NtCsi7GHPcvMyXT_3mcp16protocol_versionNtB5_16ProtocolRegistry20is_version_supported
FNDA:242,_RNvMs2_NtCsi7GHPcvMyXT_3mcp16protocol_versionNtB5_16ProtocolRegistry22current_version_string
FNDA:6,_RNvMs2_NtCsi7GHPcvMyXT_3mcp16protocol_versionNtB5_16ProtocolRegistry23validate_version_string
FNDA:25,_RNvMs2_NtCsi7GHPcvMyXT_3mcp16protocol_versionNtB5_16ProtocolRegistry27is_version_string_supported
FNDA:506,_RNvMs2_NtCsi7GHPcvMyXT_3mcp16protocol_versionNtB5_16ProtocolRegistry3new
FNDA:31,_RNvXs0_NtCsi7GHPcvMyXT_3mcp16protocol_versionNtB5_15ProtocolVersionNtNtNtCs66KPHxksi63_4core3str6traits7FromStr8from_str
FNDA:0,_RNvXs1_NtCsi7GHPcvMyXT_3mcp16protocol_versionNtB5_15ProtocolVersionNtNtCs66KPHxksi63_4core7default7Default7default
FNDA:0,_RNvXs3_NtCsi7GHPcvMyXT_3mcp16protocol_versionNtB5_16ProtocolRegistryNtNtCs66KPHxksi63_4core7default7Default7default
FNDA:0,_RNvXs_NtCsi7GHPcvMyXT_3mcp16protocol_versionNtB4_15ProtocolVersionNtNtCs66KPHxksi63_4core3fmt7Display3fmt
FNDA:1,_RNCNvMs2_NtCshSK2vqEfhA7_3mcp16protocol_versionNtB7_16ProtocolRegistry27is_version_string_supported0B9_
FNDA:1,_RNvNtNtCshSK2vqEfhA7_3mcp16protocol_version5testss_26test_constants_consistency
FNDA:1,_RNvNtNtCshSK2vqEfhA7_3mcp16protocol_version5testss_26test_protocol_registry_new
FNDA:1,_RNvNtNtCshSK2vqEfhA7_3mcp16protocol_version5testss_28test_protocol_version_as_str
FNDA:1,_RNvNtNtCshSK2vqEfhA7_3mcp16protocol_version5testss_29test_protocol_version_current
FNDA:1,_RNvNtNtCshSK2vqEfhA7_3mcp16protocol_version5testss_29test_protocol_version_default
FNDA:1,_RNvNtNtCshSK2vqEfhA7_3mcp16protocol_version5testss_29test_protocol_version_display
FNDA:1,_RNvNtNtCshSK2vqEfhA7_3mcp16protocol_version5testss_30test_protocol_registry_default
FNDA:1,_RNvNtNtCshSK2vqEfhA7_3mcp16protocol_version5testss_34test_protocol_version_is_supported
FNDA:1,_RNvNtNtCshSK2vqEfhA7_3mcp16protocol_version5testss_36test_protocol_version_from_str_valid
FNDA:1,_RNvNtNtCshSK2vqEfhA7_3mcp16protocol_version5testss_38test_protocol_version_from_str_invalid
FNDA:1,_RNvNtNtCshSK2vqEfhA7_3mcp16protocol_version5testss_43test_protocol_registry_is_version_supported
FNDA:1,_RNvNtNtCshSK2vqEfhA7_3mcp16protocol_version5testss_45test_protocol_registry_current_version_string
FNDA:1,_RNvNtNtCshSK2vqEfhA7_3mcp16protocol_version5testss_46test_protocol_version_from_str_with_whitespace
FNDA:1,_RNvNtNtCshSK2vqEfhA7_3mcp16protocol_version5testss_50test_protocol_registry_is_version_string_supported
FNDA:1,_RNvNtNtCshSK2vqEfhA7_3mcp16protocol_version5testss_52test_protocol_registry_validate_version_string_valid
FNDA:1,_RNvNtNtCshSK2vqEfhA7_3mcp16protocol_version5testss_54test_protocol_registry_validate_version_string_invalid
FNDA:4,_RNvMNtCshSK2vqEfhA7_3mcp16protocol_versionNtB2_15ProtocolVersion12is_supported
FNDA:3,_RNvMNtCshSK2vqEfhA7_3mcp16protocol_versionNtB2_15ProtocolVersion6as_str
FNDA:26,_RNvMNtCshSK2vqEfhA7_3mcp16protocol_versionNtB2_15ProtocolVersion7current
FNDA:2,_RNvMs2_NtCshSK2vqEfhA7_3mcp16protocol_versionNtB5_16ProtocolRegistry15current_version
FNDA:3,_RNvMs2_NtCshSK2vqEfhA7_3mcp16protocol_versionNtB5_16ProtocolRegistry20is_version_supported
FNDA:10,_RNvMs2_NtCshSK2vqEfhA7_3mcp16protocol_versionNtB5_16ProtocolRegistry22current_version_string
FNDA:2,_RNvMs2_NtCshSK2vqEfhA7_3mcp16protocol_versionNtB5_16ProtocolRegistry23validate_version_string
FNDA:3,_RNvMs2_NtCshSK2vqEfhA7_3mcp16protocol_versionNtB5_16ProtocolRegistry27is_version_string_supported
FNDA:23,_RNvMs2_NtCshSK2vqEfhA7_3mcp16protocol_versionNtB5_16ProtocolRegistry3new
FNDA:8,_RNvXs0_NtCshSK2vqEfhA7_3mcp16protocol_versionNtB5_15ProtocolVersionNtNtNtCs66KPHxksi63_4core3str6traits7FromStr8from_str
FNDA:1,_RNvXs1_NtCshSK2vqEfhA7_3mcp16protocol_versionNtB5_15ProtocolVersionNtNtCs66KPHxksi63_4core7default7Default7default
FNDA:1,_RNvXs3_NtCshSK2vqEfhA7_3mcp16protocol_versionNtB5_16ProtocolRegistryNtNtCs66KPHxksi63_4core7default7Default7default
FNDA:1,_RNvXs_NtCshSK2vqEfhA7_3mcp16protocol_versionNtB4_15ProtocolVersionNtNtCs66KPHxksi63_4core3fmt7Display3fmt
FNF:30
FNH:30
DA:24,5
DA:25,5
DA:26,5
DA:28,5
DA:32,25
DA:33,25
DA:34,25
DA:38,533
DA:39,533
DA:40,533
DA:44,1
DA:45,1
DA:46,1
DA:52,39
DA:53,39
DA:54,39
DA:55,14
DA:56,14
DA:57,14
DA:59,39
DA:63,1
DA:64,1
DA:65,1
DA:85,529
DA:86,529
DA:87,529
DA:88,529
DA:89,529
DA:93,24
DA:94,24
DA:95,24
DA:99,28
DA:100,28
DA:101,28
DA:102,28
DA:106,4
DA:107,4
DA:108,4
DA:112,252
DA:113,252
DA:114,252
DA:121,8
DA:122,8
DA:123,8
DA:124,8
DA:125,8
DA:126,4
DA:127,4
DA:129,0
DA:130,0
DA:131,0
DA:133,8
DA:137,1
DA:138,1
DA:139,1
DA:147,1
DA:148,1
DA:149,1
DA:152,1
DA:153,1
DA:154,1
DA:157,1
DA:158,1
DA:159,1
DA:162,1
DA:163,1
DA:164,1
DA:167,1
DA:168,1
DA:169,1
DA:172,1
DA:173,1
DA:174,1
DA:175,1
DA:178,1
DA:179,1
DA:180,1
DA:181,1
DA:182,1
DA:185,1
DA:188,1
DA:190,1
DA:191,1
DA:192,1
DA:193,1
DA:196,1
DA:197,1
DA:198,1
DA:199,1
DA:202,1
DA:203,1
DA:204,1
DA:205,1
DA:208,1
DA:209,1
DA:210,1
DA:211,1
DA:214,1
DA:215,1
DA:216,1
DA:217,1
DA:218,1
DA:219,1
DA:222,1
DA:223,1
DA:224,1
DA:225,1
DA:228,1
DA:229,1
DA:230,1
DA:231,1
DA:232,1
DA:233,1
DA:236,1
DA:237,1
DA:238,1
DA:239,1
DA:240,1
DA:241,1
DA:244,1
DA:247,1
DA:248,1
DA:249,1
DA:250,1
DA:253,1
BRF:0
BRH:0
LF:126
LH:123
end_of_record
SF:/workspace/agent-docs/mcp/src/security.rs
FN:246,_RNCNvNtCsi7GHPcvMyXT_3mcp8security28origin_validation_middleware0B5_
FN:87,_RNvMs_NtCsi7GHPcvMyXT_3mcp8securityNtB4_14SecurityConfig17is_origin_allowed
FN:59,_RNvMs_NtCsi7GHPcvMyXT_3mcp8securityNtB4_14SecurityConfig18add_allowed_origin
FN:93,_RNvMs_NtCsi7GHPcvMyXT_3mcp8securityNtB4_14SecurityConfig19is_localhost_origin
FN:73,_RNvMs_NtCsi7GHPcvMyXT_3mcp8securityNtB4_14SecurityConfig19with_localhost_only
FN:80,_RNvMs_NtCsi7GHPcvMyXT_3mcp8securityNtB4_14SecurityConfig26with_require_origin_header
FN:66,_RNvMs_NtCsi7GHPcvMyXT_3mcp8securityNtB4_14SecurityConfig29with_strict_origin_validation
FN:54,_RNvMs_NtCsi7GHPcvMyXT_3mcp8securityNtB4_14SecurityConfig3new
FN:156,_RNvNtCsi7GHPcvMyXT_3mcp8security12extract_host
FN:148,_RNvNtCsi7GHPcvMyXT_3mcp8security14extract_origin
FN:168,_RNvNtCsi7GHPcvMyXT_3mcp8security15validate_origin
FN:351,_RNvNtCsi7GHPcvMyXT_3mcp8security18log_security_event
FN:330,_RNvNtCsi7GHPcvMyXT_3mcp8security20add_security_headers
FN:198,_RNvNtCsi7GHPcvMyXT_3mcp8security22validate_dns_rebinding
FN:269,_RNvNtCsi7GHPcvMyXT_3mcp8security23validate_server_binding
FN:242,_RNvNtCsi7GHPcvMyXT_3mcp8security28origin_validation_middleware
FN:33,_RNvXNtCsi7GHPcvMyXT_3mcp8securityNtB2_14SecurityConfigNtNtCs66KPHxksi63_4core7default7Default7default
FN:121,_RNvXs0_NtCsi7GHPcvMyXT_3mcp8securityNtB5_13SecurityErrorNtNtNtCsl3nYzWiYlSC_9axum_core8response13into_response12IntoResponse13into_response
FN:211,_RNCNCNCNvNtCsi7GHPcvMyXT_3mcp8security22validate_dns_rebinding000B9_
FN:211,_RNCNCNCNvNtCsi7GHPcvMyXT_3mcp8security22validate_dns_rebinding00s_0B9_
FN:209,_RNCNCNvNtCsi7GHPcvMyXT_3mcp8security22validate_dns_rebinding00B7_
FN:159,_RNCNvNtCsi7GHPcvMyXT_3mcp8security12extract_host0B5_
FN:151,_RNCNvNtCsi7GHPcvMyXT_3mcp8security14extract_origin0B5_
FN:208,_RNCNvNtCsi7GHPcvMyXT_3mcp8security22validate_dns_rebinding0B5_
FN:283,_RNCNvNtCsi7GHPcvMyXT_3mcp8security23validate_server_binding0B5_
FN:316,_RNCNvNtCsi7GHPcvMyXT_3mcp8security23validate_server_bindings0_0B5_
FN:312,_RNCNvNtCsi7GHPcvMyXT_3mcp8security23validate_server_bindings_0B5_
FN:87,_RNvMs_NtCshSK2vqEfhA7_3mcp8securityNtB4_14SecurityConfig17is_origin_allowed
FN:59,_RNvMs_NtCshSK2vqEfhA7_3mcp8securityNtB4_14SecurityConfig18add_allowed_origin
FN:93,_RNvMs_NtCshSK2vqEfhA7_3mcp8securityNtB4_14SecurityConfig19is_localhost_origin
FN:73,_RNvMs_NtCshSK2vqEfhA7_3mcp8securityNtB4_14SecurityConfig19with_localhost_only
FN:80,_RNvMs_NtCshSK2vqEfhA7_3mcp8securityNtB4_14SecurityConfig26with_require_origin_header
FN:66,_RNvMs_NtCshSK2vqEfhA7_3mcp8securityNtB4_14SecurityConfig29with_strict_origin_validation
FN:54,_RNvMs_NtCshSK2vqEfhA7_3mcp8securityNtB4_14SecurityConfig3new
FN:156,_RNvNtCshSK2vqEfhA7_3mcp8security12extract_host
FN:148,_RNvNtCshSK2vqEfhA7_3mcp8security14extract_origin
FN:168,_RNvNtCshSK2vqEfhA7_3mcp8security15validate_origin
FN:351,_RNvNtCshSK2vqEfhA7_3mcp8security18log_security_event
FN:330,_RNvNtCshSK2vqEfhA7_3mcp8security20add_security_headers
FN:198,_RNvNtCshSK2vqEfhA7_3mcp8security22validate_dns_rebinding
FN:269,_RNvNtCshSK2vqEfhA7_3mcp8security23validate_server_binding
FN:33,_RNvXNtCshSK2vqEfhA7_3mcp8securityNtB2_14SecurityConfigNtNtCs66KPHxksi63_4core7default7Default7default
FN:246,_RNCNvNtCshSK2vqEfhA7_3mcp8security28origin_validation_middleware0B5_
FN:242,_RNvNtCshSK2vqEfhA7_3mcp8security28origin_validation_middleware
FN:121,_RNvXs0_NtCshSK2vqEfhA7_3mcp8securityNtB5_13SecurityErrorNtNtNtCsl3nYzWiYlSC_9axum_core8response13into_response12IntoResponse13into_response
FN:211,_RNCNCNCNvNtCshSK2vqEfhA7_3mcp8security22validate_dns_rebinding000B9_
FN:211,_RNCNCNCNvNtCshSK2vqEfhA7_3mcp8security22validate_dns_rebinding00s_0B9_
FN:209,_RNCNCNvNtCshSK2vqEfhA7_3mcp8security22validate_dns_rebinding00B7_
FN:159,_RNCNvNtCshSK2vqEfhA7_3mcp8security12extract_host0B5_
FN:151,_RNCNvNtCshSK2vqEfhA7_3mcp8security14extract_origin0B5_
FN:208,_RNCNvNtCshSK2vqEfhA7_3mcp8security22validate_dns_rebinding0B5_
FN:283,_RNCNvNtCshSK2vqEfhA7_3mcp8security23validate_server_binding0B5_
FN:316,_RNCNvNtCshSK2vqEfhA7_3mcp8security23validate_server_bindings0_0B5_
FN:312,_RNCNvNtCshSK2vqEfhA7_3mcp8security23validate_server_bindings_0B5_
FN:371,_RNvNtNtCshSK2vqEfhA7_3mcp8security5tests19create_test_headers
FN:509,_RNvNtNtCshSK2vqEfhA7_3mcp8security5testss_21test_security_headers
FN:520,_RNvNtNtCshSK2vqEfhA7_3mcp8security5testss_27test_security_event_logging
FN:459,_RNvNtNtCshSK2vqEfhA7_3mcp8security5testss_28test_dns_rebinding_detection
FN:393,_RNvNtNtCshSK2vqEfhA7_3mcp8security5testss_28test_security_config_builder
FN:383,_RNvNtNtCshSK2vqEfhA7_3mcp8security5testss_28test_security_config_default
FN:418,_RNvNtNtCshSK2vqEfhA7_3mcp8security5testss_30test_origin_validation_success
FN:479,_RNvNtNtCshSK2vqEfhA7_3mcp8security5testss_30test_server_binding_validation
FN:408,_RNvNtNtCshSK2vqEfhA7_3mcp8security5testss_31test_localhost_origin_detection
FN:426,_RNvNtNtCshSK2vqEfhA7_3mcp8security5testss_34test_origin_validation_not_allowed
FN:471,_RNvNtNtCshSK2vqEfhA7_3mcp8security5testss_36test_dns_rebinding_localhost_allowed
FN:448,_RNvNtNtCshSK2vqEfhA7_3mcp8security5testss_37test_origin_validation_invalid_format
FN:437,_RNvNtNtCshSK2vqEfhA7_3mcp8security5testss_39test_origin_validation_missing_required
FN:500,_RNvNtNtCshSK2vqEfhA7_3mcp8security5testss_39test_server_binding_validation_disabled
FNDA:0,_RNCNvNtCsi7GHPcvMyXT_3mcp8security28origin_validation_middleware0B5_
FNDA:7,_RNvMs_NtCsi7GHPcvMyXT_3mcp8securityNtB4_14SecurityConfig17is_origin_allowed
FNDA:1,_RNvMs_NtCsi7GHPcvMyXT_3mcp8securityNtB4_14SecurityConfig18add_allowed_origin
FNDA:9,_RNvMs_NtCsi7GHPcvMyXT_3mcp8securityNtB4_14SecurityConfig19is_localhost_origin
FNDA:2,_RNvMs_NtCsi7GHPcvMyXT_3mcp8securityNtB4_14SecurityConfig19with_localhost_only
FNDA:3,_RNvMs_NtCsi7GHPcvMyXT_3mcp8securityNtB4_14SecurityConfig26with_require_origin_header
FNDA:1,_RNvMs_NtCsi7GHPcvMyXT_3mcp8securityNtB4_14SecurityConfig29with_strict_origin_validation
FNDA:1,_RNvMs_NtCsi7GHPcvMyXT_3mcp8securityNtB4_14SecurityConfig3new
FNDA:2,_RNvNtCsi7GHPcvMyXT_3mcp8security12extract_host
FNDA:7,_RNvNtCsi7GHPcvMyXT_3mcp8security14extract_origin
FNDA:5,_RNvNtCsi7GHPcvMyXT_3mcp8security15validate_origin
FNDA:0,_RNvNtCsi7GHPcvMyXT_3mcp8security18log_security_event
FNDA:0,_RNvNtCsi7GHPcvMyXT_3mcp8security20add_security_headers
FNDA:2,_RNvNtCsi7GHPcvMyXT_3mcp8security22validate_dns_rebinding
FNDA:8,_RNvNtCsi7GHPcvMyXT_3mcp8security23validate_server_binding
FNDA:0,_RNvNtCsi7GHPcvMyXT_3mcp8security28origin_validation_middleware
FNDA:12,_RNvXNtCsi7GHPcvMyXT_3mcp8securityNtB2_14SecurityConfigNtNtCs66KPHxksi63_4core7default7Default7default
FNDA:0,_RNvXs0_NtCsi7GHPcvMyXT_3mcp8securityNtB5_13SecurityErrorNtNtNtCsl3nYzWiYlSC_9axum_core8response13into_response12IntoResponse13into_response
FNDA:1,_RNCNCNCNvNtCsi7GHPcvMyXT_3mcp8security22validate_dns_rebinding000B9_
FNDA:1,_RNCNCNCNvNtCsi7GHPcvMyXT_3mcp8security22validate_dns_rebinding00s_0B9_
FNDA:2,_RNCNCNvNtCsi7GHPcvMyXT_3mcp8security22validate_dns_rebinding00B7_
FNDA:2,_RNCNvNtCsi7GHPcvMyXT_3mcp8security12extract_host0B5_
FNDA:5,_RNCNvNtCsi7GHPcvMyXT_3mcp8security14extract_origin0B5_
FNDA:2,_RNCNvNtCsi7GHPcvMyXT_3mcp8security22validate_dns_rebinding0B5_
FNDA:0,_RNCNvNtCsi7GHPcvMyXT_3mcp8security23validate_server_binding0B5_
FNDA:1,_RNCNvNtCsi7GHPcvMyXT_3mcp8security23validate_server_bindings0_0B5_
FNDA:0,_RNCNvNtCsi7GHPcvMyXT_3mcp8security23validate_server_bindings_0B5_
FNDA:5,_RNvMs_NtCshSK2vqEfhA7_3mcp8securityNtB4_14SecurityConfig17is_origin_allowed
FNDA:1,_RNvMs_NtCshSK2vqEfhA7_3mcp8securityNtB4_14SecurityConfig18add_allowed_origin
FNDA:8,_RNvMs_NtCshSK2vqEfhA7_3mcp8securityNtB4_14SecurityConfig19is_localhost_origin
FNDA:2,_RNvMs_NtCshSK2vqEfhA7_3mcp8securityNtB4_14SecurityConfig19with_localhost_only
FNDA:2,_RNvMs_NtCshSK2vqEfhA7_3mcp8securityNtB4_14SecurityConfig26with_require_origin_header
FNDA:1,_RNvMs_NtCshSK2vqEfhA7_3mcp8securityNtB4_14SecurityConfig29with_strict_origin_validation
FNDA:1,_RNvMs_NtCshSK2vqEfhA7_3mcp8securityNtB4_14SecurityConfig3new
FNDA:2,_RNvNtCshSK2vqEfhA7_3mcp8security12extract_host
FNDA:6,_RNvNtCshSK2vqEfhA7_3mcp8security14extract_origin
FNDA:4,_RNvNtCshSK2vqEfhA7_3mcp8security15validate_origin
FNDA:3,_RNvNtCshSK2vqEfhA7_3mcp8security18log_security_event
FNDA:1,_RNvNtCshSK2vqEfhA7_3mcp8security20add_security_headers
FNDA:2,_RNvNtCshSK2vqEfhA7_3mcp8security22validate_dns_rebinding
FNDA:8,_RNvNtCshSK2vqEfhA7_3mcp8security23validate_server_binding
FNDA:11,_RNvXNtCshSK2vqEfhA7_3mcp8securityNtB2_14SecurityConfigNtNtCs66KPHxksi63_4core7default7Default7default
FNDA:0,_RNCNvNtCshSK2vqEfhA7_3mcp8security28origin_validation_middleware0B5_
FNDA:0,_RNvNtCshSK2vqEfhA7_3mcp8security28origin_validation_middleware
FNDA:0,_RNvXs0_NtCshSK2vqEfhA7_3mcp8securityNtB5_13SecurityErrorNtNtNtCsl3nYzWiYlSC_9axum_core8response13into_response12IntoResponse13into_response
FNDA:1,_RNCNCNCNvNtCshSK2vqEfhA7_3mcp8security22validate_dns_rebinding000B9_
FNDA:1,_RNCNCNCNvNtCshSK2vqEfhA7_3mcp8security22validate_dns_rebinding00s_0B9_
FNDA:2,_RNCNCNvNtCshSK2vqEfhA7_3mcp8security22validate_dns_rebinding00B7_
FNDA:2,_RNCNvNtCshSK2vqEfhA7_3mcp8security12extract_host0B5_
FNDA:5,_RNCNvNtCshSK2vqEfhA7_3mcp8security14extract_origin0B5_
FNDA:2,_RNCNvNtCshSK2vqEfhA7_3mcp8security22validate_dns_rebinding0B5_
FNDA:1,_RNCNvNtCshSK2vqEfhA7_3mcp8security23validate_server_binding0B5_
FNDA:1,_RNCNvNtCshSK2vqEfhA7_3mcp8security23validate_server_bindings0_0B5_
FNDA:0,_RNCNvNtCshSK2vqEfhA7_3mcp8security23validate_server_bindings_0B5_
FNDA:6,_RNvNtNtCshSK2vqEfhA7_3mcp8security5tests19create_test_headers
FNDA:1,_RNvNtNtCshSK2vqEfhA7_3mcp8security5testss_21test_security_headers
FNDA:1,_RNvNtNtCshSK2vqEfhA7_3mcp8security5testss_27test_security_event_logging
FNDA:1,_RNvNtNtCshSK2vqEfhA7_3mcp8security5testss_28test_dns_rebinding_detection
FNDA:1,_RNvNtNtCshSK2vqEfhA7_3mcp8security5testss_28test_security_config_builder
FNDA:1,_RNvNtNtCshSK2vqEfhA7_3mcp8security5testss_28test_security_config_default
FNDA:1,_RNvNtNtCshSK2vqEfhA7_3mcp8security5testss_30test_origin_validation_success
FNDA:1,_RNvNtNtCshSK2vqEfhA7_3mcp8security5testss_30test_server_binding_validation
FNDA:1,_RNvNtNtCshSK2vqEfhA7_3mcp8security5testss_31test_localhost_origin_detection
FNDA:1,_RNvNtNtCshSK2vqEfhA7_3mcp8security5testss_34test_origin_validation_not_allowed
FNDA:1,_RNvNtNtCshSK2vqEfhA7_3mcp8security5testss_36test_dns_rebinding_localhost_allowed
FNDA:1,_RNvNtNtCshSK2vqEfhA7_3mcp8security5testss_37test_origin_validation_invalid_format
FNDA:1,_RNvNtNtCshSK2vqEfhA7_3mcp8security5testss_39test_origin_validation_missing_required
FNDA:1,_RNvNtNtCshSK2vqEfhA7_3mcp8security5testss_39test_server_binding_validation_disabled
FNF:41
FNH:37
DA:33,23
DA:34,23
DA:35,23
DA:36,23
DA:37,23
DA:38,23
DA:39,23
DA:40,23
DA:42,23
DA:43,23
DA:44,23
DA:45,23
DA:46,23
DA:47,23
DA:48,23
DA:54,2
DA:55,2
DA:56,2
DA:59,2
DA:60,2
DA:61,2
DA:62,2
DA:66,2
DA:67,2
DA:68,2
DA:69,2
DA:73,4
DA:74,4
DA:75,4
DA:76,4
DA:80,5
DA:81,5
DA:82,5
DA:83,5
DA:87,12
DA:88,12
DA:89,12
DA:93,17
DA:94,17
DA:95,17
DA:121,0
DA:122,0
DA:123,0
DA:124,0
DA:126,0
DA:128,0
DA:129,0
DA:130,0
DA:133,0
DA:135,0
DA:136,0
DA:137,0
DA:138,0
DA:139,0
DA:143,0
DA:144,0
DA:148,13
DA:149,13
DA:150,13
DA:151,13
DA:152,13
DA:153,13
DA:156,4
DA:157,4
DA:158,4
DA:159,4
DA:160,4
DA:161,4
DA:168,9
DA:169,9
DA:172,9
DA:173,2
DA:174,7
DA:177,7
DA:179,6
DA:180,2
DA:181,4
DA:184,4
DA:185,2
DA:186,2
DA:187,2
DA:188,1
DA:190,3
DA:191,9
DA:198,4
DA:199,4
DA:200,4
DA:201,4
DA:202,4
DA:203,4
DA:206,4
DA:208,4
DA:209,4
DA:210,4
DA:211,4
DA:212,4
DA:213,4
DA:216,4
DA:218,4
DA:219,4
DA:221,4
DA:222,2
DA:223,0
DA:226,2
DA:227,2
DA:228,2
DA:229,2
DA:230,2
DA:231,0
DA:232,0
DA:234,2
DA:235,4
DA:242,0
DA:243,0
DA:244,0
DA:245,0
DA:246,0
DA:249,0
DA:252,0
DA:255,0
DA:257,0
DA:260,0
DA:261,0
DA:262,0
DA:269,16
DA:270,16
DA:271,16
DA:272,16
DA:273,16
DA:274,5
DA:275,11
DA:278,11
DA:280,1
DA:281,1
DA:282,1
DA:283,1
DA:284,1
DA:285,10
DA:287,10
DA:288,10
DA:290,2
DA:293,8
DA:296,0
DA:300,11
DA:301,11
DA:302,4
DA:303,2
DA:304,0
DA:307,2
DA:311,2
DA:312,0
DA:313,0
DA:314,0
DA:315,0
DA:316,2
DA:317,2
DA:318,0
DA:320,2
DA:321,2
DA:323,2
DA:327,16
DA:330,1
DA:332,1
DA:333,1
DA:334,1
DA:336,1
DA:337,1
DA:338,1
DA:340,1
DA:341,1
DA:342,1
DA:344,1
DA:345,1
DA:346,1
DA:348,1
DA:351,3
DA:352,3
DA:353,1
DA:354,1
DA:355,1
DA:357,3
DA:371,6
DA:372,6
DA:373,6
DA:374,5
DA:375,5
DA:376,6
DA:377,2
DA:378,4
DA:379,6
DA:380,6
DA:383,1
DA:384,1
DA:385,1
DA:386,1
DA:387,1
DA:388,1
DA:389,1
DA:390,1
DA:393,1
DA:394,1
DA:395,1
DA:396,1
DA:397,1
DA:399,1
DA:401,1
DA:402,1
DA:403,1
DA:404,1
DA:405,1
DA:408,1
DA:409,1
DA:411,1
DA:412,1
DA:413,1
DA:414,1
DA:415,1
DA:418,1
DA:419,1
DA:420,1
DA:422,1
DA:423,1
DA:426,1
DA:427,1
DA:428,1
DA:430,1
DA:431,1
DA:434,1
DA:437,1
DA:438,1
DA:439,1
DA:441,1
DA:442,1
DA:445,1
DA:448,1
DA:449,1
DA:450,1
DA:452,1
DA:453,1
DA:456,1
DA:459,1
DA:460,1
DA:461,1
DA:464,1
DA:465,1
DA:468,1
DA:471,1
DA:472,1
DA:473,1
DA:475,1
DA:476,1
DA:479,1
DA:480,1
DA:483,1
DA:484,1
DA:485,1
DA:486,1
DA:489,1
DA:490,1
DA:493,1
DA:494,1
DA:497,1
DA:500,1
DA:501,1
DA:504,1
DA:505,1
DA:506,1
DA:509,1
DA:510,1
DA:511,1
DA:513,1
DA:514,1
DA:515,1
DA:516,1
DA:517,1
DA:520,1
DA:522,1
DA:523,1
DA:524,1
DA:525,1
BRF:0
BRH:0
LF:288
LH:249
end_of_record
SF:/workspace/agent-docs/mcp/src/server.rs
FN:39,_RNCNvMNtCsi7GHPcvMyXT_3mcp6serverNtB4_9McpServer3new0B6_
FN:81,_RNCNvMNtCsi7GHPcvMyXT_3mcp6serverNtB4_9McpServer5serve0B6_
FN:99,_RNvMNtCsi7GHPcvMyXT_3mcp6serverNtB2_9McpServer13create_router
FN:39,_RNvMNtCsi7GHPcvMyXT_3mcp6serverNtB2_9McpServer3new
FN:81,_RNvMNtCsi7GHPcvMyXT_3mcp6serverNtB2_9McpServer5serve
FN:39,_RNCNvMNtCsi7GHPcvMyXT_3mcp6serverNtB4_9McpServer3new0CsiLqmQIFToUG_11http_server
FN:39,_RNCNvMNtCsi7GHPcvMyXT_3mcp6serverNtB4_9McpServer3new0CsaT2uQ1v1wmQ_18json_only_mvp_test
FN:39,_RNCNvMNtCshSK2vqEfhA7_3mcp6serverNtB4_9McpServer3new0B6_
FN:81,_RNCNvMNtCshSK2vqEfhA7_3mcp6serverNtB4_9McpServer5serve0B6_
FN:99,_RNvMNtCshSK2vqEfhA7_3mcp6serverNtB2_9McpServer13create_router
FN:39,_RNvMNtCshSK2vqEfhA7_3mcp6serverNtB2_9McpServer3new
FN:81,_RNvMNtCshSK2vqEfhA7_3mcp6serverNtB2_9McpServer5serve
FN:39,_RNCNvMNtCsi7GHPcvMyXT_3mcp6serverNtB4_9McpServer3new0CscIjP2UPxd8q_12routing_test
FN:39,_RNCNvMNtCsi7GHPcvMyXT_3mcp6serverNtB4_9McpServer3new0CsbO9dfj64rIG_21transport_integration
FNDA:0,_RNCNvMNtCsi7GHPcvMyXT_3mcp6serverNtB4_9McpServer3new0B6_
FNDA:0,_RNCNvMNtCsi7GHPcvMyXT_3mcp6serverNtB4_9McpServer5serve0B6_
FNDA:0,_RNvMNtCsi7GHPcvMyXT_3mcp6serverNtB2_9McpServer13create_router
FNDA:0,_RNvMNtCsi7GHPcvMyXT_3mcp6serverNtB2_9McpServer3new
FNDA:0,_RNvMNtCsi7GHPcvMyXT_3mcp6serverNtB2_9McpServer5serve
FNDA:0,_RNCNvMNtCsi7GHPcvMyXT_3mcp6serverNtB4_9McpServer3new0CsiLqmQIFToUG_11http_server
FNDA:0,_RNCNvMNtCsi7GHPcvMyXT_3mcp6serverNtB4_9McpServer3new0CsaT2uQ1v1wmQ_18json_only_mvp_test
FNDA:0,_RNCNvMNtCshSK2vqEfhA7_3mcp6serverNtB4_9McpServer3new0B6_
FNDA:0,_RNCNvMNtCshSK2vqEfhA7_3mcp6serverNtB4_9McpServer5serve0B6_
FNDA:0,_RNvMNtCshSK2vqEfhA7_3mcp6serverNtB2_9McpServer13create_router
FNDA:0,_RNvMNtCshSK2vqEfhA7_3mcp6serverNtB2_9McpServer3new
FNDA:0,_RNvMNtCshSK2vqEfhA7_3mcp6serverNtB2_9McpServer5serve
FNDA:0,_RNCNvMNtCsi7GHPcvMyXT_3mcp6serverNtB4_9McpServer3new0CscIjP2UPxd8q_12routing_test
FNDA:0,_RNCNvMNtCsi7GHPcvMyXT_3mcp6serverNtB4_9McpServer3new0CsbO9dfj64rIG_21transport_integration
FNF:5
FNH:0
DA:39,0
DA:41,0
DA:42,0
DA:45,0
DA:46,0
DA:49,0
DA:50,0
DA:53,0
DA:56,0
DA:59,0
DA:61,0
DA:62,0
DA:63,0
DA:64,0
DA:65,0
DA:66,0
DA:67,0
DA:68,0
DA:71,0
DA:73,0
DA:74,0
DA:81,0
DA:83,0
DA:84,0
DA:85,0
DA:86,0
DA:88,0
DA:90,0
DA:91,0
DA:93,0
DA:95,0
DA:96,0
DA:99,0
DA:100,0
DA:102,0
DA:105,0
DA:107,0
DA:108,0
DA:109,0
DA:110,0
DA:111,0
DA:113,0
DA:114,0
BRF:0
BRH:0
LF:45
LH:0
end_of_record
SF:/workspace/agent-docs/mcp/src/session.rs
FN:81,_RNvMNtCsi7GHPcvMyXT_3mcp7sessionNtB2_7Session10is_expired
FN:63,_RNvMNtCsi7GHPcvMyXT_3mcp7sessionNtB2_7Session16new_with_version
FN:116,_RNvMNtCsi7GHPcvMyXT_3mcp7sessionNtB2_7Session25validate_protocol_version
FN:107,_RNvMNtCsi7GHPcvMyXT_3mcp7sessionNtB2_7Session29is_protocol_version_supported
FN:93,_RNvMNtCsi7GHPcvMyXT_3mcp7sessionNtB2_7Session3age
FN:47,_RNvMNtCsi7GHPcvMyXT_3mcp7sessionNtB2_7Session3new
FN:87,_RNvMNtCsi7GHPcvMyXT_3mcp7sessionNtB2_7Session7refresh
FN:100,_RNvMNtCsi7GHPcvMyXT_3mcp7sessionNtB2_7Session9idle_time
FN:277,_RNvMs0_NtCsi7GHPcvMyXT_3mcp7sessionNtB5_14SessionManager11get_session
FN:381,_RNvMs0_NtCsi7GHPcvMyXT_3mcp7sessionNtB5_14SessionManager13session_count
FN:422,_RNvMs0_NtCsi7GHPcvMyXT_3mcp7sessionNtB5_14SessionManager13session_stats
FN:201,_RNvMs0_NtCsi7GHPcvMyXT_3mcp7sessionNtB5_14SessionManager14create_session
FN:330,_RNvMs0_NtCsi7GHPcvMyXT_3mcp7sessionNtB5_14SessionManager14delete_session
FN:463,_RNvMs0_NtCsi7GHPcvMyXT_3mcp7sessionNtB5_14SessionManager18start_cleanup_task
FN:303,_RNvMs0_NtCsi7GHPcvMyXT_3mcp7sessionNtB5_14SessionManager20update_last_accessed
FN:351,_RNvMs0_NtCsi7GHPcvMyXT_3mcp7sessionNtB5_14SessionManager24cleanup_expired_sessions
FN:235,_RNvMs0_NtCsi7GHPcvMyXT_3mcp7sessionNtB5_14SessionManager27create_session_with_version
FN:394,_RNvMs0_NtCsi7GHPcvMyXT_3mcp7sessionNtB5_14SessionManager33validate_session_protocol_version
FN:188,_RNvMs0_NtCsi7GHPcvMyXT_3mcp7sessionNtB5_14SessionManager3new
FN:499,_RNvMs0_NtCsi7GHPcvMyXT_3mcp7sessionNtB5_14SessionManager6config
FN:140,_RNvXs_NtCsi7GHPcvMyXT_3mcp7sessionNtB4_13SessionConfigNtNtCs66KPHxksi63_4core7default7Default7default
FN:285,_RNCNvMs0_NtCsi7GHPcvMyXT_3mcp7sessionNtB7_14SessionManager11get_sessions0_0B9_
FN:281,_RNCNvMs0_NtCsi7GHPcvMyXT_3mcp7sessionNtB7_14SessionManager11get_sessions_0B9_
FN:467,_RNCNvMs0_NtCsi7GHPcvMyXT_3mcp7sessionNtB7_14SessionManager18start_cleanup_task0B9_
FN:311,_RNCNvMs0_NtCsi7GHPcvMyXT_3mcp7sessionNtB7_14SessionManager20update_last_accesseds0_0B9_
FN:307,_RNCNvMs0_NtCsi7GHPcvMyXT_3mcp7sessionNtB7_14SessionManager20update_last_accesseds_0B9_
FN:355,_RNCNvMs0_NtCsi7GHPcvMyXT_3mcp7sessionNtB7_14SessionManager24cleanup_expired_sessionss_0B9_
FN:406,_RNCNvMs0_NtCsi7GHPcvMyXT_3mcp7sessionNtB7_14SessionManager33validate_session_protocol_versions0_0B9_
FN:402,_RNCNvMs0_NtCsi7GHPcvMyXT_3mcp7sessionNtB7_14SessionManager33validate_session_protocol_versions_0B9_
FN:285,_RNCNvMs0_NtCshSK2vqEfhA7_3mcp7sessionNtB7_14SessionManager11get_sessions0_0B9_
FN:281,_RNCNvMs0_NtCshSK2vqEfhA7_3mcp7sessionNtB7_14SessionManager11get_sessions_0B9_
FN:311,_RNCNvMs0_NtCshSK2vqEfhA7_3mcp7sessionNtB7_14SessionManager20update_last_accesseds0_0B9_
FN:307,_RNCNvMs0_NtCshSK2vqEfhA7_3mcp7sessionNtB7_14SessionManager20update_last_accesseds_0B9_
FN:355,_RNCNvMs0_NtCshSK2vqEfhA7_3mcp7sessionNtB7_14SessionManager24cleanup_expired_sessionss_0B9_
FN:81,_RNvMNtCshSK2vqEfhA7_3mcp7sessionNtB2_7Session10is_expired
FN:93,_RNvMNtCshSK2vqEfhA7_3mcp7sessionNtB2_7Session3age
FN:47,_RNvMNtCshSK2vqEfhA7_3mcp7sessionNtB2_7Session3new
FN:87,_RNvMNtCshSK2vqEfhA7_3mcp7sessionNtB2_7Session7refresh
FN:277,_RNvMs0_NtCshSK2vqEfhA7_3mcp7sessionNtB5_14SessionManager11get_session
FN:381,_RNvMs0_NtCshSK2vqEfhA7_3mcp7sessionNtB5_14SessionManager13session_count
FN:422,_RNvMs0_NtCshSK2vqEfhA7_3mcp7sessionNtB5_14SessionManager13session_stats
FN:201,_RNvMs0_NtCshSK2vqEfhA7_3mcp7sessionNtB5_14SessionManager14create_session
FN:330,_RNvMs0_NtCshSK2vqEfhA7_3mcp7sessionNtB5_14SessionManager14delete_session
FN:303,_RNvMs0_NtCshSK2vqEfhA7_3mcp7sessionNtB5_14SessionManager20update_last_accessed
FN:351,_RNvMs0_NtCshSK2vqEfhA7_3mcp7sessionNtB5_14SessionManager24cleanup_expired_sessions
FN:188,_RNvMs0_NtCshSK2vqEfhA7_3mcp7sessionNtB5_14SessionManager3new
FN:140,_RNvXs_NtCshSK2vqEfhA7_3mcp7sessionNtB4_13SessionConfigNtNtCs66KPHxksi63_4core7default7Default7default
FN:615,_RNCNvNtNtCshSK2vqEfhA7_3mcp7session5testss_20test_session_cleanup0B7_
FN:467,_RNCNvMs0_NtCshSK2vqEfhA7_3mcp7sessionNtB7_14SessionManager18start_cleanup_task0B9_
FN:406,_RNCNvMs0_NtCshSK2vqEfhA7_3mcp7sessionNtB7_14SessionManager33validate_session_protocol_versions0_0B9_
FN:402,_RNCNvMs0_NtCshSK2vqEfhA7_3mcp7sessionNtB7_14SessionManager33validate_session_protocol_versions_0B9_
FN:63,_RNvMNtCshSK2vqEfhA7_3mcp7sessionNtB2_7Session16new_with_version
FN:116,_RNvMNtCshSK2vqEfhA7_3mcp7sessionNtB2_7Session25validate_protocol_version
FN:107,_RNvMNtCshSK2vqEfhA7_3mcp7sessionNtB2_7Session29is_protocol_version_supported
FN:100,_RNvMNtCshSK2vqEfhA7_3mcp7sessionNtB2_7Session9idle_time
FN:463,_RNvMs0_NtCshSK2vqEfhA7_3mcp7sessionNtB5_14SessionManager18start_cleanup_task
FN:235,_RNvMs0_NtCshSK2vqEfhA7_3mcp7sessionNtB5_14SessionManager27create_session_with_version
FN:394,_RNvMs0_NtCshSK2vqEfhA7_3mcp7sessionNtB5_14SessionManager33validate_session_protocol_version
FN:499,_RNvMs0_NtCshSK2vqEfhA7_3mcp7sessionNtB5_14SessionManager6config
FN:596,_RNvNtNtCshSK2vqEfhA7_3mcp7session5testss_18test_session_limit
FN:637,_RNvNtNtCshSK2vqEfhA7_3mcp7session5testss_18test_session_stats
FN:548,_RNvNtNtCshSK2vqEfhA7_3mcp7session5testss_19test_session_expiry
FN:615,_RNvNtNtCshSK2vqEfhA7_3mcp7session5testss_20test_session_cleanup
FN:526,_RNvNtNtCshSK2vqEfhA7_3mcp7session5testss_21test_session_creation
FN:569,_RNvNtNtCshSK2vqEfhA7_3mcp7session5testss_22test_session_lifecycle
FN:561,_RNvNtNtCshSK2vqEfhA7_3mcp7session5testss_29test_session_manager_creation
FNDA:192,_RNvMNtCsi7GHPcvMyXT_3mcp7sessionNtB2_7Session10is_expired
FNDA:3,_RNvMNtCsi7GHPcvMyXT_3mcp7sessionNtB2_7Session16new_with_version
FNDA:58,_RNvMNtCsi7GHPcvMyXT_3mcp7sessionNtB2_7Session25validate_protocol_version
FNDA:10,_RNvMNtCsi7GHPcvMyXT_3mcp7sessionNtB2_7Session29is_protocol_version_supported
FNDA:2,_RNvMNtCsi7GHPcvMyXT_3mcp7sessionNtB2_7Session3age
FNDA:237,_RNvMNtCsi7GHPcvMyXT_3mcp7sessionNtB2_7Session3new
FNDA:52,_RNvMNtCsi7GHPcvMyXT_3mcp7sessionNtB2_7Session7refresh
FNDA:1,_RNvMNtCsi7GHPcvMyXT_3mcp7sessionNtB2_7Session9idle_time
FNDA:81,_RNvMs0_NtCsi7GHPcvMyXT_3mcp7sessionNtB5_14SessionManager11get_session
FNDA:6,_RNvMs0_NtCsi7GHPcvMyXT_3mcp7sessionNtB5_14SessionManager13session_count
FNDA:2,_RNvMs0_NtCsi7GHPcvMyXT_3mcp7sessionNtB5_14SessionManager13session_stats
FNDA:235,_RNvMs0_NtCsi7GHPcvMyXT_3mcp7sessionNtB5_14SessionManager14create_session
FNDA:2,_RNvMs0_NtCsi7GHPcvMyXT_3mcp7sessionNtB5_14SessionManager14delete_session
FNDA:0,_RNvMs0_NtCsi7GHPcvMyXT_3mcp7sessionNtB5_14SessionManager18start_cleanup_task
FNDA:52,_RNvMs0_NtCsi7GHPcvMyXT_3mcp7sessionNtB5_14SessionManager20update_last_accessed
FNDA:1,_RNvMs0_NtCsi7GHPcvMyXT_3mcp7sessionNtB5_14SessionManager24cleanup_expired_sessions
FNDA:1,_RNvMs0_NtCsi7GHPcvMyXT_3mcp7sessionNtB5_14SessionManager27create_session_with_version
FNDA:57,_RNvMs0_NtCsi7GHPcvMyXT_3mcp7sessionNtB5_14SessionManager33validate_session_protocol_version
FNDA:19,_RNvMs0_NtCsi7GHPcvMyXT_3mcp7sessionNtB5_14SessionManager3new
FNDA:1,_RNvMs0_NtCsi7GHPcvMyXT_3mcp7sessionNtB5_14SessionManager6config
FNDA:16,_RNvXs_NtCsi7GHPcvMyXT_3mcp7sessionNtB4_13SessionConfigNtNtCs66KPHxksi63_4core7default7Default7default
FNDA:80,_RNCNvMs0_NtCsi7GHPcvMyXT_3mcp7sessionNtB7_14SessionManager11get_sessions0_0B9_
FNDA:1,_RNCNvMs0_NtCsi7GHPcvMyXT_3mcp7sessionNtB7_14SessionManager11get_sessions_0B9_
FNDA:0,_RNCNvMs0_NtCsi7GHPcvMyXT_3mcp7sessionNtB7_14SessionManager18start_cleanup_task0B9_
FNDA:51,_RNCNvMs0_NtCsi7GHPcvMyXT_3mcp7sessionNtB7_14SessionManager20update_last_accesseds0_0B9_
FNDA:1,_RNCNvMs0_NtCsi7GHPcvMyXT_3mcp7sessionNtB7_14SessionManager20update_last_accesseds_0B9_
FNDA:1,_RNCNvMs0_NtCsi7GHPcvMyXT_3mcp7sessionNtB7_14SessionManager24cleanup_expired_sessionss_0B9_
FNDA:56,_RNCNvMs0_NtCsi7GHPcvMyXT_3mcp7sessionNtB7_14SessionManager33validate_session_protocol_versions0_0B9_
FNDA:1,_RNCNvMs0_NtCsi7GHPcvMyXT_3mcp7sessionNtB7_14SessionManager33validate_session_protocol_versions_0B9_
FNDA:1,_RNCNvMs0_NtCshSK2vqEfhA7_3mcp7sessionNtB7_14SessionManager11get_sessions0_0B9_
FNDA:1,_RNCNvMs0_NtCshSK2vqEfhA7_3mcp7sessionNtB7_14SessionManager11get_sessions_0B9_
FNDA:1,_RNCNvMs0_NtCshSK2vqEfhA7_3mcp7sessionNtB7_14SessionManager20update_last_accesseds0_0B9_
FNDA:0,_RNCNvMs0_NtCshSK2vqEfhA7_3mcp7sessionNtB7_14SessionManager20update_last_accesseds_0B9_
FNDA:2,_RNCNvMs0_NtCshSK2vqEfhA7_3mcp7sessionNtB7_14SessionManager24cleanup_expired_sessionss_0B9_
FNDA:9,_RNvMNtCshSK2vqEfhA7_3mcp7sessionNtB2_7Session10is_expired
FNDA:3,_RNvMNtCshSK2vqEfhA7_3mcp7sessionNtB2_7Session3age
FNDA:9,_RNvMNtCshSK2vqEfhA7_3mcp7sessionNtB2_7Session3new
FNDA:2,_RNvMNtCshSK2vqEfhA7_3mcp7sessionNtB2_7Session7refresh
FNDA:2,_RNvMs0_NtCshSK2vqEfhA7_3mcp7sessionNtB5_14SessionManager11get_session
FNDA:5,_RNvMs0_NtCshSK2vqEfhA7_3mcp7sessionNtB5_14SessionManager13session_count
FNDA:2,_RNvMs0_NtCshSK2vqEfhA7_3mcp7sessionNtB5_14SessionManager13session_stats
FNDA:8,_RNvMs0_NtCshSK2vqEfhA7_3mcp7sessionNtB5_14SessionManager14create_session
FNDA:1,_RNvMs0_NtCshSK2vqEfhA7_3mcp7sessionNtB5_14SessionManager14delete_session
FNDA:1,_RNvMs0_NtCshSK2vqEfhA7_3mcp7sessionNtB5_14SessionManager20update_last_accessed
FNDA:1,_RNvMs0_NtCshSK2vqEfhA7_3mcp7sessionNtB5_14SessionManager24cleanup_expired_sessions
FNDA:5,_RNvMs0_NtCshSK2vqEfhA7_3mcp7sessionNtB5_14SessionManager3new
FNDA:5,_RNvXs_NtCshSK2vqEfhA7_3mcp7sessionNtB4_13SessionConfigNtNtCs66KPHxksi63_4core7default7Default7default
FNDA:1,_RNCNvNtNtCshSK2vqEfhA7_3mcp7session5testss_20test_session_cleanup0B7_
FNDA:0,_RNCNvMs0_NtCshSK2vqEfhA7_3mcp7sessionNtB7_14SessionManager18start_cleanup_task0B9_
FNDA:0,_RNCNvMs0_NtCshSK2vqEfhA7_3mcp7sessionNtB7_14SessionManager33validate_session_protocol_versions0_0B9_
FNDA:0,_RNCNvMs0_NtCshSK2vqEfhA7_3mcp7sessionNtB7_14SessionManager33validate_session_protocol_versions_0B9_
FNDA:0,_RNvMNtCshSK2vqEfhA7_3mcp7sessionNtB2_7Session16new_with_version
FNDA:0,_RNvMNtCshSK2vqEfhA7_3mcp7sessionNtB2_7Session25validate_protocol_version
FNDA:0,_RNvMNtCshSK2vqEfhA7_3mcp7sessionNtB2_7Session29is_protocol_version_supported
FNDA:0,_RNvMNtCshSK2vqEfhA7_3mcp7sessionNtB2_7Session9idle_time
FNDA:0,_RNvMs0_NtCshSK2vqEfhA7_3mcp7sessionNtB5_14SessionManager18start_cleanup_task
FNDA:0,_RNvMs0_NtCshSK2vqEfhA7_3mcp7sessionNtB5_14SessionManager27create_session_with_version
FNDA:0,_RNvMs0_NtCshSK2vqEfhA7_3mcp7sessionNtB5_14SessionManager33validate_session_protocol_version
FNDA:0,_RNvMs0_NtCshSK2vqEfhA7_3mcp7sessionNtB5_14SessionManager6config
FNDA:1,_RNvNtNtCshSK2vqEfhA7_3mcp7session5testss_18test_session_limit
FNDA:1,_RNvNtNtCshSK2vqEfhA7_3mcp7session5testss_18test_session_stats
FNDA:1,_RNvNtNtCshSK2vqEfhA7_3mcp7session5testss_19test_session_expiry
FNDA:1,_RNvNtNtCshSK2vqEfhA7_3mcp7session5testss_20test_session_cleanup
FNDA:1,_RNvNtNtCshSK2vqEfhA7_3mcp7session5testss_21test_session_creation
FNDA:1,_RNvNtNtCshSK2vqEfhA7_3mcp7session5testss_22test_session_lifecycle
FNDA:1,_RNvNtNtCshSK2vqEfhA7_3mcp7session5testss_29test_session_manager_creation
FNF:37
FNH:35
DA:47,246
DA:48,246
DA:49,246
DA:51,246
DA:52,246
DA:53,246
DA:54,246
DA:55,246
DA:56,246
DA:57,246
DA:58,246
DA:59,246
DA:63,3
DA:64,3
DA:65,3
DA:66,3
DA:67,3
DA:68,3
DA:69,3
DA:70,3
DA:71,3
DA:72,3
DA:73,3
DA:74,3
DA:75,3
DA:76,3
DA:77,3
DA:81,201
DA:82,201
DA:83,201
DA:84,201
DA:87,54
DA:88,54
DA:89,54
DA:93,5
DA:94,5
DA:95,5
DA:96,5
DA:100,1
DA:101,1
DA:102,1
DA:103,1
DA:107,10
DA:108,10
DA:109,10
DA:116,58
DA:117,58
DA:118,54
DA:120,4
DA:121,4
DA:122,4
DA:123,4
DA:125,58
DA:140,21
DA:141,21
DA:142,21
DA:143,21
DA:144,21
DA:145,21
DA:146,21
DA:188,24
DA:189,24
DA:190,24
DA:191,24
DA:192,24
DA:193,24
DA:201,243
DA:202,243
DA:205,243
DA:206,2
DA:207,0
DA:208,0
DA:211,2
DA:212,241
DA:214,241
DA:215,241
DA:217,241
DA:219,241
DA:220,241
DA:221,0
DA:223,0
DA:224,0
DA:226,241
DA:227,243
DA:235,1
DA:236,1
DA:237,1
DA:238,1
DA:239,1
DA:240,1
DA:243,1
DA:244,0
DA:245,0
DA:246,0
DA:249,0
DA:250,1
DA:252,1
DA:253,1
DA:254,1
DA:255,1
DA:257,1
DA:259,1
DA:261,1
DA:262,0
DA:265,0
DA:267,1
DA:268,1
DA:277,83
DA:278,83
DA:280,83
DA:281,2
DA:282,2
DA:283,2
DA:284,2
DA:285,81
DA:286,81
DA:287,1
DA:288,1
DA:290,80
DA:292,81
DA:294,83
DA:303,53
DA:304,53
DA:306,53
DA:307,1
DA:308,1
DA:309,1
DA:310,1
DA:311,52
DA:312,52
DA:313,0
DA:314,0
DA:316,52
DA:317,52
DA:318,52
DA:320,52
DA:322,53
DA:330,3
DA:331,3
DA:333,3
DA:334,2
DA:335,0
DA:337,0
DA:339,2
DA:341,1
DA:342,1
DA:344,3
DA:351,2
DA:352,2
DA:354,2
DA:355,3
DA:356,3
DA:357,3
DA:358,3
DA:360,0
DA:362,3
DA:364,2
DA:365,2
DA:366,2
DA:367,0
DA:369,0
DA:371,0
DA:373,2
DA:374,2
DA:381,11
DA:382,11
DA:383,11
DA:384,11
DA:394,57
DA:395,57
DA:396,57
DA:397,57
DA:398,57
DA:399,57
DA:401,57
DA:402,1
DA:403,1
DA:404,1
DA:405,1
DA:406,56
DA:407,56
DA:408,0
DA:409,0
DA:411,56
DA:413,56
DA:415,57
DA:422,4
DA:423,4
DA:425,4
DA:426,4
DA:427,4
DA:428,4
DA:430,4
DA:431,4
DA:432,0
DA:433,4
DA:435,4
DA:436,4
DA:437,3
DA:438,3
DA:439,4
DA:440,3
DA:441,3
DA:445,4
DA:446,2
DA:447,2
DA:448,4
DA:450,4
DA:451,4
DA:452,4
DA:453,4
DA:454,4
DA:455,4
DA:456,4
DA:457,4
DA:463,0
DA:464,0
DA:465,0
DA:467,0
DA:468,0
DA:469,0
DA:473,0
DA:475,0
DA:476,0
DA:477,0
DA:478,0
DA:479,0
DA:482,0
DA:484,0
DA:485,0
DA:491,0
DA:492,0
DA:495,0
DA:499,1
DA:500,1
DA:501,1
DA:526,1
DA:527,1
DA:528,1
DA:529,1
DA:530,1
DA:531,1
DA:533,1
DA:535,1
DA:536,1
DA:538,1
DA:540,1
DA:542,1
DA:544,1
DA:545,1
DA:548,1
DA:549,1
DA:552,1
DA:553,1
DA:556,1
DA:557,1
DA:558,1
DA:561,1
DA:562,1
DA:563,1
DA:565,1
DA:566,1
DA:569,1
DA:570,1
DA:571,1
DA:574,1
DA:575,1
DA:578,1
DA:579,1
DA:582,1
DA:585,1
DA:586,1
DA:589,1
DA:590,1
DA:593,1
DA:596,1
DA:597,1
DA:598,1
DA:599,1
DA:600,1
DA:601,1
DA:604,1
DA:605,1
DA:608,1
DA:609,1
DA:612,1
DA:615,1
DA:616,1
DA:617,1
DA:618,1
DA:619,1
DA:620,1
DA:623,1
DA:624,1
DA:625,1
DA:628,1
DA:631,1
DA:632,1
DA:633,1
DA:634,1
DA:637,1
DA:638,1
DA:639,1
DA:642,1
DA:643,1
DA:644,1
DA:647,1
DA:648,1
DA:650,1
DA:651,1
DA:652,1
DA:653,1
DA:654,1
BRF:0
BRH:0
LF:317
LH:276
end_of_record
SF:/workspace/agent-docs/mcp/src/tools.rs
FN:49,_RNvMNtCsi7GHPcvMyXT_3mcp5toolsNtB2_13RustQueryTool15semantic_search
FN:39,_RNvMNtCsi7GHPcvMyXT_3mcp5toolsNtB2_13RustQueryTool3new
FN:462,_RNvMs0_NtCsi7GHPcvMyXT_3mcp5toolsNtB5_16DynamicQueryTool22parse_metadata_filters
FN:163,_RNvMs_NtCsi7GHPcvMyXT_3mcp5toolsNtB4_16DynamicQueryTool15semantic_search
FN:294,_RNvMs_NtCsi7GHPcvMyXT_3mcp5toolsNtB4_16DynamicQueryTool19extract_source_info
FN:354,_RNvMs_NtCsi7GHPcvMyXT_3mcp5toolsNtB4_16DynamicQueryTool25calculate_relevance_score
FN:232,_RNvMs_NtCsi7GHPcvMyXT_3mcp5toolsNtB4_16DynamicQueryTool25format_content_adaptively
FN:152,_RNvMs_NtCsi7GHPcvMyXT_3mcp5toolsNtB4_16DynamicQueryTool3new
FN:96,_RNvXs1_NtCsi7GHPcvMyXT_3mcp5toolsNtB5_13RustQueryToolNtB5_4Tool10definition
FN:119,_RNvXs1_NtCsi7GHPcvMyXT_3mcp5toolsNtB5_13RustQueryToolNtB5_4Tool7execute
FN:366,_RNvXs2_NtCsi7GHPcvMyXT_3mcp5toolsNtB5_16DynamicQueryToolNtB5_4Tool10definition
FN:438,_RNvXs2_NtCsi7GHPcvMyXT_3mcp5toolsNtB5_16DynamicQueryToolNtB5_4Tool7execute
FN:77,_RNCNCNvMNtCsi7GHPcvMyXT_3mcp5toolsNtB6_13RustQueryTool15semantic_search00B8_
FN:78,_RNCNCNvMNtCsi7GHPcvMyXT_3mcp5toolsNtB6_13RustQueryTool15semantic_search0s_0B8_
FN:122,_RNCNCNvXs1_NtCsi7GHPcvMyXT_3mcp5toolsNtB9_13RustQueryToolNtB9_4Tool7execute00Bb_
FN:123,_RNCNCNvXs1_NtCsi7GHPcvMyXT_3mcp5toolsNtB9_13RustQueryToolNtB9_4Tool7execute0s_0Bb_
FN:441,_RNCNCNvXs2_NtCsi7GHPcvMyXT_3mcp5toolsNtB9_16DynamicQueryToolNtB9_4Tool7execute00Bb_
FN:442,_RNCNCNvXs2_NtCsi7GHPcvMyXT_3mcp5toolsNtB9_16DynamicQueryToolNtB9_4Tool7execute0s_0Bb_
FN:49,_RNCNvMNtCsi7GHPcvMyXT_3mcp5toolsNtB4_13RustQueryTool15semantic_search0B6_
FN:467,_RNCNvMs0_NtCsi7GHPcvMyXT_3mcp5toolsNtB7_16DynamicQueryTool22parse_metadata_filters0B9_
FN:502,_RNCNvMs0_NtCsi7GHPcvMyXT_3mcp5toolsNtB7_16DynamicQueryTool22parse_metadata_filterss0_0B9_
FN:521,_RNCNvMs0_NtCsi7GHPcvMyXT_3mcp5toolsNtB7_16DynamicQueryTool22parse_metadata_filterss1_0B9_
FN:537,_RNCNvMs0_NtCsi7GHPcvMyXT_3mcp5toolsNtB7_16DynamicQueryTool22parse_metadata_filterss2_0B9_
FN:483,_RNCNvMs0_NtCsi7GHPcvMyXT_3mcp5toolsNtB7_16DynamicQueryTool22parse_metadata_filterss_0B9_
FN:168,_RNCNvMs_NtCsi7GHPcvMyXT_3mcp5toolsNtB6_16DynamicQueryTool15semantic_search0B8_
FN:300,_RNCNvMs_NtCsi7GHPcvMyXT_3mcp5toolsNtB6_16DynamicQueryTool19extract_source_info0B8_
FN:303,_RNCNvMs_NtCsi7GHPcvMyXT_3mcp5toolsNtB6_16DynamicQueryTool19extract_source_infos0_0B8_
FN:304,_RNCNvMs_NtCsi7GHPcvMyXT_3mcp5toolsNtB6_16DynamicQueryTool19extract_source_infos1_0B8_
FN:312,_RNCNvMs_NtCsi7GHPcvMyXT_3mcp5toolsNtB6_16DynamicQueryTool19extract_source_infos2_0B8_
FN:313,_RNCNvMs_NtCsi7GHPcvMyXT_3mcp5toolsNtB6_16DynamicQueryTool19extract_source_infos3_0B8_
FN:318,_RNCNvMs_NtCsi7GHPcvMyXT_3mcp5toolsNtB6_16DynamicQueryTool19extract_source_infos4_0B8_
FN:319,_RNCNvMs_NtCsi7GHPcvMyXT_3mcp5toolsNtB6_16DynamicQueryTool19extract_source_infos5_0B8_
FN:324,_RNCNvMs_NtCsi7GHPcvMyXT_3mcp5toolsNtB6_16DynamicQueryTool19extract_source_infos6_0B8_
FN:325,_RNCNvMs_NtCsi7GHPcvMyXT_3mcp5toolsNtB6_16DynamicQueryTool19extract_source_infos7_0B8_
FN:334,_RNCNvMs_NtCsi7GHPcvMyXT_3mcp5toolsNtB6_16DynamicQueryTool19extract_source_infos8_0B8_
FN:335,_RNCNvMs_NtCsi7GHPcvMyXT_3mcp5toolsNtB6_16DynamicQueryTool19extract_source_infos9_0B8_
FN:301,_RNCNvMs_NtCsi7GHPcvMyXT_3mcp5toolsNtB6_16DynamicQueryTool19extract_source_infos_0B8_
FN:340,_RNCNvMs_NtCsi7GHPcvMyXT_3mcp5toolsNtB6_16DynamicQueryTool19extract_source_infosa_0B8_
FN:341,_RNCNvMs_NtCsi7GHPcvMyXT_3mcp5toolsNtB6_16DynamicQueryTool19extract_source_infosb_0B8_
FN:237,_RNCNvMs_NtCsi7GHPcvMyXT_3mcp5toolsNtB6_16DynamicQueryTool25format_content_adaptively0B8_
FN:254,_RNCNvMs_NtCsi7GHPcvMyXT_3mcp5toolsNtB6_16DynamicQueryTool25format_content_adaptivelys0_0B8_
FN:255,_RNCNvMs_NtCsi7GHPcvMyXT_3mcp5toolsNtB6_16DynamicQueryTool25format_content_adaptivelys1_0B8_
FN:260,_RNCNvMs_NtCsi7GHPcvMyXT_3mcp5toolsNtB6_16DynamicQueryTool25format_content_adaptivelys2_0B8_
FN:238,_RNCNvMs_NtCsi7GHPcvMyXT_3mcp5toolsNtB6_16DynamicQueryTool25format_content_adaptivelys_0B8_
FN:77,_RNCNCNvMNtCshSK2vqEfhA7_3mcp5toolsNtB6_13RustQueryTool15semantic_search00B8_
FN:78,_RNCNCNvMNtCshSK2vqEfhA7_3mcp5toolsNtB6_13RustQueryTool15semantic_search0s_0B8_
FN:122,_RNCNCNvXs1_NtCshSK2vqEfhA7_3mcp5toolsNtB9_13RustQueryToolNtB9_4Tool7execute00Bb_
FN:123,_RNCNCNvXs1_NtCshSK2vqEfhA7_3mcp5toolsNtB9_13RustQueryToolNtB9_4Tool7execute0s_0Bb_
FN:441,_RNCNCNvXs2_NtCshSK2vqEfhA7_3mcp5toolsNtB9_16DynamicQueryToolNtB9_4Tool7execute00Bb_
FN:442,_RNCNCNvXs2_NtCshSK2vqEfhA7_3mcp5toolsNtB9_16DynamicQueryToolNtB9_4Tool7execute0s_0Bb_
FN:49,_RNCNvMNtCshSK2vqEfhA7_3mcp5toolsNtB4_13RustQueryTool15semantic_search0B6_
FN:467,_RNCNvMs0_NtCshSK2vqEfhA7_3mcp5toolsNtB7_16DynamicQueryTool22parse_metadata_filters0B9_
FN:502,_RNCNvMs0_NtCshSK2vqEfhA7_3mcp5toolsNtB7_16DynamicQueryTool22parse_metadata_filterss0_0B9_
FN:521,_RNCNvMs0_NtCshSK2vqEfhA7_3mcp5toolsNtB7_16DynamicQueryTool22parse_metadata_filterss1_0B9_
FN:537,_RNCNvMs0_NtCshSK2vqEfhA7_3mcp5toolsNtB7_16DynamicQueryTool22parse_metadata_filterss2_0B9_
FN:483,_RNCNvMs0_NtCshSK2vqEfhA7_3mcp5toolsNtB7_16DynamicQueryTool22parse_metadata_filterss_0B9_
FN:168,_RNCNvMs_NtCshSK2vqEfhA7_3mcp5toolsNtB6_16DynamicQueryTool15semantic_search0B8_
FN:300,_RNCNvMs_NtCshSK2vqEfhA7_3mcp5toolsNtB6_16DynamicQueryTool19extract_source_info0B8_
FN:303,_RNCNvMs_NtCshSK2vqEfhA7_3mcp5toolsNtB6_16DynamicQueryTool19extract_source_infos0_0B8_
FN:304,_RNCNvMs_NtCshSK2vqEfhA7_3mcp5toolsNtB6_16DynamicQueryTool19extract_source_infos1_0B8_
FN:312,_RNCNvMs_NtCshSK2vqEfhA7_3mcp5toolsNtB6_16DynamicQueryTool19extract_source_infos2_0B8_
FN:313,_RNCNvMs_NtCshSK2vqEfhA7_3mcp5toolsNtB6_16DynamicQueryTool19extract_source_infos3_0B8_
FN:318,_RNCNvMs_NtCshSK2vqEfhA7_3mcp5toolsNtB6_16DynamicQueryTool19extract_source_infos4_0B8_
FN:319,_RNCNvMs_NtCshSK2vqEfhA7_3mcp5toolsNtB6_16DynamicQueryTool19extract_source_infos5_0B8_
FN:324,_RNCNvMs_NtCshSK2vqEfhA7_3mcp5toolsNtB6_16DynamicQueryTool19extract_source_infos6_0B8_
FN:325,_RNCNvMs_NtCshSK2vqEfhA7_3mcp5toolsNtB6_16DynamicQueryTool19extract_source_infos7_0B8_
FN:334,_RNCNvMs_NtCshSK2vqEfhA7_3mcp5toolsNtB6_16DynamicQueryTool19extract_source_infos8_0B8_
FN:335,_RNCNvMs_NtCshSK2vqEfhA7_3mcp5toolsNtB6_16DynamicQueryTool19extract_source_infos9_0B8_
FN:301,_RNCNvMs_NtCshSK2vqEfhA7_3mcp5toolsNtB6_16DynamicQueryTool19extract_source_infos_0B8_
FN:340,_RNCNvMs_NtCshSK2vqEfhA7_3mcp5toolsNtB6_16DynamicQueryTool19extract_source_infosa_0B8_
FN:341,_RNCNvMs_NtCshSK2vqEfhA7_3mcp5toolsNtB6_16DynamicQueryTool19extract_source_infosb_0B8_
FN:237,_RNCNvMs_NtCshSK2vqEfhA7_3mcp5toolsNtB6_16DynamicQueryTool25format_content_adaptively0B8_
FN:254,_RNCNvMs_NtCshSK2vqEfhA7_3mcp5toolsNtB6_16DynamicQueryTool25format_content_adaptivelys0_0B8_
FN:255,_RNCNvMs_NtCshSK2vqEfhA7_3mcp5toolsNtB6_16DynamicQueryTool25format_content_adaptivelys1_0B8_
FN:260,_RNCNvMs_NtCshSK2vqEfhA7_3mcp5toolsNtB6_16DynamicQueryTool25format_content_adaptivelys2_0B8_
FN:238,_RNCNvMs_NtCshSK2vqEfhA7_3mcp5toolsNtB6_16DynamicQueryTool25format_content_adaptivelys_0B8_
FN:49,_RNvMNtCshSK2vqEfhA7_3mcp5toolsNtB2_13RustQueryTool15semantic_search
FN:39,_RNvMNtCshSK2vqEfhA7_3mcp5toolsNtB2_13RustQueryTool3new
FN:462,_RNvMs0_NtCshSK2vqEfhA7_3mcp5toolsNtB5_16DynamicQueryTool22parse_metadata_filters
FN:163,_RNvMs_NtCshSK2vqEfhA7_3mcp5toolsNtB4_16DynamicQueryTool15semantic_search
FN:294,_RNvMs_NtCshSK2vqEfhA7_3mcp5toolsNtB4_16DynamicQueryTool19extract_source_info
FN:354,_RNvMs_NtCshSK2vqEfhA7_3mcp5toolsNtB4_16DynamicQueryTool25calculate_relevance_score
FN:232,_RNvMs_NtCshSK2vqEfhA7_3mcp5toolsNtB4_16DynamicQueryTool25format_content_adaptively
FN:152,_RNvMs_NtCshSK2vqEfhA7_3mcp5toolsNtB4_16DynamicQueryTool3new
FN:96,_RNvXs1_NtCshSK2vqEfhA7_3mcp5toolsNtB5_13RustQueryToolNtB5_4Tool10definition
FN:119,_RNvXs1_NtCshSK2vqEfhA7_3mcp5toolsNtB5_13RustQueryToolNtB5_4Tool7execute
FN:366,_RNvXs2_NtCshSK2vqEfhA7_3mcp5toolsNtB5_16DynamicQueryToolNtB5_4Tool10definition
FN:438,_RNvXs2_NtCshSK2vqEfhA7_3mcp5toolsNtB5_16DynamicQueryToolNtB5_4Tool7execute
FNDA:0,_RNvMNtCsi7GHPcvMyXT_3mcp5toolsNtB2_13RustQueryTool15semantic_search
FNDA:0,_RNvMNtCsi7GHPcvMyXT_3mcp5toolsNtB2_13RustQueryTool3new
FNDA:0,_RNvMs0_NtCsi7GHPcvMyXT_3mcp5toolsNtB5_16DynamicQueryTool22parse_metadata_filters
FNDA:0,_RNvMs_NtCsi7GHPcvMyXT_3mcp5toolsNtB4_16DynamicQueryTool15semantic_search
FNDA:0,_RNvMs_NtCsi7GHPcvMyXT_3mcp5toolsNtB4_16DynamicQueryTool19extract_source_info
FNDA:0,_RNvMs_NtCsi7GHPcvMyXT_3mcp5toolsNtB4_16DynamicQueryTool25calculate_relevance_score
FNDA:0,_RNvMs_NtCsi7GHPcvMyXT_3mcp5toolsNtB4_16DynamicQueryTool25format_content_adaptively
FNDA:0,_RNvMs_NtCsi7GHPcvMyXT_3mcp5toolsNtB4_16DynamicQueryTool3new
FNDA:0,_RNvXs1_NtCsi7GHPcvMyXT_3mcp5toolsNtB5_13RustQueryToolNtB5_4Tool10definition
FNDA:0,_RNvXs1_NtCsi7GHPcvMyXT_3mcp5toolsNtB5_13RustQueryToolNtB5_4Tool7execute
FNDA:0,_RNvXs2_NtCsi7GHPcvMyXT_3mcp5toolsNtB5_16DynamicQueryToolNtB5_4Tool10definition
FNDA:0,_RNvXs2_NtCsi7GHPcvMyXT_3mcp5toolsNtB5_16DynamicQueryToolNtB5_4Tool7execute
FNDA:0,_RNCNCNvMNtCsi7GHPcvMyXT_3mcp5toolsNtB6_13RustQueryTool15semantic_search00B8_
FNDA:0,_RNCNCNvMNtCsi7GHPcvMyXT_3mcp5toolsNtB6_13RustQueryTool15semantic_search0s_0B8_
FNDA:0,_RNCNCNvXs1_NtCsi7GHPcvMyXT_3mcp5toolsNtB9_13RustQueryToolNtB9_4Tool7execute00Bb_
FNDA:0,_RNCNCNvXs1_NtCsi7GHPcvMyXT_3mcp5toolsNtB9_13RustQueryToolNtB9_4Tool7execute0s_0Bb_
FNDA:0,_RNCNCNvXs2_NtCsi7GHPcvMyXT_3mcp5toolsNtB9_16DynamicQueryToolNtB9_4Tool7execute00Bb_
FNDA:0,_RNCNCNvXs2_NtCsi7GHPcvMyXT_3mcp5toolsNtB9_16DynamicQueryToolNtB9_4Tool7execute0s_0Bb_
FNDA:0,_RNCNvMNtCsi7GHPcvMyXT_3mcp5toolsNtB4_13RustQueryTool15semantic_search0B6_
FNDA:0,_RNCNvMs0_NtCsi7GHPcvMyXT_3mcp5toolsNtB7_16DynamicQueryTool22parse_metadata_filters0B9_
FNDA:0,_RNCNvMs0_NtCsi7GHPcvMyXT_3mcp5toolsNtB7_16DynamicQueryTool22parse_metadata_filterss0_0B9_
FNDA:0,_RNCNvMs0_NtCsi7GHPcvMyXT_3mcp5toolsNtB7_16DynamicQueryTool22parse_metadata_filterss1_0B9_
FNDA:0,_RNCNvMs0_NtCsi7GHPcvMyXT_3mcp5toolsNtB7_16DynamicQueryTool22parse_metadata_filterss2_0B9_
FNDA:0,_RNCNvMs0_NtCsi7GHPcvMyXT_3mcp5toolsNtB7_16DynamicQueryTool22parse_metadata_filterss_0B9_
FNDA:0,_RNCNvMs_NtCsi7GHPcvMyXT_3mcp5toolsNtB6_16DynamicQueryTool15semantic_search0B8_
FNDA:0,_RNCNvMs_NtCsi7GHPcvMyXT_3mcp5toolsNtB6_16DynamicQueryTool19extract_source_info0B8_
FNDA:0,_RNCNvMs_NtCsi7GHPcvMyXT_3mcp5toolsNtB6_16DynamicQueryTool19extract_source_infos0_0B8_
FNDA:0,_RNCNvMs_NtCsi7GHPcvMyXT_3mcp5toolsNtB6_16DynamicQueryTool19extract_source_infos1_0B8_
FNDA:0,_RNCNvMs_NtCsi7GHPcvMyXT_3mcp5toolsNtB6_16DynamicQueryTool19extract_source_infos2_0B8_
FNDA:0,_RNCNvMs_NtCsi7GHPcvMyXT_3mcp5toolsNtB6_16DynamicQueryTool19extract_source_infos3_0B8_
FNDA:0,_RNCNvMs_NtCsi7GHPcvMyXT_3mcp5toolsNtB6_16DynamicQueryTool19extract_source_infos4_0B8_
FNDA:0,_RNCNvMs_NtCsi7GHPcvMyXT_3mcp5toolsNtB6_16DynamicQueryTool19extract_source_infos5_0B8_
FNDA:0,_RNCNvMs_NtCsi7GHPcvMyXT_3mcp5toolsNtB6_16DynamicQueryTool19extract_source_infos6_0B8_
FNDA:0,_RNCNvMs_NtCsi7GHPcvMyXT_3mcp5toolsNtB6_16DynamicQueryTool19extract_source_infos7_0B8_
FNDA:0,_RNCNvMs_NtCsi7GHPcvMyXT_3mcp5toolsNtB6_16DynamicQueryTool19extract_source_infos8_0B8_
FNDA:0,_RNCNvMs_NtCsi7GHPcvMyXT_3mcp5toolsNtB6_16DynamicQueryTool19extract_source_infos9_0B8_
FNDA:0,_RNCNvMs_NtCsi7GHPcvMyXT_3mcp5toolsNtB6_16DynamicQueryTool19extract_source_infos_0B8_
FNDA:0,_RNCNvMs_NtCsi7GHPcvMyXT_3mcp5toolsNtB6_16DynamicQueryTool19extract_source_infosa_0B8_
FNDA:0,_RNCNvMs_NtCsi7GHPcvMyXT_3mcp5toolsNtB6_16DynamicQueryTool19extract_source_infosb_0B8_
FNDA:0,_RNCNvMs_NtCsi7GHPcvMyXT_3mcp5toolsNtB6_16DynamicQueryTool25format_content_adaptively0B8_
FNDA:0,_RNCNvMs_NtCsi7GHPcvMyXT_3mcp5toolsNtB6_16DynamicQueryTool25format_content_adaptivelys0_0B8_
FNDA:0,_RNCNvMs_NtCsi7GHPcvMyXT_3mcp5toolsNtB6_16DynamicQueryTool25format_content_adaptivelys1_0B8_
FNDA:0,_RNCNvMs_NtCsi7GHPcvMyXT_3mcp5toolsNtB6_16DynamicQueryTool25format_content_adaptivelys2_0B8_
FNDA:0,_RNCNvMs_NtCsi7GHPcvMyXT_3mcp5toolsNtB6_16DynamicQueryTool25format_content_adaptivelys_0B8_
FNDA:0,_RNCNCNvMNtCshSK2vqEfhA7_3mcp5toolsNtB6_13RustQueryTool15semantic_search00B8_
FNDA:0,_RNCNCNvMNtCshSK2vqEfhA7_3mcp5toolsNtB6_13RustQueryTool15semantic_search0s_0B8_
FNDA:0,_RNCNCNvXs1_NtCshSK2vqEfhA7_3mcp5toolsNtB9_13RustQueryToolNtB9_4Tool7execute00Bb_
FNDA:0,_RNCNCNvXs1_NtCshSK2vqEfhA7_3mcp5toolsNtB9_13RustQueryToolNtB9_4Tool7execute0s_0Bb_
FNDA:0,_RNCNCNvXs2_NtCshSK2vqEfhA7_3mcp5toolsNtB9_16DynamicQueryToolNtB9_4Tool7execute00Bb_
FNDA:0,_RNCNCNvXs2_NtCshSK2vqEfhA7_3mcp5toolsNtB9_16DynamicQueryToolNtB9_4Tool7execute0s_0Bb_
FNDA:0,_RNCNvMNtCshSK2vqEfhA7_3mcp5toolsNtB4_13RustQueryTool15semantic_search0B6_
FNDA:0,_RNCNvMs0_NtCshSK2vqEfhA7_3mcp5toolsNtB7_16DynamicQueryTool22parse_metadata_filters0B9_
FNDA:0,_RNCNvMs0_NtCshSK2vqEfhA7_3mcp5toolsNtB7_16DynamicQueryTool22parse_metadata_filterss0_0B9_
FNDA:0,_RNCNvMs0_NtCshSK2vqEfhA7_3mcp5toolsNtB7_16DynamicQueryTool22parse_metadata_filterss1_0B9_
FNDA:0,_RNCNvMs0_NtCshSK2vqEfhA7_3mcp5toolsNtB7_16DynamicQueryTool22parse_metadata_filterss2_0B9_
FNDA:0,_RNCNvMs0_NtCshSK2vqEfhA7_3mcp5toolsNtB7_16DynamicQueryTool22parse_metadata_filterss_0B9_
FNDA:0,_RNCNvMs_NtCshSK2vqEfhA7_3mcp5toolsNtB6_16DynamicQueryTool15semantic_search0B8_
FNDA:0,_RNCNvMs_NtCshSK2vqEfhA7_3mcp5toolsNtB6_16DynamicQueryTool19extract_source_info0B8_
FNDA:0,_RNCNvMs_NtCshSK2vqEfhA7_3mcp5toolsNtB6_16DynamicQueryTool19extract_source_infos0_0B8_
FNDA:0,_RNCNvMs_NtCshSK2vqEfhA7_3mcp5toolsNtB6_16DynamicQueryTool19extract_source_infos1_0B8_
FNDA:0,_RNCNvMs_NtCshSK2vqEfhA7_3mcp5toolsNtB6_16DynamicQueryTool19extract_source_infos2_0B8_
FNDA:0,_RNCNvMs_NtCshSK2vqEfhA7_3mcp5toolsNtB6_16DynamicQueryTool19extract_source_infos3_0B8_
FNDA:0,_RNCNvMs_NtCshSK2vqEfhA7_3mcp5toolsNtB6_16DynamicQueryTool19extract_source_infos4_0B8_
FNDA:0,_RNCNvMs_NtCshSK2vqEfhA7_3mcp5toolsNtB6_16DynamicQueryTool19extract_source_infos5_0B8_
FNDA:0,_RNCNvMs_NtCshSK2vqEfhA7_3mcp5toolsNtB6_16DynamicQueryTool19extract_source_infos6_0B8_
FNDA:0,_RNCNvMs_NtCshSK2vqEfhA7_3mcp5toolsNtB6_16DynamicQueryTool19extract_source_infos7_0B8_
FNDA:0,_RNCNvMs_NtCshSK2vqEfhA7_3mcp5toolsNtB6_16DynamicQueryTool19extract_source_infos8_0B8_
FNDA:0,_RNCNvMs_NtCshSK2vqEfhA7_3mcp5toolsNtB6_16DynamicQueryTool19extract_source_infos9_0B8_
FNDA:0,_RNCNvMs_NtCshSK2vqEfhA7_3mcp5toolsNtB6_16DynamicQueryTool19extract_source_infos_0B8_
FNDA:0,_RNCNvMs_NtCshSK2vqEfhA7_3mcp5toolsNtB6_16DynamicQueryTool19extract_source_infosa_0B8_
FNDA:0,_RNCNvMs_NtCshSK2vqEfhA7_3mcp5toolsNtB6_16DynamicQueryTool19extract_source_infosb_0B8_
FNDA:0,_RNCNvMs_NtCshSK2vqEfhA7_3mcp5toolsNtB6_16DynamicQueryTool25format_content_adaptively0B8_
FNDA:0,_RNCNvMs_NtCshSK2vqEfhA7_3mcp5toolsNtB6_16DynamicQueryTool25format_content_adaptivelys0_0B8_
FNDA:0,_RNCNvMs_NtCshSK2vqEfhA7_3mcp5toolsNtB6_16DynamicQueryTool25format_content_adaptivelys1_0B8_
FNDA:0,_RNCNvMs_NtCshSK2vqEfhA7_3mcp5toolsNtB6_16DynamicQueryTool25format_content_adaptivelys2_0B8_
FNDA:0,_RNCNvMs_NtCshSK2vqEfhA7_3mcp5toolsNtB6_16DynamicQueryTool25format_content_adaptivelys_0B8_
FNDA:0,_RNvMNtCshSK2vqEfhA7_3mcp5toolsNtB2_13RustQueryTool15semantic_search
FNDA:0,_RNvMNtCshSK2vqEfhA7_3mcp5toolsNtB2_13RustQueryTool3new
FNDA:0,_RNvMs0_NtCshSK2vqEfhA7_3mcp5toolsNtB5_16DynamicQueryTool22parse_metadata_filters
FNDA:0,_RNvMs_NtCshSK2vqEfhA7_3mcp5toolsNtB4_16DynamicQueryTool15semantic_search
FNDA:0,_RNvMs_NtCshSK2vqEfhA7_3mcp5toolsNtB4_16DynamicQueryTool19extract_source_info
FNDA:0,_RNvMs_NtCshSK2vqEfhA7_3mcp5toolsNtB4_16DynamicQueryTool25calculate_relevance_score
FNDA:0,_RNvMs_NtCshSK2vqEfhA7_3mcp5toolsNtB4_16DynamicQueryTool25format_content_adaptively
FNDA:0,_RNvMs_NtCshSK2vqEfhA7_3mcp5toolsNtB4_16DynamicQueryTool3new
FNDA:0,_RNvXs1_NtCshSK2vqEfhA7_3mcp5toolsNtB5_13RustQueryToolNtB5_4Tool10definition
FNDA:0,_RNvXs1_NtCshSK2vqEfhA7_3mcp5toolsNtB5_13RustQueryToolNtB5_4Tool7execute
FNDA:0,_RNvXs2_NtCshSK2vqEfhA7_3mcp5toolsNtB5_16DynamicQueryToolNtB5_4Tool10definition
FNDA:0,_RNvXs2_NtCshSK2vqEfhA7_3mcp5toolsNtB5_16DynamicQueryToolNtB5_4Tool7execute
FNF:44
FNH:0
DA:39,0
DA:40,0
DA:42,0
DA:43,0
DA:44,0
DA:45,0
DA:46,0
DA:49,0
DA:50,0
DA:53,0
DA:56,0
DA:57,0
DA:58,0
DA:59,0
DA:60,0
DA:61,0
DA:63,0
DA:64,0
DA:65,0
DA:68,0
DA:69,0
DA:70,0
DA:73,0
DA:74,0
DA:75,0
DA:76,0
DA:77,0
DA:78,0
DA:79,0
DA:81,0
DA:82,0
DA:83,0
DA:84,0
DA:86,0
DA:90,0
DA:91,0
DA:96,0
DA:97,0
DA:98,0
DA:99,0
DA:100,0
DA:101,0
DA:102,0
DA:103,0
DA:104,0
DA:105,0
DA:107,0
DA:108,0
DA:109,0
DA:110,0
DA:111,0
DA:114,0
DA:117,0
DA:119,0
DA:122,0
DA:123,0
DA:135,0
DA:152,0
DA:153,0
DA:155,0
DA:156,0
DA:157,0
DA:158,0
DA:159,0
DA:160,0
DA:163,0
DA:164,0
DA:165,0
DA:166,0
DA:167,0
DA:168,0
DA:169,0
DA:170,0
DA:175,0
DA:178,0
DA:179,0
DA:180,0
DA:181,0
DA:182,0
DA:183,0
DA:184,0
DA:185,0
DA:186,0
DA:188,0
DA:189,0
DA:190,0
DA:191,0
DA:192,0
DA:193,0
DA:194,0
DA:197,0
DA:198,0
DA:199,0
DA:200,0
DA:201,0
DA:202,0
DA:205,0
DA:206,0
DA:207,0
DA:211,0
DA:212,0
DA:213,0
DA:214,0
DA:215,0
DA:216,0
DA:217,0
DA:218,0
DA:219,0
DA:220,0
DA:221,0
DA:222,0
DA:223,0
DA:224,0
DA:225,0
DA:226,0
DA:228,0
DA:229,0
DA:232,0
DA:234,0
DA:235,0
DA:236,0
DA:237,0
DA:238,0
DA:240,0
DA:241,0
DA:243,0
DA:244,0
DA:245,0
DA:246,0
DA:249,0
DA:251,0
DA:252,0
DA:253,0
DA:254,0
DA:255,0
DA:256,0
DA:257,0
DA:258,0
DA:259,0
DA:260,0
DA:261,0
DA:262,0
DA:264,0
DA:265,0
DA:269,0
DA:272,0
DA:274,0
DA:275,0
DA:277,0
DA:280,0
DA:285,0
DA:286,0
DA:287,0
DA:291,0
DA:294,0
DA:295,0
DA:296,0
DA:298,0
DA:299,0
DA:300,0
DA:301,0
DA:302,0
DA:303,0
DA:304,0
DA:307,0
DA:309,0
DA:310,0
DA:311,0
DA:312,0
DA:313,0
DA:314,0
DA:315,0
DA:316,0
DA:317,0
DA:318,0
DA:319,0
DA:320,0
DA:321,0
DA:322,0
DA:323,0
DA:324,0
DA:325,0
DA:326,0
DA:327,0
DA:329,0
DA:331,0
DA:332,0
DA:333,0
DA:334,0
DA:335,0
DA:336,0
DA:337,0
DA:338,0
DA:339,0
DA:340,0
DA:341,0
DA:342,0
DA:343,0
DA:347,0
DA:350,0
DA:354,0
DA:359,0
DA:361,0
DA:366,0
DA:367,0
DA:368,0
DA:369,0
DA:370,0
DA:372,0
DA:373,0
DA:374,0
DA:375,0
DA:376,0
DA:381,0
DA:382,0
DA:384,0
DA:385,0
DA:386,0
DA:387,0
DA:388,0
DA:389,0
DA:390,0
DA:392,0
DA:393,0
DA:394,0
DA:395,0
DA:396,0
DA:397,0
DA:398,0
DA:400,0
DA:401,0
DA:402,0
DA:403,0
DA:404,0
DA:405,0
DA:406,0
DA:408,0
DA:409,0
DA:410,0
DA:411,0
DA:412,0
DA:413,0
DA:414,0
DA:416,0
DA:417,0
DA:418,0
DA:419,0
DA:420,0
DA:421,0
DA:422,0
DA:423,0
DA:424,0
DA:425,0
DA:427,0
DA:428,0
DA:429,0
DA:430,0
DA:431,0
DA:432,0
DA:433,0
DA:436,0
DA:438,0
DA:441,0
DA:442,0
DA:457,0
DA:462,0
DA:463,0
DA:464,0
DA:467,0
DA:468,0
DA:469,0
DA:470,0
DA:471,0
DA:472,0
DA:473,0
DA:474,0
DA:475,0
DA:476,0
DA:477,0
DA:479,0
DA:480,0
DA:483,0
DA:484,0
DA:485,0
DA:486,0
DA:487,0
DA:488,0
DA:489,0
DA:490,0
DA:491,0
DA:492,0
DA:493,0
DA:494,0
DA:495,0
DA:496,0
DA:498,0
DA:499,0
DA:502,0
DA:503,0
DA:504,0
DA:505,0
DA:506,0
DA:507,0
DA:508,0
DA:509,0
DA:510,0
DA:511,0
DA:512,0
DA:513,0
DA:514,0
DA:515,0
DA:517,0
DA:518,0
DA:521,0
DA:522,0
DA:523,0
DA:524,0
DA:525,0
DA:526,0
DA:527,0
DA:528,0
DA:529,0
DA:530,0
DA:531,0
DA:533,0
DA:534,0
DA:537,0
DA:538,0
DA:539,0
DA:540,0
DA:541,0
DA:542,0
DA:543,0
DA:545,0
DA:546,0
DA:548,0
DA:549,0
DA:551,0
DA:553,0
BRF:0
BRH:0
LF:365
LH:0
end_of_record
SF:/workspace/agent-docs/mcp/src/transport.rs
FN:712,_RNCNCNvNtCsi7GHPcvMyXT_3mcp9transport20initialize_transport00B7_
FN:708,_RNCNvNtCsi7GHPcvMyXT_3mcp9transport20initialize_transport0B5_
FN:223,_RNvMs1_NtCsi7GHPcvMyXT_3mcp9transportNtB5_14SessionManager13session_count
FN:129,_RNvMs1_NtCsi7GHPcvMyXT_3mcp9transportNtB5_14SessionManager14create_session
FN:148,_RNvMs1_NtCsi7GHPcvMyXT_3mcp9transportNtB5_14SessionManager21get_or_create_session
FN:179,_RNvMs1_NtCsi7GHPcvMyXT_3mcp9transportNtB5_14SessionManager23update_session_activity
FN:199,_RNvMs1_NtCsi7GHPcvMyXT_3mcp9transportNtB5_14SessionManager24cleanup_expired_sessions
FN:117,_RNvMs1_NtCsi7GHPcvMyXT_3mcp9transportNtB5_14SessionManager3new
FN:94,_RNvMs_NtCsi7GHPcvMyXT_3mcp9transportNtB4_10McpSession10is_expired
FN:86,_RNvMs_NtCsi7GHPcvMyXT_3mcp9transportNtB4_10McpSession15update_activity
FN:74,_RNvMs_NtCsi7GHPcvMyXT_3mcp9transportNtB4_10McpSession3new
FN:457,_RNvNtCsi7GHPcvMyXT_3mcp9transport19extract_client_info
FN:325,_RNvNtCsi7GHPcvMyXT_3mcp9transport19unified_mcp_handler
FN:708,_RNvNtCsi7GHPcvMyXT_3mcp9transport20initialize_transport
FN:417,_RNvNtCsi7GHPcvMyXT_3mcp9transport22validate_accept_header
FN:591,_RNvNtCsi7GHPcvMyXT_3mcp9transport23handle_json_rpc_request
FN:368,_RNvNtCsi7GHPcvMyXT_3mcp9transport24unified_mcp_handler_impl
FN:522,_RNvNtCsi7GHPcvMyXT_3mcp9transport29handle_delete_session_request
FN:476,_RNvNtCsi7GHPcvMyXT_3mcp9transport35get_or_create_comprehensive_session
FN:41,_RNvXNtCsi7GHPcvMyXT_3mcp9transportNtB2_15TransportConfigNtNtCs66KPHxksi63_4core7default7Default7default
FN:102,_RNvXs0_NtCsi7GHPcvMyXT_3mcp9transportNtB5_10McpSessionNtNtCs66KPHxksi63_4core7default7Default7default
FN:276,_RNvXs2_NtCsi7GHPcvMyXT_3mcp9transportNtB5_14TransportErrorNtNtNtCsl3nYzWiYlSC_9axum_core8response13into_response12IntoResponse13into_response
FN:336,_RNCNCNvNtCsi7GHPcvMyXT_3mcp9transport19unified_mcp_handler00B7_
FN:352,_RNCNCNvNtCsi7GHPcvMyXT_3mcp9transport19unified_mcp_handler0s_0B7_
FN:617,_RNCNCNvNtCsi7GHPcvMyXT_3mcp9transport23handle_json_rpc_request00B7_
FN:660,_RNCNCNvNtCsi7GHPcvMyXT_3mcp9transport23handle_json_rpc_request0s0_0B7_
FN:668,_RNCNCNvNtCsi7GHPcvMyXT_3mcp9transport23handle_json_rpc_request0s1_0B7_
FN:649,_RNCNCNvNtCsi7GHPcvMyXT_3mcp9transport23handle_json_rpc_request0s_0B7_
FN:381,_RNCNCNvNtCsi7GHPcvMyXT_3mcp9transport24unified_mcp_handler_impl00B7_
FN:186,_RNCNvMs1_NtCsi7GHPcvMyXT_3mcp9transportNtB7_14SessionManager23update_session_activitys_0B9_
FN:206,_RNCNvMs1_NtCsi7GHPcvMyXT_3mcp9transportNtB7_14SessionManager24cleanup_expired_sessionss_0B9_
FN:97,_RNCNvMs_NtCsi7GHPcvMyXT_3mcp9transportNtB6_10McpSession10is_expired0B8_
FN:461,_RNCNvNtCsi7GHPcvMyXT_3mcp9transport19extract_client_info0B5_
FN:465,_RNCNvNtCsi7GHPcvMyXT_3mcp9transport19extract_client_infos_0B5_
FN:329,_RNCNvNtCsi7GHPcvMyXT_3mcp9transport19unified_mcp_handler0B5_
FN:596,_RNCNvNtCsi7GHPcvMyXT_3mcp9transport23handle_json_rpc_request0B5_
FN:373,_RNCNvNtCsi7GHPcvMyXT_3mcp9transport24unified_mcp_handler_impl0B5_
FN:514,_RNCNvNtCsi7GHPcvMyXT_3mcp9transport35get_or_create_comprehensive_session0B5_
FN:712,_RNCNCNvNtCsi7GHPcvMyXT_3mcp9transport20initialize_transport00CsiLqmQIFToUG_11http_server
FN:708,_RNCNvNtCsi7GHPcvMyXT_3mcp9transport20initialize_transport0CsiLqmQIFToUG_11http_server
FN:712,_RNCNCNvNtCsi7GHPcvMyXT_3mcp9transport20initialize_transport00CsaT2uQ1v1wmQ_18json_only_mvp_test
FN:708,_RNCNvNtCsi7GHPcvMyXT_3mcp9transport20initialize_transport0CsaT2uQ1v1wmQ_18json_only_mvp_test
FN:336,_RNCNCNvNtCshSK2vqEfhA7_3mcp9transport19unified_mcp_handler00B7_
FN:352,_RNCNCNvNtCshSK2vqEfhA7_3mcp9transport19unified_mcp_handler0s_0B7_
FN:712,_RNCNCNvNtCshSK2vqEfhA7_3mcp9transport20initialize_transport00B7_
FN:617,_RNCNCNvNtCshSK2vqEfhA7_3mcp9transport23handle_json_rpc_request00B7_
FN:660,_RNCNCNvNtCshSK2vqEfhA7_3mcp9transport23handle_json_rpc_request0s0_0B7_
FN:668,_RNCNCNvNtCshSK2vqEfhA7_3mcp9transport23handle_json_rpc_request0s1_0B7_
FN:649,_RNCNCNvNtCshSK2vqEfhA7_3mcp9transport23handle_json_rpc_request0s_0B7_
FN:381,_RNCNCNvNtCshSK2vqEfhA7_3mcp9transport24unified_mcp_handler_impl00B7_
FN:186,_RNCNvMs1_NtCshSK2vqEfhA7_3mcp9transportNtB7_14SessionManager23update_session_activitys_0B9_
FN:206,_RNCNvMs1_NtCshSK2vqEfhA7_3mcp9transportNtB7_14SessionManager24cleanup_expired_sessionss_0B9_
FN:97,_RNCNvMs_NtCshSK2vqEfhA7_3mcp9transportNtB6_10McpSession10is_expired0B8_
FN:461,_RNCNvNtCshSK2vqEfhA7_3mcp9transport19extract_client_info0B5_
FN:465,_RNCNvNtCshSK2vqEfhA7_3mcp9transport19extract_client_infos_0B5_
FN:329,_RNCNvNtCshSK2vqEfhA7_3mcp9transport19unified_mcp_handler0B5_
FN:708,_RNCNvNtCshSK2vqEfhA7_3mcp9transport20initialize_transport0B5_
FN:596,_RNCNvNtCshSK2vqEfhA7_3mcp9transport23handle_json_rpc_request0B5_
FN:373,_RNCNvNtCshSK2vqEfhA7_3mcp9transport24unified_mcp_handler_impl0B5_
FN:514,_RNCNvNtCshSK2vqEfhA7_3mcp9transport35get_or_create_comprehensive_session0B5_
FN:223,_RNvMs1_NtCshSK2vqEfhA7_3mcp9transportNtB5_14SessionManager13session_count
FN:129,_RNvMs1_NtCshSK2vqEfhA7_3mcp9transportNtB5_14SessionManager14create_session
FN:148,_RNvMs1_NtCshSK2vqEfhA7_3mcp9transportNtB5_14SessionManager21get_or_create_session
FN:179,_RNvMs1_NtCshSK2vqEfhA7_3mcp9transportNtB5_14SessionManager23update_session_activity
FN:199,_RNvMs1_NtCshSK2vqEfhA7_3mcp9transportNtB5_14SessionManager24cleanup_expired_sessions
FN:117,_RNvMs1_NtCshSK2vqEfhA7_3mcp9transportNtB5_14SessionManager3new
FN:94,_RNvMs_NtCshSK2vqEfhA7_3mcp9transportNtB4_10McpSession10is_expired
FN:86,_RNvMs_NtCshSK2vqEfhA7_3mcp9transportNtB4_10McpSession15update_activity
FN:74,_RNvMs_NtCshSK2vqEfhA7_3mcp9transportNtB4_10McpSession3new
FN:457,_RNvNtCshSK2vqEfhA7_3mcp9transport19extract_client_info
FN:325,_RNvNtCshSK2vqEfhA7_3mcp9transport19unified_mcp_handler
FN:708,_RNvNtCshSK2vqEfhA7_3mcp9transport20initialize_transport
FN:417,_RNvNtCshSK2vqEfhA7_3mcp9transport22validate_accept_header
FN:591,_RNvNtCshSK2vqEfhA7_3mcp9transport23handle_json_rpc_request
FN:368,_RNvNtCshSK2vqEfhA7_3mcp9transport24unified_mcp_handler_impl
FN:522,_RNvNtCshSK2vqEfhA7_3mcp9transport29handle_delete_session_request
FN:476,_RNvNtCshSK2vqEfhA7_3mcp9transport35get_or_create_comprehensive_session
FN:41,_RNvXNtCshSK2vqEfhA7_3mcp9transportNtB2_15TransportConfigNtNtCs66KPHxksi63_4core7default7Default7default
FN:102,_RNvXs0_NtCshSK2vqEfhA7_3mcp9transportNtB5_10McpSessionNtNtCs66KPHxksi63_4core7default7Default7default
FN:276,_RNvXs2_NtCshSK2vqEfhA7_3mcp9transportNtB5_14TransportErrorNtNtNtCsl3nYzWiYlSC_9axum_core8response13into_response12IntoResponse13into_response
FN:712,_RNCNCNvNtCsi7GHPcvMyXT_3mcp9transport20initialize_transport00CscIjP2UPxd8q_12routing_test
FN:708,_RNCNvNtCsi7GHPcvMyXT_3mcp9transport20initialize_transport0CscIjP2UPxd8q_12routing_test
FN:712,_RNCNCNvNtCsi7GHPcvMyXT_3mcp9transport20initialize_transport00CsbO9dfj64rIG_21transport_integration
FN:708,_RNCNvNtCsi7GHPcvMyXT_3mcp9transport20initialize_transport0CsbO9dfj64rIG_21transport_integration
FNDA:0,_RNCNCNvNtCsi7GHPcvMyXT_3mcp9transport20initialize_transport00B7_
FNDA:0,_RNCNvNtCsi7GHPcvMyXT_3mcp9transport20initialize_transport0B5_
FNDA:5,_RNvMs1_NtCsi7GHPcvMyXT_3mcp9transportNtB5_14SessionManager13session_count
FNDA:17,_RNvMs1_NtCsi7GHPcvMyXT_3mcp9transportNtB5_14SessionManager14create_session
FNDA:6,_RNvMs1_NtCsi7GHPcvMyXT_3mcp9transportNtB5_14SessionManager21get_or_create_session
FNDA:1,_RNvMs1_NtCsi7GHPcvMyXT_3mcp9transportNtB5_14SessionManager23update_session_activity
FNDA:1,_RNvMs1_NtCsi7GHPcvMyXT_3mcp9transportNtB5_14SessionManager24cleanup_expired_sessions
FNDA:16,_RNvMs1_NtCsi7GHPcvMyXT_3mcp9transportNtB5_14SessionManager3new
FNDA:3,_RNvMs_NtCsi7GHPcvMyXT_3mcp9transportNtB4_10McpSession10is_expired
FNDA:2,_RNvMs_NtCsi7GHPcvMyXT_3mcp9transportNtB4_10McpSession15update_activity
FNDA:19,_RNvMs_NtCsi7GHPcvMyXT_3mcp9transportNtB4_10McpSession3new
FNDA:0,_RNvNtCsi7GHPcvMyXT_3mcp9transport19extract_client_info
FNDA:0,_RNvNtCsi7GHPcvMyXT_3mcp9transport19unified_mcp_handler
FNDA:0,_RNvNtCsi7GHPcvMyXT_3mcp9transport20initialize_transport
FNDA:0,_RNvNtCsi7GHPcvMyXT_3mcp9transport22validate_accept_header
FNDA:0,_RNvNtCsi7GHPcvMyXT_3mcp9transport23handle_json_rpc_request
FNDA:0,_RNvNtCsi7GHPcvMyXT_3mcp9transport24unified_mcp_handler_impl
FNDA:0,_RNvNtCsi7GHPcvMyXT_3mcp9transport29handle_delete_session_request
FNDA:0,_RNvNtCsi7GHPcvMyXT_3mcp9transport35get_or_create_comprehensive_session
FNDA:17,_RNvXNtCsi7GHPcvMyXT_3mcp9transportNtB2_15TransportConfigNtNtCs66KPHxksi63_4core7default7Default7default
FNDA:0,_RNvXs0_NtCsi7GHPcvMyXT_3mcp9transportNtB5_10McpSessionNtNtCs66KPHxksi63_4core7default7Default7default
FNDA:8,_RNvXs2_NtCsi7GHPcvMyXT_3mcp9transportNtB5_14TransportErrorNtNtNtCsl3nYzWiYlSC_9axum_core8response13into_response12IntoResponse13into_response
FNDA:0,_RNCNCNvNtCsi7GHPcvMyXT_3mcp9transport19unified_mcp_handler00B7_
FNDA:0,_RNCNCNvNtCsi7GHPcvMyXT_3mcp9transport19unified_mcp_handler0s_0B7_
FNDA:0,_RNCNCNvNtCsi7GHPcvMyXT_3mcp9transport23handle_json_rpc_request00B7_
FNDA:0,_RNCNCNvNtCsi7GHPcvMyXT_3mcp9transport23handle_json_rpc_request0s0_0B7_
FNDA:0,_RNCNCNvNtCsi7GHPcvMyXT_3mcp9transport23handle_json_rpc_request0s1_0B7_
FNDA:0,_RNCNCNvNtCsi7GHPcvMyXT_3mcp9transport23handle_json_rpc_request0s_0B7_
FNDA:0,_RNCNCNvNtCsi7GHPcvMyXT_3mcp9transport24unified_mcp_handler_impl00B7_
FNDA:1,_RNCNvMs1_NtCsi7GHPcvMyXT_3mcp9transportNtB7_14SessionManager23update_session_activitys_0B9_
FNDA:1,_RNCNvMs1_NtCsi7GHPcvMyXT_3mcp9transportNtB7_14SessionManager24cleanup_expired_sessionss_0B9_
FNDA:3,_RNCNvMs_NtCsi7GHPcvMyXT_3mcp9transportNtB6_10McpSession10is_expired0B8_
FNDA:0,_RNCNvNtCsi7GHPcvMyXT_3mcp9transport19extract_client_info0B5_
FNDA:0,_RNCNvNtCsi7GHPcvMyXT_3mcp9transport19extract_client_infos_0B5_
FNDA:0,_RNCNvNtCsi7GHPcvMyXT_3mcp9transport19unified_mcp_handler0B5_
FNDA:0,_RNCNvNtCsi7GHPcvMyXT_3mcp9transport23handle_json_rpc_request0B5_
FNDA:0,_RNCNvNtCsi7GHPcvMyXT_3mcp9transport24unified_mcp_handler_impl0B5_
FNDA:0,_RNCNvNtCsi7GHPcvMyXT_3mcp9transport35get_or_create_comprehensive_session0B5_
FNDA:0,_RNCNCNvNtCsi7GHPcvMyXT_3mcp9transport20initialize_transport00CsiLqmQIFToUG_11http_server
FNDA:0,_RNCNvNtCsi7GHPcvMyXT_3mcp9transport20initialize_transport0CsiLqmQIFToUG_11http_server
FNDA:0,_RNCNCNvNtCsi7GHPcvMyXT_3mcp9transport20initialize_transport00CsaT2uQ1v1wmQ_18json_only_mvp_test
FNDA:0,_RNCNvNtCsi7GHPcvMyXT_3mcp9transport20initialize_transport0CsaT2uQ1v1wmQ_18json_only_mvp_test
FNDA:0,_RNCNCNvNtCshSK2vqEfhA7_3mcp9transport19unified_mcp_handler00B7_
FNDA:0,_RNCNCNvNtCshSK2vqEfhA7_3mcp9transport19unified_mcp_handler0s_0B7_
FNDA:0,_RNCNCNvNtCshSK2vqEfhA7_3mcp9transport20initialize_transport00B7_
FNDA:0,_RNCNCNvNtCshSK2vqEfhA7_3mcp9transport23handle_json_rpc_request00B7_
FNDA:0,_RNCNCNvNtCshSK2vqEfhA7_3mcp9transport23handle_json_rpc_request0s0_0B7_
FNDA:0,_RNCNCNvNtCshSK2vqEfhA7_3mcp9transport23handle_json_rpc_request0s1_0B7_
FNDA:0,_RNCNCNvNtCshSK2vqEfhA7_3mcp9transport23handle_json_rpc_request0s_0B7_
FNDA:0,_RNCNCNvNtCshSK2vqEfhA7_3mcp9transport24unified_mcp_handler_impl00B7_
FNDA:0,_RNCNvMs1_NtCshSK2vqEfhA7_3mcp9transportNtB7_14SessionManager23update_session_activitys_0B9_
FNDA:0,_RNCNvMs1_NtCshSK2vqEfhA7_3mcp9transportNtB7_14SessionManager24cleanup_expired_sessionss_0B9_
FNDA:0,_RNCNvMs_NtCshSK2vqEfhA7_3mcp9transportNtB6_10McpSession10is_expired0B8_
FNDA:0,_RNCNvNtCshSK2vqEfhA7_3mcp9transport19extract_client_info0B5_
FNDA:0,_RNCNvNtCshSK2vqEfhA7_3mcp9transport19extract_client_infos_0B5_
FNDA:0,_RNCNvNtCshSK2vqEfhA7_3mcp9transport19unified_mcp_handler0B5_
FNDA:0,_RNCNvNtCshSK2vqEfhA7_3mcp9transport20initialize_transport0B5_
FNDA:0,_RNCNvNtCshSK2vqEfhA7_3mcp9transport23handle_json_rpc_request0B5_
FNDA:0,_RNCNvNtCshSK2vqEfhA7_3mcp9transport24unified_mcp_handler_impl0B5_
FNDA:0,_RNCNvNtCshSK2vqEfhA7_3mcp9transport35get_or_create_comprehensive_session0B5_
FNDA:0,_RNvMs1_NtCshSK2vqEfhA7_3mcp9transportNtB5_14SessionManager13session_count
FNDA:0,_RNvMs1_NtCshSK2vqEfhA7_3mcp9transportNtB5_14SessionManager14create_session
FNDA:0,_RNvMs1_NtCshSK2vqEfhA7_3mcp9transportNtB5_14SessionManager21get_or_create_session
FNDA:0,_RNvMs1_NtCshSK2vqEfhA7_3mcp9transportNtB5_14SessionManager23update_session_activity
FNDA:0,_RNvMs1_NtCshSK2vqEfhA7_3mcp9transportNtB5_14SessionManager24cleanup_expired_sessions
FNDA:0,_RNvMs1_NtCshSK2vqEfhA7_3mcp9transportNtB5_14SessionManager3new
FNDA:0,_RNvMs_NtCshSK2vqEfhA7_3mcp9transportNtB4_10McpSession10is_expired
FNDA:0,_RNvMs_NtCshSK2vqEfhA7_3mcp9transportNtB4_10McpSession15update_activity
FNDA:0,_RNvMs_NtCshSK2vqEfhA7_3mcp9transportNtB4_10McpSession3new
FNDA:0,_RNvNtCshSK2vqEfhA7_3mcp9transport19extract_client_info
FNDA:0,_RNvNtCshSK2vqEfhA7_3mcp9transport19unified_mcp_handler
FNDA:0,_RNvNtCshSK2vqEfhA7_3mcp9transport20initialize_transport
FNDA:0,_RNvNtCshSK2vqEfhA7_3mcp9transport22validate_accept_header
FNDA:0,_RNvNtCshSK2vqEfhA7_3mcp9transport23handle_json_rpc_request
FNDA:0,_RNvNtCshSK2vqEfhA7_3mcp9transport24unified_mcp_handler_impl
FNDA:0,_RNvNtCshSK2vqEfhA7_3mcp9transport29handle_delete_session_request
FNDA:0,_RNvNtCshSK2vqEfhA7_3mcp9transport35get_or_create_comprehensive_session
FNDA:0,_RNvXNtCshSK2vqEfhA7_3mcp9transportNtB2_15TransportConfigNtNtCs66KPHxksi63_4core7default7Default7default
FNDA:0,_RNvXs0_NtCshSK2vqEfhA7_3mcp9transportNtB5_10McpSessionNtNtCs66KPHxksi63_4core7default7Default7default
FNDA:0,_RNvXs2_NtCshSK2vqEfhA7_3mcp9transportNtB5_14TransportErrorNtNtNtCsl3nYzWiYlSC_9axum_core8response13into_response12IntoResponse13into_response
FNDA:0,_RNCNCNvNtCsi7GHPcvMyXT_3mcp9transport20initialize_transport00CscIjP2UPxd8q_12routing_test
FNDA:0,_RNCNvNtCsi7GHPcvMyXT_3mcp9transport20initialize_transport0CscIjP2UPxd8q_12routing_test
FNDA:0,_RNCNCNvNtCsi7GHPcvMyXT_3mcp9transport20initialize_transport00CsbO9dfj64rIG_21transport_integration
FNDA:0,_RNCNvNtCsi7GHPcvMyXT_3mcp9transport20initialize_transport0CsbO9dfj64rIG_21transport_integration
FNF:38
FNH:14
DA:41,17
DA:42,17
DA:43,17
DA:44,17
DA:45,17
DA:46,17
DA:47,17
DA:48,17
DA:74,19
DA:75,19
DA:76,19
DA:77,19
DA:78,19
DA:79,19
DA:80,19
DA:81,19
DA:82,19
DA:83,19
DA:86,2
DA:87,2
DA:88,2
DA:89,2
DA:90,2
DA:94,3
DA:95,3
DA:96,3
DA:97,3
DA:98,3
DA:102,0
DA:103,0
DA:104,0
DA:117,16
DA:118,16
DA:119,16
DA:120,16
DA:121,16
DA:122,16
DA:129,17
DA:130,17
DA:131,17
DA:133,17
DA:134,17
DA:135,17
DA:136,17
DA:138,17
DA:139,17
DA:140,17
DA:148,6
DA:150,6
DA:151,1
DA:152,1
DA:154,1
DA:155,1
DA:156,1
DA:157,0
DA:159,1
DA:160,1
DA:161,1
DA:163,0
DA:164,0
DA:165,0
DA:166,0
DA:167,5
DA:170,5
DA:171,6
DA:179,1
DA:180,1
DA:181,1
DA:182,1
DA:183,1
DA:184,1
DA:185,1
DA:186,1
DA:187,1
DA:188,1
DA:189,1
DA:191,1
DA:199,1
DA:200,1
DA:201,1
DA:202,1
DA:203,1
DA:204,1
DA:206,1
DA:208,1
DA:209,1
DA:210,1
DA:211,1
DA:212,0
DA:214,1
DA:215,1
DA:223,5
DA:224,5
DA:225,5
DA:226,5
DA:227,5
DA:228,5
DA:229,5
DA:276,8
DA:277,8
DA:278,3
DA:280,2
DA:282,0
DA:283,0
DA:284,0
DA:285,1
DA:286,1
DA:287,1
DA:288,0
DA:289,0
DA:291,0
DA:293,0
DA:294,0
DA:297,8
DA:299,8
DA:300,8
DA:301,8
DA:302,8
DA:303,8
DA:307,8
DA:308,8
DA:310,8
DA:311,8
DA:325,0
DA:326,0
DA:327,0
DA:328,0
DA:329,0
DA:331,0
DA:334,0
DA:335,0
DA:336,0
DA:337,0
DA:338,0
DA:340,0
DA:341,0
DA:344,0
DA:352,0
DA:354,0
DA:356,0
DA:357,0
DA:361,0
DA:362,0
DA:363,0
DA:364,0
DA:365,0
DA:368,0
DA:369,0
DA:370,0
DA:371,0
DA:372,0
DA:373,0
DA:375,0
DA:376,0
DA:377,0
DA:379,0
DA:380,0
DA:381,0
DA:382,0
DA:383,0
DA:385,0
DA:386,0
DA:387,0
DA:389,0
DA:393,0
DA:395,0
DA:396,0
DA:397,0
DA:400,0
DA:401,0
DA:402,0
DA:405,0
DA:406,0
DA:407,0
DA:410,0
DA:417,0
DA:418,0
DA:419,0
DA:420,0
DA:423,0
DA:425,0
DA:426,0
DA:427,0
DA:429,0
DA:431,0
DA:432,0
DA:433,0
DA:434,0
DA:439,0
DA:441,0
DA:444,0
DA:445,0
DA:446,0
DA:447,0
DA:451,0
DA:452,0
DA:454,0
DA:457,0
DA:459,0
DA:460,0
DA:461,0
DA:462,0
DA:463,0
DA:464,0
DA:465,0
DA:466,0
DA:467,0
DA:469,0
DA:476,0
DA:477,0
DA:478,0
DA:479,0
DA:480,0
DA:482,0
DA:483,0
DA:484,0
DA:486,0
DA:487,0
DA:488,0
DA:489,0
DA:490,0
DA:492,0
DA:493,0
DA:494,0
DA:499,0
DA:500,0
DA:501,0
DA:502,0
DA:503,0
DA:505,0
DA:506,0
DA:507,0
DA:508,0
DA:511,0
DA:512,0
DA:513,0
DA:514,0
DA:516,0
DA:517,0
DA:518,0
DA:519,0
DA:522,0
DA:523,0
DA:524,0
DA:525,0
DA:526,0
DA:527,0
DA:530,0
DA:531,0
DA:532,0
DA:533,0
DA:535,0
DA:536,0
DA:537,0
DA:538,0
DA:541,0
DA:542,0
DA:543,0
DA:545,0
DA:546,0
DA:547,0
DA:548,0
DA:550,0
DA:551,0
DA:554,0
DA:555,0
DA:556,0
DA:558,0
DA:560,0
DA:563,0
DA:564,0
DA:565,0
DA:567,0
DA:570,0
DA:571,0
DA:574,0
DA:577,0
DA:578,0
DA:579,0
DA:580,0
DA:583,0
DA:584,0
DA:585,0
DA:586,0
DA:588,0
DA:591,0
DA:592,0
DA:593,0
DA:594,0
DA:595,0
DA:596,0
DA:597,0
DA:600,0
DA:601,0
DA:602,0
DA:603,0
DA:604,0
DA:606,0
DA:607,0
DA:608,0
DA:609,0
DA:610,0
DA:613,0
DA:614,0
DA:615,0
DA:616,0
DA:617,0
DA:619,0
DA:620,0
DA:621,0
DA:624,0
DA:627,0
DA:630,0
DA:633,0
DA:636,0
DA:637,0
DA:638,0
DA:639,0
DA:640,0
DA:641,0
DA:642,0
DA:643,0
DA:644,0
DA:647,0
DA:648,0
DA:649,0
DA:650,0
DA:651,0
DA:652,0
DA:653,0
DA:655,0
DA:657,0
DA:660,0
DA:661,0
DA:662,0
DA:663,0
DA:666,0
DA:667,0
DA:668,0
DA:670,0
DA:674,0
DA:679,0
DA:680,0
DA:681,0
DA:682,0
DA:685,0
DA:686,0
DA:687,0
DA:690,0
DA:691,0
DA:692,0
DA:694,0
DA:696,0
DA:697,0
DA:698,0
DA:699,0
DA:702,0
DA:708,0
DA:709,0
DA:710,0
DA:712,0
DA:713,0
DA:716,0
DA:718,0
DA:719,0
DA:720,0
DA:721,0
DA:722,0
DA:724,0
DA:725,0
DA:731,0
DA:732,0
BRF:0
BRH:0
LF:390
LH:108
end_of_record