SF:/workspace/agent-docs/db/src/connection.rs
FN:177,_RNCNCNCNvMNtCs9JGNcCDhGtu_2db10connectionNtB8_12DatabasePool11with_config000CslLy1HX4eQ2Z_22crate_tools_unit_tests
FN:193,_RNCNCNvMNtCs9JGNcCDhGtu_2db10connectionNtB6_12DatabasePool11with_config00CslLy1HX4eQ2Z_22crate_tools_unit_tests
FN:151,_RNCNvMNtCs9JGNcCDhGtu_2db10connectionNtB4_12DatabasePool11with_config0CslLy1HX4eQ2Z_22crate_tools_unit_tests
FN:129,_RNCNvMNtCs9JGNcCDhGtu_2db10connectionNtB4_12DatabasePool3new0CslLy1HX4eQ2Z_22crate_tools_unit_tests
FN:317,_RNCNvMNtCs9JGNcCDhGtu_2db10connectionNtB4_12DatabasePool10get_status0B6_
FN:258,_RNCNvMNtCs9JGNcCDhGtu_2db10connectionNtB4_12DatabasePool12health_check0B6_
FN:385,_RNCNvMNtCs9JGNcCDhGtu_2db10connectionNtB4_12DatabasePool16start_monitoring0B6_
FN:241,_RNCNvMNtCs9JGNcCDhGtu_2db10connectionNtB4_12DatabasePool4ping0B6_
FN:317,_RNvMNtCs9JGNcCDhGtu_2db10connectionNtB2_12DatabasePool10get_status
FN:151,_RNvMNtCs9JGNcCDhGtu_2db10connectionNtB2_12DatabasePool11with_config
FN:258,_RNvMNtCs9JGNcCDhGtu_2db10connectionNtB2_12DatabasePool12health_check
FN:336,_RNvMNtCs9JGNcCDhGtu_2db10connectionNtB2_12DatabasePool13get_pool_size
FN:383,_RNvMNtCs9JGNcCDhGtu_2db10connectionNtB2_12DatabasePool16start_monitoring
FN:346,_RNvMNtCs9JGNcCDhGtu_2db10connectionNtB2_12DatabasePool20get_metrics_snapshot
FN:129,_RNvMNtCs9JGNcCDhGtu_2db10connectionNtB2_12DatabasePool3new
FN:241,_RNvMNtCs9JGNcCDhGtu_2db10connectionNtB2_12DatabasePool4ping
FN:226,_RNvMNtCs9JGNcCDhGtu_2db10connectionNtB2_12DatabasePool4pool
FN:232,_RNvMNtCs9JGNcCDhGtu_2db10connectionNtB2_12DatabasePool6config
FN:89,_RNvMNtCs9JGNcCDhGtu_2db10connectionNtB2_12DatabasePool7connect
FN:140,_RNvMNtCs9JGNcCDhGtu_2db10connectionNtB2_12DatabasePool8from_env
FN:99,_RNvMNtCs9JGNcCDhGtu_2db10connectionNtB2_12DatabasePool9from_pool
FN:430,_RINvMNtCs9JGNcCDhGtu_2db10connectionNtB3_12DatabasePool20execute_with_metricspppEB5_
FN:434,_RNCINvMNtCs9JGNcCDhGtu_2db10connectionNtB5_12DatabasePool20execute_with_metricspppE0B7_
FN:177,_RNCNCNCNvMNtCs9JGNcCDhGtu_2db10connectionNtB8_12DatabasePool11with_config000Ba_
FN:193,_RNCNCNvMNtCs9JGNcCDhGtu_2db10connectionNtB6_12DatabasePool11with_config00B8_
FN:151,_RNCNvMNtCs9JGNcCDhGtu_2db10connectionNtB4_12DatabasePool11with_config0B6_
FN:129,_RNCNvMNtCs9JGNcCDhGtu_2db10connectionNtB4_12DatabasePool3new0B6_
FN:89,_RNCNvMNtCs9JGNcCDhGtu_2db10connectionNtB4_12DatabasePool7connect0B6_
FN:140,_RNCNvMNtCs9JGNcCDhGtu_2db10connectionNtB4_12DatabasePool8from_env0B6_
FN:177,_RNCNCNCNvMNtCs9JGNcCDhGtu_2db10connectionNtB8_12DatabasePool11with_config000CsiLqmQIFToUG_11http_server
FN:193,_RNCNCNvMNtCs9JGNcCDhGtu_2db10connectionNtB6_12DatabasePool11with_config00CsiLqmQIFToUG_11http_server
FN:151,_RNCNvMNtCs9JGNcCDhGtu_2db10connectionNtB4_12DatabasePool11with_config0CsiLqmQIFToUG_11http_server
FN:129,_RNCNvMNtCs9JGNcCDhGtu_2db10connectionNtB4_12DatabasePool3new0CsiLqmQIFToUG_11http_server
FNDA:15,_RNCNCNCNvMNtCs9JGNcCDhGtu_2db10connectionNtB8_12DatabasePool11with_config000CslLy1HX4eQ2Z_22crate_tools_unit_tests
FNDA:15,_RNCNCNvMNtCs9JGNcCDhGtu_2db10connectionNtB6_12DatabasePool11with_config00CslLy1HX4eQ2Z_22crate_tools_unit_tests
FNDA:15,_RNCNvMNtCs9JGNcCDhGtu_2db10connectionNtB4_12DatabasePool11with_config0CslLy1HX4eQ2Z_22crate_tools_unit_tests
FNDA:15,_RNCNvMNtCs9JGNcCDhGtu_2db10connectionNtB4_12DatabasePool3new0CslLy1HX4eQ2Z_22crate_tools_unit_tests
FNDA:0,_RNCNvMNtCs9JGNcCDhGtu_2db10connectionNtB4_12DatabasePool10get_status0B6_
FNDA:15,_RNCNvMNtCs9JGNcCDhGtu_2db10connectionNtB4_12DatabasePool12health_check0B6_
FNDA:0,_RNCNvMNtCs9JGNcCDhGtu_2db10connectionNtB4_12DatabasePool16start_monitoring0B6_
FNDA:0,_RNCNvMNtCs9JGNcCDhGtu_2db10connectionNtB4_12DatabasePool4ping0B6_
FNDA:0,_RNvMNtCs9JGNcCDhGtu_2db10connectionNtB2_12DatabasePool10get_status
FNDA:15,_RNvMNtCs9JGNcCDhGtu_2db10connectionNtB2_12DatabasePool11with_config
FNDA:15,_RNvMNtCs9JGNcCDhGtu_2db10connectionNtB2_12DatabasePool12health_check
FNDA:0,_RNvMNtCs9JGNcCDhGtu_2db10connectionNtB2_12DatabasePool13get_pool_size
FNDA:0,_RNvMNtCs9JGNcCDhGtu_2db10connectionNtB2_12DatabasePool16start_monitoring
FNDA:0,_RNvMNtCs9JGNcCDhGtu_2db10connectionNtB2_12DatabasePool20get_metrics_snapshot
FNDA:15,_RNvMNtCs9JGNcCDhGtu_2db10connectionNtB2_12DatabasePool3new
FNDA:0,_RNvMNtCs9JGNcCDhGtu_2db10connectionNtB2_12DatabasePool4ping
FNDA:33,_RNvMNtCs9JGNcCDhGtu_2db10connectionNtB2_12DatabasePool4pool
FNDA:0,_RNvMNtCs9JGNcCDhGtu_2db10connectionNtB2_12DatabasePool6config
FNDA:0,_RNvMNtCs9JGNcCDhGtu_2db10connectionNtB2_12DatabasePool7connect
FNDA:0,_RNvMNtCs9JGNcCDhGtu_2db10connectionNtB2_12DatabasePool8from_env
FNDA:0,_RNvMNtCs9JGNcCDhGtu_2db10connectionNtB2_12DatabasePool9from_pool
FNDA:0,_RINvMNtCs9JGNcCDhGtu_2db10connectionNtB3_12DatabasePool20execute_with_metricspppEB5_
FNDA:0,_RNCINvMNtCs9JGNcCDhGtu_2db10connectionNtB5_12DatabasePool20execute_with_metricspppE0B7_
FNDA:0,_RNCNCNCNvMNtCs9JGNcCDhGtu_2db10connectionNtB8_12DatabasePool11with_config000Ba_
FNDA:0,_RNCNCNvMNtCs9JGNcCDhGtu_2db10connectionNtB6_12DatabasePool11with_config00B8_
FNDA:0,_RNCNvMNtCs9JGNcCDhGtu_2db10connectionNtB4_12DatabasePool11with_config0B6_
FNDA:0,_RNCNvMNtCs9JGNcCDhGtu_2db10connectionNtB4_12DatabasePool3new0B6_
FNDA:0,_RNCNvMNtCs9JGNcCDhGtu_2db10connectionNtB4_12DatabasePool7connect0B6_
FNDA:0,_RNCNvMNtCs9JGNcCDhGtu_2db10connectionNtB4_12DatabasePool8from_env0B6_
FNDA:0,_RNCNCNCNvMNtCs9JGNcCDhGtu_2db10connectionNtB8_12DatabasePool11with_config000CsiLqmQIFToUG_11http_server
FNDA:0,_RNCNCNvMNtCs9JGNcCDhGtu_2db10connectionNtB6_12DatabasePool11with_config00CsiLqmQIFToUG_11http_server
FNDA:0,_RNCNvMNtCs9JGNcCDhGtu_2db10connectionNtB4_12DatabasePool11with_config0CsiLqmQIFToUG_11http_server
FNDA:0,_RNCNvMNtCs9JGNcCDhGtu_2db10connectionNtB4_12DatabasePool3new0CsiLqmQIFToUG_11http_server
FNF:25
FNH:9
DA:89,0
DA:90,0
DA:91,0
DA:99,0
DA:100,0
DA:102,0
DA:103,0
DA:104,0
DA:105,0
DA:106,0
DA:107,0
DA:108,0
DA:109,0
DA:110,0
DA:111,0
DA:112,0
DA:113,0
DA:114,0
DA:116,0
DA:117,0
DA:118,0
DA:119,0
DA:120,0
DA:121,0
DA:122,0
DA:129,15
DA:130,15
DA:132,15
DA:133,15
DA:140,0
DA:141,0
DA:142,0
DA:143,0
DA:151,15
DA:152,15
DA:153,15
DA:155,15
DA:157,15
DA:158,15
DA:161,15
DA:162,0
DA:164,15
DA:165,15
DA:167,15
DA:168,0
DA:170,15
DA:176,15
DA:177,15
DA:178,15
DA:179,15
DA:180,15
DA:181,15
DA:182,15
DA:184,15
DA:185,15
DA:186,15
DA:188,15
DA:189,15
DA:190,15
DA:192,15
DA:193,30
DA:194,15
DA:196,15
DA:197,15
DA:198,15
DA:199,15
DA:200,15
DA:201,15
DA:202,15
DA:203,15
DA:204,15
DA:205,15
DA:206,15
DA:207,15
DA:208,15
DA:210,15
DA:211,15
DA:212,15
DA:213,15
DA:214,15
DA:215,15
DA:218,15
DA:220,15
DA:221,15
DA:222,15
DA:226,33
DA:227,33
DA:228,33
DA:232,0
DA:233,0
DA:234,0
DA:241,0
DA:242,0
DA:244,0
DA:245,0
DA:246,0
DA:247,0
DA:248,0
DA:251,0
DA:258,15
DA:261,15
DA:262,15
DA:263,15
DA:264,0
DA:268,0
DA:269,0
DA:270,0
DA:271,0
DA:272,0
DA:273,0
DA:274,0
DA:275,0
DA:276,0
DA:279,0
DA:280,0
DA:281,0
DA:282,0
DA:283,0
DA:284,0
DA:285,0
DA:286,0
DA:287,0
DA:288,0
DA:289,0
DA:290,0
DA:291,0
DA:292,0
DA:297,0
DA:298,0
DA:299,0
DA:303,0
DA:304,0
DA:305,0
DA:306,0
DA:307,0
DA:309,0
DA:310,15
DA:317,0
DA:318,0
DA:319,0
DA:321,0
DA:322,0
DA:324,0
DA:327,0
DA:328,0
DA:329,0
DA:330,0
DA:331,0
DA:332,0
DA:333,0
DA:336,0
DA:339,0
DA:340,0
DA:341,0
DA:342,0
DA:346,0
DA:347,0
DA:348,0
DA:349,0
DA:350,0
DA:351,0
DA:354,0
DA:355,0
DA:357,0
DA:360,0
DA:361,0
DA:362,0
DA:363,0
DA:365,0
DA:368,0
DA:369,0
DA:370,0
DA:371,0
DA:372,0
DA:373,0
DA:374,0
DA:375,0
DA:376,0
DA:377,0
DA:378,0
DA:379,0
DA:380,0
DA:383,0
DA:384,0
DA:385,0
DA:386,0
DA:389,0
DA:391,0
DA:392,0
DA:393,0
DA:394,0
DA:395,0
DA:400,0
DA:402,0
DA:403,0
DA:404,0
DA:409,0
DA:411,0
DA:412,0
DA:418,0
DA:419,0
DA:424,0
DA:430,0
DA:431,0
DA:432,0
DA:433,0
DA:434,0
DA:435,0
DA:436,0
DA:437,0
DA:439,0
DA:440,0
DA:441,0
DA:442,0
DA:443,0
DA:444,0
DA:445,0
DA:448,0
BRF:0
BRH:0
LF:228
LH:67
end_of_record
SF:/workspace/agent-docs/db/src/migration_system.rs
FN:592,_RNCNCNvMNtCs9JGNcCDhGtu_2db16migration_systemNtB6_24DatabaseMigrationManager20get_migration_status00B8_
FN:596,_RNCNCNvMNtCs9JGNcCDhGtu_2db16migration_systemNtB6_24DatabaseMigrationManager20get_migration_status0s_0B8_
FN:211,_RNCNCNvMNtCs9JGNcCDhGtu_2db16migration_systemNtB6_24DatabaseMigrationManager22get_pending_migrations0s0_0B8_
FN:206,_RNCNCNvMNtCs9JGNcCDhGtu_2db16migration_systemNtB6_24DatabaseMigrationManager22get_pending_migrations0s_0B8_
FN:435,_RNCNvMNtCs9JGNcCDhGtu_2db16migration_systemNtB4_24DatabaseMigrationManager15validate_schema0B6_
FN:497,_RNCNvMNtCs9JGNcCDhGtu_2db16migration_systemNtB4_24DatabaseMigrationManager15validate_tables0B6_
FN:262,_RNCNvMNtCs9JGNcCDhGtu_2db16migration_systemNtB4_24DatabaseMigrationManager16apply_migrations0B6_
FN:528,_RNCNvMNtCs9JGNcCDhGtu_2db16migration_systemNtB4_24DatabaseMigrationManager16validate_indexes0B6_
FN:471,_RNCNvMNtCs9JGNcCDhGtu_2db16migration_systemNtB4_24DatabaseMigrationManager19validate_extensions0B6_
FN:586,_RNCNvMNtCs9JGNcCDhGtu_2db16migration_systemNtB4_24DatabaseMigrationManager20get_migration_status0B6_
FN:306,_RNCNvMNtCs9JGNcCDhGtu_2db16migration_systemNtB4_24DatabaseMigrationManager22apply_single_migration0B6_
FN:227,_RNCNvMNtCs9JGNcCDhGtu_2db16migration_systemNtB4_24DatabaseMigrationManager22get_applied_migrations0B6_
FN:196,_RNCNvMNtCs9JGNcCDhGtu_2db16migration_systemNtB4_24DatabaseMigrationManager22get_pending_migrations0B6_
FN:347,_RNCNvMNtCs9JGNcCDhGtu_2db16migration_systemNtB4_24DatabaseMigrationManager22record_migration_start0B6_
FN:412,_RNCNvMNtCs9JGNcCDhGtu_2db16migration_systemNtB4_24DatabaseMigrationManager24record_migration_failure0B6_
FN:85,_RNCNvMNtCs9JGNcCDhGtu_2db16migration_systemNtB4_24DatabaseMigrationManager27initialize_migration_tables0B6_
FN:373,_RNCNvMNtCs9JGNcCDhGtu_2db16migration_systemNtB4_24DatabaseMigrationManager27record_migration_completion0B6_
FN:561,_RNCNvMNtCs9JGNcCDhGtu_2db16migration_systemNtB4_24DatabaseMigrationManager28validate_pgvector_dimensions0B6_
FN:74,_RNCNvMNtCs9JGNcCDhGtu_2db16migration_systemNtB4_24DatabaseMigrationManager3new0B6_
FN:592,_RNCNCNvMNtCs9JGNcCDhGtu_2db16migration_systemNtB6_24DatabaseMigrationManager20get_migration_status00CsiLqmQIFToUG_11http_server
FN:596,_RNCNCNvMNtCs9JGNcCDhGtu_2db16migration_systemNtB6_24DatabaseMigrationManager20get_migration_status0s_0CsiLqmQIFToUG_11http_server
FN:211,_RNCNCNvMNtCs9JGNcCDhGtu_2db16migration_systemNtB6_24DatabaseMigrationManager22get_pending_migrations0s0_0CsiLqmQIFToUG_11http_server
FN:206,_RNCNCNvMNtCs9JGNcCDhGtu_2db16migration_systemNtB6_24DatabaseMigrationManager22get_pending_migrations0s_0CsiLqmQIFToUG_11http_server
FN:435,_RNCNvMNtCs9JGNcCDhGtu_2db16migration_systemNtB4_24DatabaseMigrationManager15validate_schema0CsiLqmQIFToUG_11http_server
FN:497,_RNCNvMNtCs9JGNcCDhGtu_2db16migration_systemNtB4_24DatabaseMigrationManager15validate_tables0CsiLqmQIFToUG_11http_server
FN:262,_RNCNvMNtCs9JGNcCDhGtu_2db16migration_systemNtB4_24DatabaseMigrationManager16apply_migrations0CsiLqmQIFToUG_11http_server
FN:528,_RNCNvMNtCs9JGNcCDhGtu_2db16migration_systemNtB4_24DatabaseMigrationManager16validate_indexes0CsiLqmQIFToUG_11http_server
FN:471,_RNCNvMNtCs9JGNcCDhGtu_2db16migration_systemNtB4_24DatabaseMigrationManager19validate_extensions0CsiLqmQIFToUG_11http_server
FN:586,_RNCNvMNtCs9JGNcCDhGtu_2db16migration_systemNtB4_24DatabaseMigrationManager20get_migration_status0CsiLqmQIFToUG_11http_server
FN:306,_RNCNvMNtCs9JGNcCDhGtu_2db16migration_systemNtB4_24DatabaseMigrationManager22apply_single_migration0CsiLqmQIFToUG_11http_server
FN:227,_RNCNvMNtCs9JGNcCDhGtu_2db16migration_systemNtB4_24DatabaseMigrationManager22get_applied_migrations0CsiLqmQIFToUG_11http_server
FN:196,_RNCNvMNtCs9JGNcCDhGtu_2db16migration_systemNtB4_24DatabaseMigrationManager22get_pending_migrations0CsiLqmQIFToUG_11http_server
FN:347,_RNCNvMNtCs9JGNcCDhGtu_2db16migration_systemNtB4_24DatabaseMigrationManager22record_migration_start0CsiLqmQIFToUG_11http_server
FN:412,_RNCNvMNtCs9JGNcCDhGtu_2db16migration_systemNtB4_24DatabaseMigrationManager24record_migration_failure0CsiLqmQIFToUG_11http_server
FN:85,_RNCNvMNtCs9JGNcCDhGtu_2db16migration_systemNtB4_24DatabaseMigrationManager27initialize_migration_tables0CsiLqmQIFToUG_11http_server
FN:373,_RNCNvMNtCs9JGNcCDhGtu_2db16migration_systemNtB4_24DatabaseMigrationManager27record_migration_completion0CsiLqmQIFToUG_11http_server
FN:561,_RNCNvMNtCs9JGNcCDhGtu_2db16migration_systemNtB4_24DatabaseMigrationManager28validate_pgvector_dimensions0CsiLqmQIFToUG_11http_server
FN:74,_RNCNvMNtCs9JGNcCDhGtu_2db16migration_systemNtB4_24DatabaseMigrationManager3new0CsiLqmQIFToUG_11http_server
FN:435,_RNvMNtCs9JGNcCDhGtu_2db16migration_systemNtB2_24DatabaseMigrationManager15validate_schema
FN:497,_RNvMNtCs9JGNcCDhGtu_2db16migration_systemNtB2_24DatabaseMigrationManager15validate_tables
FN:262,_RNvMNtCs9JGNcCDhGtu_2db16migration_systemNtB2_24DatabaseMigrationManager16apply_migrations
FN:528,_RNvMNtCs9JGNcCDhGtu_2db16migration_systemNtB2_24DatabaseMigrationManager16validate_indexes
FN:183,_RNvMNtCs9JGNcCDhGtu_2db16migration_systemNtB2_24DatabaseMigrationManager18register_migration
FN:471,_RNvMNtCs9JGNcCDhGtu_2db16migration_systemNtB2_24DatabaseMigrationManager19validate_extensions
FN:586,_RNvMNtCs9JGNcCDhGtu_2db16migration_systemNtB2_24DatabaseMigrationManager20get_migration_status
FN:306,_RNvMNtCs9JGNcCDhGtu_2db16migration_systemNtB2_24DatabaseMigrationManager22apply_single_migration
FN:227,_RNvMNtCs9JGNcCDhGtu_2db16migration_systemNtB2_24DatabaseMigrationManager22get_applied_migrations
FN:196,_RNvMNtCs9JGNcCDhGtu_2db16migration_systemNtB2_24DatabaseMigrationManager22get_pending_migrations
FN:343,_RNvMNtCs9JGNcCDhGtu_2db16migration_systemNtB2_24DatabaseMigrationManager22record_migration_start
FN:412,_RNvMNtCs9JGNcCDhGtu_2db16migration_systemNtB2_24DatabaseMigrationManager24record_migration_failure
FN:85,_RNvMNtCs9JGNcCDhGtu_2db16migration_systemNtB2_24DatabaseMigrationManager27initialize_migration_tables
FN:368,_RNvMNtCs9JGNcCDhGtu_2db16migration_systemNtB2_24DatabaseMigrationManager27record_migration_completion
FN:558,_RNvMNtCs9JGNcCDhGtu_2db16migration_systemNtB2_24DatabaseMigrationManager28validate_pgvector_dimensions
FN:74,_RNvMNtCs9JGNcCDhGtu_2db16migration_systemNtB2_24DatabaseMigrationManager3new
FNDA:0,_RNCNCNvMNtCs9JGNcCDhGtu_2db16migration_systemNtB6_24DatabaseMigrationManager20get_migration_status00B8_
FNDA:0,_RNCNCNvMNtCs9JGNcCDhGtu_2db16migration_systemNtB6_24DatabaseMigrationManager20get_migration_status0s_0B8_
FNDA:0,_RNCNCNvMNtCs9JGNcCDhGtu_2db16migration_systemNtB6_24DatabaseMigrationManager22get_pending_migrations0s0_0B8_
FNDA:0,_RNCNCNvMNtCs9JGNcCDhGtu_2db16migration_systemNtB6_24DatabaseMigrationManager22get_pending_migrations0s_0B8_
FNDA:0,_RNCNvMNtCs9JGNcCDhGtu_2db16migration_systemNtB4_24DatabaseMigrationManager15validate_schema0B6_
FNDA:0,_RNCNvMNtCs9JGNcCDhGtu_2db16migration_systemNtB4_24DatabaseMigrationManager15validate_tables0B6_
FNDA:0,_RNCNvMNtCs9JGNcCDhGtu_2db16migration_systemNtB4_24DatabaseMigrationManager16apply_migrations0B6_
FNDA:0,_RNCNvMNtCs9JGNcCDhGtu_2db16migration_systemNtB4_24DatabaseMigrationManager16validate_indexes0B6_
FNDA:0,_RNCNvMNtCs9JGNcCDhGtu_2db16migration_systemNtB4_24DatabaseMigrationManager19validate_extensions0B6_
FNDA:0,_RNCNvMNtCs9JGNcCDhGtu_2db16migration_systemNtB4_24DatabaseMigrationManager20get_migration_status0B6_
FNDA:0,_RNCNvMNtCs9JGNcCDhGtu_2db16migration_systemNtB4_24DatabaseMigrationManager22apply_single_migration0B6_
FNDA:0,_RNCNvMNtCs9JGNcCDhGtu_2db16migration_systemNtB4_24DatabaseMigrationManager22get_applied_migrations0B6_
FNDA:0,_RNCNvMNtCs9JGNcCDhGtu_2db16migration_systemNtB4_24DatabaseMigrationManager22get_pending_migrations0B6_
FNDA:0,_RNCNvMNtCs9JGNcCDhGtu_2db16migration_systemNtB4_24DatabaseMigrationManager22record_migration_start0B6_
FNDA:0,_RNCNvMNtCs9JGNcCDhGtu_2db16migration_systemNtB4_24DatabaseMigrationManager24record_migration_failure0B6_
FNDA:0,_RNCNvMNtCs9JGNcCDhGtu_2db16migration_systemNtB4_24DatabaseMigrationManager27initialize_migration_tables0B6_
FNDA:0,_RNCNvMNtCs9JGNcCDhGtu_2db16migration_systemNtB4_24DatabaseMigrationManager27record_migration_completion0B6_
FNDA:0,_RNCNvMNtCs9JGNcCDhGtu_2db16migration_systemNtB4_24DatabaseMigrationManager28validate_pgvector_dimensions0B6_
FNDA:0,_RNCNvMNtCs9JGNcCDhGtu_2db16migration_systemNtB4_24DatabaseMigrationManager3new0B6_
FNDA:0,_RNCNCNvMNtCs9JGNcCDhGtu_2db16migration_systemNtB6_24DatabaseMigrationManager20get_migration_status00CsiLqmQIFToUG_11http_server
FNDA:0,_RNCNCNvMNtCs9JGNcCDhGtu_2db16migration_systemNtB6_24DatabaseMigrationManager20get_migration_status0s_0CsiLqmQIFToUG_11http_server
FNDA:0,_RNCNCNvMNtCs9JGNcCDhGtu_2db16migration_systemNtB6_24DatabaseMigrationManager22get_pending_migrations0s0_0CsiLqmQIFToUG_11http_server
FNDA:0,_RNCNCNvMNtCs9JGNcCDhGtu_2db16migration_systemNtB6_24DatabaseMigrationManager22get_pending_migrations0s_0CsiLqmQIFToUG_11http_server
FNDA:0,_RNCNvMNtCs9JGNcCDhGtu_2db16migration_systemNtB4_24DatabaseMigrationManager15validate_schema0CsiLqmQIFToUG_11http_server
FNDA:0,_RNCNvMNtCs9JGNcCDhGtu_2db16migration_systemNtB4_24DatabaseMigrationManager15validate_tables0CsiLqmQIFToUG_11http_server
FNDA:0,_RNCNvMNtCs9JGNcCDhGtu_2db16migration_systemNtB4_24DatabaseMigrationManager16apply_migrations0CsiLqmQIFToUG_11http_server
FNDA:0,_RNCNvMNtCs9JGNcCDhGtu_2db16migration_systemNtB4_24DatabaseMigrationManager16validate_indexes0CsiLqmQIFToUG_11http_server
FNDA:0,_RNCNvMNtCs9JGNcCDhGtu_2db16migration_systemNtB4_24DatabaseMigrationManager19validate_extensions0CsiLqmQIFToUG_11http_server
FNDA:0,_RNCNvMNtCs9JGNcCDhGtu_2db16migration_systemNtB4_24DatabaseMigrationManager20get_migration_status0CsiLqmQIFToUG_11http_server
FNDA:0,_RNCNvMNtCs9JGNcCDhGtu_2db16migration_systemNtB4_24DatabaseMigrationManager22apply_single_migration0CsiLqmQIFToUG_11http_server
FNDA:0,_RNCNvMNtCs9JGNcCDhGtu_2db16migration_systemNtB4_24DatabaseMigrationManager22get_applied_migrations0CsiLqmQIFToUG_11http_server
FNDA:0,_RNCNvMNtCs9JGNcCDhGtu_2db16migration_systemNtB4_24DatabaseMigrationManager22get_pending_migrations0CsiLqmQIFToUG_11http_server
FNDA:0,_RNCNvMNtCs9JGNcCDhGtu_2db16migration_systemNtB4_24DatabaseMigrationManager22record_migration_start0CsiLqmQIFToUG_11http_server
FNDA:0,_RNCNvMNtCs9JGNcCDhGtu_2db16migration_systemNtB4_24DatabaseMigrationManager24record_migration_failure0CsiLqmQIFToUG_11http_server
FNDA:0,_RNCNvMNtCs9JGNcCDhGtu_2db16migration_systemNtB4_24DatabaseMigrationManager27initialize_migration_tables0CsiLqmQIFToUG_11http_server
FNDA:0,_RNCNvMNtCs9JGNcCDhGtu_2db16migration_systemNtB4_24DatabaseMigrationManager27record_migration_completion0CsiLqmQIFToUG_11http_server
FNDA:0,_RNCNvMNtCs9JGNcCDhGtu_2db16migration_systemNtB4_24DatabaseMigrationManager28validate_pgvector_dimensions0CsiLqmQIFToUG_11http_server
FNDA:0,_RNCNvMNtCs9JGNcCDhGtu_2db16migration_systemNtB4_24DatabaseMigrationManager3new0CsiLqmQIFToUG_11http_server
FNDA:0,_RNvMNtCs9JGNcCDhGtu_2db16migration_systemNtB2_24DatabaseMigrationManager15validate_schema
FNDA:0,_RNvMNtCs9JGNcCDhGtu_2db16migration_systemNtB2_24DatabaseMigrationManager15validate_tables
FNDA:0,_RNvMNtCs9JGNcCDhGtu_2db16migration_systemNtB2_24DatabaseMigrationManager16apply_migrations
FNDA:0,_RNvMNtCs9JGNcCDhGtu_2db16migration_systemNtB2_24DatabaseMigrationManager16validate_indexes
FNDA:0,_RNvMNtCs9JGNcCDhGtu_2db16migration_systemNtB2_24DatabaseMigrationManager18register_migration
FNDA:0,_RNvMNtCs9JGNcCDhGtu_2db16migration_systemNtB2_24DatabaseMigrationManager19validate_extensions
FNDA:0,_RNvMNtCs9JGNcCDhGtu_2db16migration_systemNtB2_24DatabaseMigrationManager20get_migration_status
FNDA:0,_RNvMNtCs9JGNcCDhGtu_2db16migration_systemNtB2_24DatabaseMigrationManager22apply_single_migration
FNDA:0,_RNvMNtCs9JGNcCDhGtu_2db16migration_systemNtB2_24DatabaseMigrationManager22get_applied_migrations
FNDA:0,_RNvMNtCs9JGNcCDhGtu_2db16migration_systemNtB2_24DatabaseMigrationManager22get_pending_migrations
FNDA:0,_RNvMNtCs9JGNcCDhGtu_2db16migration_systemNtB2_24DatabaseMigrationManager22record_migration_start
FNDA:0,_RNvMNtCs9JGNcCDhGtu_2db16migration_systemNtB2_24DatabaseMigrationManager24record_migration_failure
FNDA:0,_RNvMNtCs9JGNcCDhGtu_2db16migration_systemNtB2_24DatabaseMigrationManager27initialize_migration_tables
FNDA:0,_RNvMNtCs9JGNcCDhGtu_2db16migration_systemNtB2_24DatabaseMigrationManager27record_migration_completion
FNDA:0,_RNvMNtCs9JGNcCDhGtu_2db16migration_systemNtB2_24DatabaseMigrationManager28validate_pgvector_dimensions
FNDA:0,_RNvMNtCs9JGNcCDhGtu_2db16migration_systemNtB2_24DatabaseMigrationManager3new
FNF:35
FNH:0
DA:74,0
DA:75,0
DA:76,0
DA:77,0
DA:78,0
DA:80,0
DA:81,0
DA:82,0
DA:85,0
DA:86,0
DA:89,0
DA:90,0
DA:91,0
DA:92,0
DA:93,0
DA:94,0
DA:95,0
DA:96,0
DA:97,0
DA:98,0
DA:99,0
DA:102,0
DA:103,0
DA:104,0
DA:105,0
DA:106,0
DA:107,0
DA:108,0
DA:109,0
DA:110,0
DA:111,0
DA:112,0
DA:113,0
DA:114,0
DA:115,0
DA:116,0
DA:117,0
DA:118,0
DA:119,0
DA:123,0
DA:124,0
DA:125,0
DA:126,0
DA:127,0
DA:128,0
DA:129,0
DA:130,0
DA:131,0
DA:132,0
DA:133,0
DA:134,0
DA:135,0
DA:136,0
DA:137,0
DA:138,0
DA:139,0
DA:140,0
DA:141,0
DA:142,0
DA:143,0
DA:144,0
DA:145,0
DA:146,0
DA:147,0
DA:148,0
DA:149,0
DA:150,0
DA:151,0
DA:152,0
DA:153,0
DA:154,0
DA:155,0
DA:156,0
DA:157,0
DA:160,0
DA:161,0
DA:162,0
DA:163,0
DA:164,0
DA:166,0
DA:167,0
DA:168,0
DA:169,0
DA:170,0
DA:172,0
DA:173,0
DA:174,0
DA:175,0
DA:176,0
DA:178,0
DA:179,0
DA:180,0
DA:183,0
DA:184,0
DA:185,0
DA:188,0
DA:189,0
DA:196,0
DA:197,0
DA:198,0
DA:199,0
DA:200,0
DA:201,0
DA:203,0
DA:204,0
DA:205,0
DA:206,0
DA:207,0
DA:208,0
DA:211,0
DA:213,0
DA:214,0
DA:215,0
DA:216,0
DA:219,0
DA:221,0
DA:223,0
DA:224,0
DA:227,0
DA:228,0
DA:229,0
DA:230,0
DA:231,0
DA:232,0
DA:233,0
DA:234,0
DA:235,0
DA:236,0
DA:237,0
DA:238,0
DA:240,0
DA:241,0
DA:242,0
DA:243,0
DA:244,0
DA:245,0
DA:246,0
DA:247,0
DA:248,0
DA:249,0
DA:250,0
DA:251,0
DA:252,0
DA:254,0
DA:255,0
DA:262,0
DA:263,0
DA:265,0
DA:266,0
DA:267,0
DA:268,0
DA:269,0
DA:271,0
DA:272,0
DA:274,0
DA:275,0
DA:276,0
DA:280,0
DA:281,0
DA:282,0
DA:283,0
DA:286,0
DA:288,0
DA:289,0
DA:292,0
DA:293,0
DA:296,0
DA:301,0
DA:302,0
DA:303,0
DA:306,0
DA:307,0
DA:310,0
DA:313,0
DA:316,0
DA:317,0
DA:318,0
DA:321,0
DA:322,0
DA:325,0
DA:326,0
DA:327,0
DA:330,0
DA:332,0
DA:334,0
DA:336,0
DA:337,0
DA:340,0
DA:343,0
DA:344,0
DA:345,0
DA:346,0
DA:347,0
DA:348,0
DA:350,0
DA:351,0
DA:352,0
DA:353,0
DA:354,0
DA:355,0
DA:356,0
DA:357,0
DA:358,0
DA:359,0
DA:360,0
DA:361,0
DA:362,0
DA:364,0
DA:365,0
DA:368,0
DA:369,0
DA:370,0
DA:371,0
DA:372,0
DA:373,0
DA:374,0
DA:375,0
DA:376,0
DA:377,0
DA:378,0
DA:379,0
DA:380,0
DA:381,0
DA:382,0
DA:383,0
DA:384,0
DA:387,0
DA:388,0
DA:389,0
DA:390,0
DA:391,0
DA:392,0
DA:393,0
DA:394,0
DA:395,0
DA:396,0
DA:397,0
DA:399,0
DA:400,0
DA:401,0
DA:402,0
DA:403,0
DA:404,0
DA:405,0
DA:406,0
DA:407,0
DA:408,0
DA:409,0
DA:412,0
DA:413,0
DA:414,0
DA:415,0
DA:416,0
DA:417,0
DA:418,0
DA:419,0
DA:420,0
DA:421,0
DA:422,0
DA:423,0
DA:424,0
DA:425,0
DA:427,0
DA:428,0
DA:435,0
DA:436,0
DA:438,0
DA:439,0
DA:440,0
DA:441,0
DA:442,0
DA:443,0
DA:444,0
DA:447,0
DA:450,0
DA:453,0
DA:456,0
DA:458,0
DA:459,0
DA:461,0
DA:462,0
DA:463,0
DA:467,0
DA:468,0
DA:471,0
DA:472,0
DA:474,0
DA:475,0
DA:476,0
DA:477,0
DA:478,0
DA:479,0
DA:480,0
DA:482,0
DA:483,0
DA:485,0
DA:486,0
DA:487,0
DA:488,0
DA:489,0
DA:490,0
DA:493,0
DA:494,0
DA:497,0
DA:498,0
DA:500,0
DA:501,0
DA:502,0
DA:503,0
DA:504,0
DA:505,0
DA:506,0
DA:507,0
DA:508,0
DA:509,0
DA:510,0
DA:511,0
DA:513,0
DA:514,0
DA:516,0
DA:517,0
DA:518,0
DA:519,0
DA:520,0
DA:521,0
DA:524,0
DA:525,0
DA:528,0
DA:529,0
DA:531,0
DA:532,0
DA:535,0
DA:536,0
DA:537,0
DA:538,0
DA:539,0
DA:540,0
DA:541,0
DA:543,0
DA:544,0
DA:546,0
DA:547,0
DA:548,0
DA:549,0
DA:550,0
DA:551,0
DA:554,0
DA:555,0
DA:558,0
DA:559,0
DA:560,0
DA:561,0
DA:564,0
DA:565,0
DA:566,0
DA:569,0
DA:571,0
DA:572,0
DA:573,0
DA:574,0
DA:575,0
DA:578,0
DA:579,0
DA:586,0
DA:587,0
DA:588,0
DA:590,0
DA:591,0
DA:592,0
DA:593,0
DA:594,0
DA:595,0
DA:596,0
DA:597,0
DA:600,0
DA:601,0
DA:602,0
DA:603,0
DA:604,0
DA:606,0
BRF:0
BRH:0
LF:399
LH:0
end_of_record
SF:/workspace/agent-docs/db/src/models.rs
FN:177,_RNvMs0_NtCs9JGNcCDhGtu_2db6modelsINtB5_17PaginatedResponseNtB5_9CrateInfoE3newCsi7GHPcvMyXT_3mcp
FN:177,_RNvMs0_NtCs9JGNcCDhGtu_2db6modelsINtB5_17PaginatedResponsepE3newB7_
FN:147,_RNvMs_NtCs9JGNcCDhGtu_2db6modelsNtB4_16PaginationParams3new
FN:26,_RNvXNtCs9JGNcCDhGtu_2db6modelsNtB2_7DocTypeNtNtCs66KPHxksi63_4core3fmt7Display3fmt
FNDA:6,_RNvMs0_NtCs9JGNcCDhGtu_2db6modelsINtB5_17PaginatedResponseNtB5_9CrateInfoE3newCsi7GHPcvMyXT_3mcp
FNDA:0,_RNvMs0_NtCs9JGNcCDhGtu_2db6modelsINtB5_17PaginatedResponsepE3newB7_
FNDA:6,_RNvMs_NtCs9JGNcCDhGtu_2db6modelsNtB4_16PaginationParams3new
FNDA:0,_RNvXNtCs9JGNcCDhGtu_2db6modelsNtB2_7DocTypeNtNtCs66KPHxksi63_4core3fmt7Display3fmt
FNF:3
FNH:2
DA:26,0
DA:27,0
DA:28,0
DA:29,0
DA:30,0
DA:31,0
DA:32,0
DA:33,0
DA:34,0
DA:35,0
DA:36,0
DA:37,0
DA:39,0
DA:40,0
DA:147,6
DA:148,6
DA:149,6
DA:150,6
DA:152,6
DA:153,6
DA:154,6
DA:155,6
DA:156,6
DA:157,6
DA:177,6
DA:178,6
DA:179,6
DA:180,6
DA:182,6
DA:183,6
DA:184,6
DA:185,6
DA:186,6
DA:187,6
DA:188,6
DA:189,6
DA:190,6
BRF:0
BRH:0
LF:37
LH:23
end_of_record
SF:/workspace/agent-docs/db/src/pool_config.rs
FN:216,_RINvMs0_NtCs9JGNcCDhGtu_2db11pool_configNtB6_17PoolConfigBuilder12database_urlReECslLy1HX4eQ2Z_22crate_tools_unit_tests
FN:216,_RINvMs0_NtCs9JGNcCDhGtu_2db11pool_configNtB6_17PoolConfigBuilder12database_urlpEB8_
FN:252,_RINvMs0_NtCs9JGNcCDhGtu_2db11pool_configNtB6_17PoolConfigBuilder16application_namepEB8_
FN:247,_RNCNvMs0_NtCs9JGNcCDhGtu_2db11pool_configNtB7_17PoolConfigBuilder12idle_timeout0B9_
FN:241,_RNCNvMs0_NtCs9JGNcCDhGtu_2db11pool_configNtB7_17PoolConfigBuilder12max_lifetime0B9_
FN:62,_RNCNvMs_NtCs9JGNcCDhGtu_2db11pool_configNtB6_10PoolConfig8from_env0B8_
FN:67,_RNCNvMs_NtCs9JGNcCDhGtu_2db11pool_configNtB6_10PoolConfig8from_envs0_0B8_
FN:71,_RNCNvMs_NtCs9JGNcCDhGtu_2db11pool_configNtB6_10PoolConfig8from_envs1_0B8_
FN:72,_RNCNvMs_NtCs9JGNcCDhGtu_2db11pool_configNtB6_10PoolConfig8from_envs2_0B8_
FN:76,_RNCNvMs_NtCs9JGNcCDhGtu_2db11pool_configNtB6_10PoolConfig8from_envs3_0B8_
FN:77,_RNCNvMs_NtCs9JGNcCDhGtu_2db11pool_configNtB6_10PoolConfig8from_envs4_0B8_
FN:81,_RNCNvMs_NtCs9JGNcCDhGtu_2db11pool_configNtB6_10PoolConfig8from_envs5_0B8_
FN:85,_RNCNvMs_NtCs9JGNcCDhGtu_2db11pool_configNtB6_10PoolConfig8from_envs6_0B8_
FN:88,_RNCNvMs_NtCs9JGNcCDhGtu_2db11pool_configNtB6_10PoolConfig8from_envs7_0B8_
FN:66,_RNCNvMs_NtCs9JGNcCDhGtu_2db11pool_configNtB6_10PoolConfig8from_envs_0B8_
FN:246,_RNvMs0_NtCs9JGNcCDhGtu_2db11pool_configNtB5_17PoolConfigBuilder12idle_timeout
FN:240,_RNvMs0_NtCs9JGNcCDhGtu_2db11pool_configNtB5_17PoolConfigBuilder12max_lifetime
FN:234,_RNvMs0_NtCs9JGNcCDhGtu_2db11pool_configNtB5_17PoolConfigBuilder15acquire_timeout
FN:228,_RNvMs0_NtCs9JGNcCDhGtu_2db11pool_configNtB5_17PoolConfigBuilder15max_connections
FN:222,_RNvMs0_NtCs9JGNcCDhGtu_2db11pool_configNtB5_17PoolConfigBuilder15min_connections
FN:258,_RNvMs0_NtCs9JGNcCDhGtu_2db11pool_configNtB5_17PoolConfigBuilder19test_before_acquire
FN:209,_RNvMs0_NtCs9JGNcCDhGtu_2db11pool_configNtB5_17PoolConfigBuilder3new
FN:268,_RNvMs0_NtCs9JGNcCDhGtu_2db11pool_configNtB5_17PoolConfigBuilder5build
FN:298,_RNvMs2_NtCs9JGNcCDhGtu_2db11pool_configNtB5_10PoolConfig10production
FN:284,_RNvMs2_NtCs9JGNcCDhGtu_2db11pool_configNtB5_10PoolConfig11development
FN:312,_RNvMs2_NtCs9JGNcCDhGtu_2db11pool_configNtB5_10PoolConfig12high_traffic
FN:326,_RNvMs2_NtCs9JGNcCDhGtu_2db11pool_configNtB5_10PoolConfig7testing
FN:168,_RNvMs_NtCs9JGNcCDhGtu_2db11pool_configNtB4_10PoolConfig11log_summary
FN:163,_RNvMs_NtCs9JGNcCDhGtu_2db11pool_configNtB4_10PoolConfig12idle_timeout
FN:157,_RNvMs_NtCs9JGNcCDhGtu_2db11pool_configNtB4_10PoolConfig12max_lifetime
FN:151,_RNvMs_NtCs9JGNcCDhGtu_2db11pool_configNtB4_10PoolConfig15acquire_timeout
FN:107,_RNvMs_NtCs9JGNcCDhGtu_2db11pool_configNtB4_10PoolConfig7builder
FN:60,_RNvMs_NtCs9JGNcCDhGtu_2db11pool_configNtB4_10PoolConfig8from_env
FN:116,_RNvMs_NtCs9JGNcCDhGtu_2db11pool_configNtB4_10PoolConfig8validate
FN:40,_RNvXNtCs9JGNcCDhGtu_2db11pool_configNtB2_10PoolConfigNtNtCs66KPHxksi63_4core7default7Default7default
FN:275,_RNvXs1_NtCs9JGNcCDhGtu_2db11pool_configNtB5_17PoolConfigBuilderNtNtCs66KPHxksi63_4core7default7Default7default
FN:216,_RINvMs0_NtCs9JGNcCDhGtu_2db11pool_configNtB6_17PoolConfigBuilder12database_urlReECsiLqmQIFToUG_11http_server
FNDA:15,_RINvMs0_NtCs9JGNcCDhGtu_2db11pool_configNtB6_17PoolConfigBuilder12database_urlReECslLy1HX4eQ2Z_22crate_tools_unit_tests
FNDA:0,_RINvMs0_NtCs9JGNcCDhGtu_2db11pool_configNtB6_17PoolConfigBuilder12database_urlpEB8_
FNDA:0,_RINvMs0_NtCs9JGNcCDhGtu_2db11pool_configNtB6_17PoolConfigBuilder16application_namepEB8_
FNDA:0,_RNCNvMs0_NtCs9JGNcCDhGtu_2db11pool_configNtB7_17PoolConfigBuilder12idle_timeout0B9_
FNDA:0,_RNCNvMs0_NtCs9JGNcCDhGtu_2db11pool_configNtB7_17PoolConfigBuilder12max_lifetime0B9_
FNDA:0,_RNCNvMs_NtCs9JGNcCDhGtu_2db11pool_configNtB6_10PoolConfig8from_env0B8_
FNDA:0,_RNCNvMs_NtCs9JGNcCDhGtu_2db11pool_configNtB6_10PoolConfig8from_envs0_0B8_
FNDA:0,_RNCNvMs_NtCs9JGNcCDhGtu_2db11pool_configNtB6_10PoolConfig8from_envs1_0B8_
FNDA:0,_RNCNvMs_NtCs9JGNcCDhGtu_2db11pool_configNtB6_10PoolConfig8from_envs2_0B8_
FNDA:0,_RNCNvMs_NtCs9JGNcCDhGtu_2db11pool_configNtB6_10PoolConfig8from_envs3_0B8_
FNDA:0,_RNCNvMs_NtCs9JGNcCDhGtu_2db11pool_configNtB6_10PoolConfig8from_envs4_0B8_
FNDA:0,_RNCNvMs_NtCs9JGNcCDhGtu_2db11pool_configNtB6_10PoolConfig8from_envs5_0B8_
FNDA:0,_RNCNvMs_NtCs9JGNcCDhGtu_2db11pool_configNtB6_10PoolConfig8from_envs6_0B8_
FNDA:0,_RNCNvMs_NtCs9JGNcCDhGtu_2db11pool_configNtB6_10PoolConfig8from_envs7_0B8_
FNDA:0,_RNCNvMs_NtCs9JGNcCDhGtu_2db11pool_configNtB6_10PoolConfig8from_envs_0B8_
FNDA:0,_RNvMs0_NtCs9JGNcCDhGtu_2db11pool_configNtB5_17PoolConfigBuilder12idle_timeout
FNDA:0,_RNvMs0_NtCs9JGNcCDhGtu_2db11pool_configNtB5_17PoolConfigBuilder12max_lifetime
FNDA:0,_RNvMs0_NtCs9JGNcCDhGtu_2db11pool_configNtB5_17PoolConfigBuilder15acquire_timeout
FNDA:0,_RNvMs0_NtCs9JGNcCDhGtu_2db11pool_configNtB5_17PoolConfigBuilder15max_connections
FNDA:0,_RNvMs0_NtCs9JGNcCDhGtu_2db11pool_configNtB5_17PoolConfigBuilder15min_connections
FNDA:0,_RNvMs0_NtCs9JGNcCDhGtu_2db11pool_configNtB5_17PoolConfigBuilder19test_before_acquire
FNDA:15,_RNvMs0_NtCs9JGNcCDhGtu_2db11pool_configNtB5_17PoolConfigBuilder3new
FNDA:15,_RNvMs0_NtCs9JGNcCDhGtu_2db11pool_configNtB5_17PoolConfigBuilder5build
FNDA:0,_RNvMs2_NtCs9JGNcCDhGtu_2db11pool_configNtB5_10PoolConfig10production
FNDA:0,_RNvMs2_NtCs9JGNcCDhGtu_2db11pool_configNtB5_10PoolConfig11development
FNDA:0,_RNvMs2_NtCs9JGNcCDhGtu_2db11pool_configNtB5_10PoolConfig12high_traffic
FNDA:0,_RNvMs2_NtCs9JGNcCDhGtu_2db11pool_configNtB5_10PoolConfig7testing
FNDA:15,_RNvMs_NtCs9JGNcCDhGtu_2db11pool_configNtB4_10PoolConfig11log_summary
FNDA:15,_RNvMs_NtCs9JGNcCDhGtu_2db11pool_configNtB4_10PoolConfig12idle_timeout
FNDA:15,_RNvMs_NtCs9JGNcCDhGtu_2db11pool_configNtB4_10PoolConfig12max_lifetime
FNDA:15,_RNvMs_NtCs9JGNcCDhGtu_2db11pool_configNtB4_10PoolConfig15acquire_timeout
FNDA:15,_RNvMs_NtCs9JGNcCDhGtu_2db11pool_configNtB4_10PoolConfig7builder
FNDA:0,_RNvMs_NtCs9JGNcCDhGtu_2db11pool_configNtB4_10PoolConfig8from_env
FNDA:30,_RNvMs_NtCs9JGNcCDhGtu_2db11pool_configNtB4_10PoolConfig8validate
FNDA:15,_RNvXNtCs9JGNcCDhGtu_2db11pool_configNtB2_10PoolConfigNtNtCs66KPHxksi63_4core7default7Default7default
FNDA:0,_RNvXs1_NtCs9JGNcCDhGtu_2db11pool_configNtB5_17PoolConfigBuilderNtNtCs66KPHxksi63_4core7default7Default7default
FNDA:0,_RINvMs0_NtCs9JGNcCDhGtu_2db11pool_configNtB6_17PoolConfigBuilder12database_urlReECsiLqmQIFToUG_11http_server
FNF:35
FNH:10
DA:40,15
DA:41,15
DA:42,15
DA:43,15
DA:44,15
DA:45,15
DA:46,15
DA:47,15
DA:48,15
DA:49,15
DA:50,15
DA:51,15
DA:60,0
DA:61,0
DA:62,0
DA:64,0
DA:65,0
DA:66,0
DA:67,0
DA:69,0
DA:70,0
DA:71,0
DA:72,0
DA:74,0
DA:75,0
DA:76,0
DA:77,0
DA:79,0
DA:80,0
DA:81,0
DA:83,0
DA:84,0
DA:85,0
DA:87,0
DA:88,0
DA:90,0
DA:91,0
DA:92,0
DA:93,0
DA:94,0
DA:95,0
DA:96,0
DA:97,0
DA:98,0
DA:99,0
DA:101,0
DA:102,0
DA:103,0
DA:107,15
DA:108,15
DA:109,15
DA:116,30
DA:117,30
DA:118,0
DA:119,0
DA:120,0
DA:121,0
DA:122,0
DA:123,30
DA:125,30
DA:126,0
DA:127,30
DA:129,30
DA:130,0
DA:131,30
DA:133,30
DA:134,0
DA:135,30
DA:138,30
DA:139,0
DA:141,0
DA:142,0
DA:143,0
DA:144,30
DA:146,30
DA:147,30
DA:151,15
DA:152,15
DA:153,15
DA:157,15
DA:158,15
DA:159,15
DA:163,15
DA:164,15
DA:165,15
DA:168,15
DA:169,15
DA:170,0
DA:177,15
DA:178,15
DA:179,0
DA:181,15
DA:182,15
DA:183,0
DA:186,15
DA:187,0
DA:188,0
DA:191,15
DA:193,15
DA:194,0
DA:195,0
DA:198,15
DA:199,15
DA:209,15
DA:210,15
DA:211,15
DA:212,15
DA:213,15
DA:216,15
DA:217,15
DA:218,15
DA:219,15
DA:222,0
DA:223,0
DA:224,0
DA:225,0
DA:228,0
DA:229,0
DA:230,0
DA:231,0
DA:234,0
DA:235,0
DA:236,0
DA:237,0
DA:240,0
DA:241,0
DA:242,0
DA:243,0
DA:246,0
DA:247,0
DA:248,0
DA:249,0
DA:252,0
DA:253,0
DA:254,0
DA:255,0
DA:258,0
DA:259,0
DA:260,0
DA:261,0
DA:268,15
DA:269,15
DA:270,15
DA:271,15
DA:275,0
DA:276,0
DA:277,0
DA:284,0
DA:285,0
DA:286,0
DA:287,0
DA:288,0
DA:289,0
DA:290,0
DA:291,0
DA:292,0
DA:293,0
DA:294,0
DA:298,0
DA:299,0
DA:300,0
DA:301,0
DA:302,0
DA:303,0
DA:304,0
DA:305,0
DA:306,0
DA:307,0
DA:308,0
DA:312,0
DA:313,0
DA:314,0
DA:315,0
DA:316,0
DA:317,0
DA:318,0
DA:319,0
DA:320,0
DA:321,0
DA:322,0
DA:326,0
DA:327,0
DA:328,0
DA:329,0
DA:330,0
DA:331,0
DA:332,0
DA:333,0
DA:334,0
DA:335,0
DA:336,0
BRF:0
BRH:0
LF:203
LH:61
end_of_record
SF:/workspace/agent-docs/db/src/queries.rs
FN:253,_RNCNCNvMs1_NtCs9JGNcCDhGtu_2db7queriesNtB9_15DocumentQueries18rust_vector_search00Csi7GHPcvMyXT_3mcp
FN:309,_RNCNCNvMs1_NtCs9JGNcCDhGtu_2db7queriesNtB9_15DocumentQueries22doc_type_vector_search00Csi7GHPcvMyXT_3mcp
FN:415,_RNCNCNvMs1_NtCs9JGNcCDhGtu_2db7queriesNtB9_15DocumentQueries35doc_type_vector_search_with_filters00Csi7GHPcvMyXT_3mcp
FN:874,_RNCNCNvMs4_NtCs9JGNcCDhGtu_2db7queriesNtB9_12CrateQueries11list_crates00Csi7GHPcvMyXT_3mcp
FN:227,_RNCNvMs1_NtCs9JGNcCDhGtu_2db7queriesNtB7_15DocumentQueries18rust_vector_search0Csi7GHPcvMyXT_3mcp
FN:282,_RNCNvMs1_NtCs9JGNcCDhGtu_2db7queriesNtB7_15DocumentQueries22doc_type_vector_search0Csi7GHPcvMyXT_3mcp
FN:339,_RNCNvMs1_NtCs9JGNcCDhGtu_2db7queriesNtB7_15DocumentQueries35doc_type_vector_search_with_filters0Csi7GHPcvMyXT_3mcp
FN:648,_RNCNvMs3_NtCs9JGNcCDhGtu_2db7queriesNtB7_15CrateJobQueries10create_job0Csi7GHPcvMyXT_3mcp
FN:677,_RNCNvMs3_NtCs9JGNcCDhGtu_2db7queriesNtB7_15CrateJobQueries14find_job_by_id0Csi7GHPcvMyXT_3mcp
FN:736,_RNCNvMs3_NtCs9JGNcCDhGtu_2db7queriesNtB7_15CrateJobQueries16find_active_jobs0Csi7GHPcvMyXT_3mcp
FN:698,_RNCNvMs3_NtCs9JGNcCDhGtu_2db7queriesNtB7_15CrateJobQueries17update_job_status0Csi7GHPcvMyXT_3mcp
FN:784,_RNCNvMs4_NtCs9JGNcCDhGtu_2db7queriesNtB7_12CrateQueries11list_crates0Csi7GHPcvMyXT_3mcp
FN:975,_RNCNvMs4_NtCs9JGNcCDhGtu_2db7queriesNtB7_12CrateQueries18find_crate_by_name0Csi7GHPcvMyXT_3mcp
FN:908,_RNCNvMs4_NtCs9JGNcCDhGtu_2db7queriesNtB7_12CrateQueries20get_crate_statistics0Csi7GHPcvMyXT_3mcp
FN:61,_RNvMs1_NtCs9JGNcCDhGtu_2db7queriesNtB5_15DocumentQueries12find_by_type
FN:169,_RNvMs1_NtCs9JGNcCDhGtu_2db7queriesNtB5_15DocumentQueries13vector_search
FN:121,_RNvMs1_NtCs9JGNcCDhGtu_2db7queriesNtB5_15DocumentQueries14find_by_source
FN:72,_RNvMs1_NtCs9JGNcCDhGtu_2db7queriesNtB5_15DocumentQueries16find_by_type_str
FN:223,_RNvMs1_NtCs9JGNcCDhGtu_2db7queriesNtB5_15DocumentQueries18rust_vector_search
FN:277,_RNvMs1_NtCs9JGNcCDhGtu_2db7queriesNtB5_15DocumentQueries22doc_type_vector_search
FN:333,_RNvMs1_NtCs9JGNcCDhGtu_2db7queriesNtB5_15DocumentQueries35doc_type_vector_search_with_filters
FN:626,_RNvMs2_NtCs9JGNcCDhGtu_2db7queriesNtB5_23QueryPerformanceMonitor13explain_query
FN:518,_RNvMs2_NtCs9JGNcCDhGtu_2db7queriesNtB5_23QueryPerformanceMonitor17benchmark_queries
FN:578,_RNvMs2_NtCs9JGNcCDhGtu_2db7queriesNtB5_23QueryPerformanceMonitor25benchmark_count_documents
FN:585,_RNvMs2_NtCs9JGNcCDhGtu_2db7queriesNtB5_23QueryPerformanceMonitor26benchmark_latest_documents
FN:644,_RNvMs3_NtCs9JGNcCDhGtu_2db7queriesNtB5_15CrateJobQueries10create_job
FN:674,_RNvMs3_NtCs9JGNcCDhGtu_2db7queriesNtB5_15CrateJobQueries14find_job_by_id
FN:755,_RNvMs3_NtCs9JGNcCDhGtu_2db7queriesNtB5_15CrateJobQueries16cleanup_old_jobs
FN:736,_RNvMs3_NtCs9JGNcCDhGtu_2db7queriesNtB5_15CrateJobQueries16find_active_jobs
FN:692,_RNvMs3_NtCs9JGNcCDhGtu_2db7queriesNtB5_15CrateJobQueries17update_job_status
FN:780,_RNvMs4_NtCs9JGNcCDhGtu_2db7queriesNtB5_12CrateQueries11list_crates
FN:972,_RNvMs4_NtCs9JGNcCDhGtu_2db7queriesNtB5_12CrateQueries18find_crate_by_name
FN:908,_RNvMs4_NtCs9JGNcCDhGtu_2db7queriesNtB5_12CrateQueries20get_crate_statistics
FN:36,_RNvXs_NtCs9JGNcCDhGtu_2db7queriesxNtB4_12RowCountable9row_count
FN:45,_RNvXs0_NtCs9JGNcCDhGtu_2db7queriesNtNtCs8Ty2CzGA6U3_5alloc6string6StringNtB5_12RowCountable9row_count
FN:453,_RINvMs2_NtCs9JGNcCDhGtu_2db7queriesNtB6_23QueryPerformanceMonitor23execute_with_monitoringppEB8_
FN:460,_RNCINvMs2_NtCs9JGNcCDhGtu_2db7queriesNtB8_23QueryPerformanceMonitor23execute_with_monitoringppE0Ba_
FN:199,_RNCNCNvMs1_NtCs9JGNcCDhGtu_2db7queriesNtB9_15DocumentQueries13vector_search00Bb_
FN:145,_RNCNCNvMs1_NtCs9JGNcCDhGtu_2db7queriesNtB9_15DocumentQueries14find_by_source00Bb_
FN:96,_RNCNCNvMs1_NtCs9JGNcCDhGtu_2db7queriesNtB9_15DocumentQueries16find_by_type_str00Bb_
FN:253,_RNCNCNvMs1_NtCs9JGNcCDhGtu_2db7queriesNtB9_15DocumentQueries18rust_vector_search00Bb_
FN:309,_RNCNCNvMs1_NtCs9JGNcCDhGtu_2db7queriesNtB9_15DocumentQueries22doc_type_vector_search00Bb_
FN:415,_RNCNCNvMs1_NtCs9JGNcCDhGtu_2db7queriesNtB9_15DocumentQueries35doc_type_vector_search_with_filters00Bb_
FN:610,_RNCNCNvMs2_NtCs9JGNcCDhGtu_2db7queriesNtB9_23QueryPerformanceMonitor26benchmark_latest_documents00Bb_
FN:874,_RNCNCNvMs4_NtCs9JGNcCDhGtu_2db7queriesNtB9_12CrateQueries11list_crates00Bb_
FN:61,_RNCNvMs1_NtCs9JGNcCDhGtu_2db7queriesNtB7_15DocumentQueries12find_by_type0B9_
FN:173,_RNCNvMs1_NtCs9JGNcCDhGtu_2db7queriesNtB7_15DocumentQueries13vector_search0B9_
FN:121,_RNCNvMs1_NtCs9JGNcCDhGtu_2db7queriesNtB7_15DocumentQueries14find_by_source0B9_
FN:72,_RNCNvMs1_NtCs9JGNcCDhGtu_2db7queriesNtB7_15DocumentQueries16find_by_type_str0B9_
FN:227,_RNCNvMs1_NtCs9JGNcCDhGtu_2db7queriesNtB7_15DocumentQueries18rust_vector_search0B9_
FN:282,_RNCNvMs1_NtCs9JGNcCDhGtu_2db7queriesNtB7_15DocumentQueries22doc_type_vector_search0B9_
FN:339,_RNCNvMs1_NtCs9JGNcCDhGtu_2db7queriesNtB7_15DocumentQueries35doc_type_vector_search_with_filters0B9_
FN:626,_RNCNvMs2_NtCs9JGNcCDhGtu_2db7queriesNtB7_23QueryPerformanceMonitor13explain_query0B9_
FN:518,_RNCNvMs2_NtCs9JGNcCDhGtu_2db7queriesNtB7_23QueryPerformanceMonitor17benchmark_queries0B9_
FN:578,_RNCNvMs2_NtCs9JGNcCDhGtu_2db7queriesNtB7_23QueryPerformanceMonitor25benchmark_count_documents0B9_
FN:585,_RNCNvMs2_NtCs9JGNcCDhGtu_2db7queriesNtB7_23QueryPerformanceMonitor26benchmark_latest_documents0B9_
FN:648,_RNCNvMs3_NtCs9JGNcCDhGtu_2db7queriesNtB7_15CrateJobQueries10create_job0B9_
FN:677,_RNCNvMs3_NtCs9JGNcCDhGtu_2db7queriesNtB7_15CrateJobQueries14find_job_by_id0B9_
FN:755,_RNCNvMs3_NtCs9JGNcCDhGtu_2db7queriesNtB7_15CrateJobQueries16cleanup_old_jobs0B9_
FN:736,_RNCNvMs3_NtCs9JGNcCDhGtu_2db7queriesNtB7_15CrateJobQueries16find_active_jobs0B9_
FN:698,_RNCNvMs3_NtCs9JGNcCDhGtu_2db7queriesNtB7_15CrateJobQueries17update_job_status0B9_
FN:784,_RNCNvMs4_NtCs9JGNcCDhGtu_2db7queriesNtB7_12CrateQueries11list_crates0B9_
FN:975,_RNCNvMs4_NtCs9JGNcCDhGtu_2db7queriesNtB7_12CrateQueries18find_crate_by_name0B9_
FN:908,_RNCNvMs4_NtCs9JGNcCDhGtu_2db7queriesNtB7_12CrateQueries20get_crate_statistics0B9_
FN:29,_RNvXININtCs9JGNcCDhGtu_2db7queries0pEINtNtCs8Ty2CzGA6U3_5alloc3vec3VecpENtB5_12RowCountable9row_countB7_
FN:453,_RINvMs2_NtCs9JGNcCDhGtu_2db7queriesNtB6_23QueryPerformanceMonitor23execute_with_monitoringNCNvB2_13explain_query0NtNtCs8Ty2CzGA6U3_5alloc6string6StringECsiLqmQIFToUG_11http_server
FN:453,_RINvMs2_NtCs9JGNcCDhGtu_2db7queriesNtB6_23QueryPerformanceMonitor23execute_with_monitoringNCNvB2_25benchmark_count_documents0xECsiLqmQIFToUG_11http_server
FN:453,_RINvMs2_NtCs9JGNcCDhGtu_2db7queriesNtB6_23QueryPerformanceMonitor23execute_with_monitoringNCNvB2_26benchmark_latest_documents0INtNtCs8Ty2CzGA6U3_5alloc3vec3VecNtNtB8_6models8DocumentEECsiLqmQIFToUG_11http_server
FN:453,_RINvMs2_NtCs9JGNcCDhGtu_2db7queriesNtB6_23QueryPerformanceMonitor23execute_with_monitoringNCNvMs1_B6_NtB6_15DocumentQueries12find_by_type0INtNtCs8Ty2CzGA6U3_5alloc3vec3VecNtNtB8_6models8DocumentEECsiLqmQIFToUG_11http_server
FN:460,_RNCINvMs2_NtCs9JGNcCDhGtu_2db7queriesNtB8_23QueryPerformanceMonitor23execute_with_monitoringNCNvB4_13explain_query0NtNtCs8Ty2CzGA6U3_5alloc6string6StringE0CsiLqmQIFToUG_11http_server
FN:460,_RNCINvMs2_NtCs9JGNcCDhGtu_2db7queriesNtB8_23QueryPerformanceMonitor23execute_with_monitoringNCNvB4_25benchmark_count_documents0xE0CsiLqmQIFToUG_11http_server
FN:460,_RNCINvMs2_NtCs9JGNcCDhGtu_2db7queriesNtB8_23QueryPerformanceMonitor23execute_with_monitoringNCNvB4_26benchmark_latest_documents0INtNtCs8Ty2CzGA6U3_5alloc3vec3VecNtNtBa_6models8DocumentEE0CsiLqmQIFToUG_11http_server
FN:460,_RNCINvMs2_NtCs9JGNcCDhGtu_2db7queriesNtB8_23QueryPerformanceMonitor23execute_with_monitoringNCNvMs1_B8_NtB8_15DocumentQueries12find_by_type0INtNtCs8Ty2CzGA6U3_5alloc3vec3VecNtNtBa_6models8DocumentEE0CsiLqmQIFToUG_11http_server
FN:96,_RNCNCNvMs1_NtCs9JGNcCDhGtu_2db7queriesNtB9_15DocumentQueries16find_by_type_str00CsiLqmQIFToUG_11http_server
FN:610,_RNCNCNvMs2_NtCs9JGNcCDhGtu_2db7queriesNtB9_23QueryPerformanceMonitor26benchmark_latest_documents00CsiLqmQIFToUG_11http_server
FN:61,_RNCNvMs1_NtCs9JGNcCDhGtu_2db7queriesNtB7_15DocumentQueries12find_by_type0CsiLqmQIFToUG_11http_server
FN:72,_RNCNvMs1_NtCs9JGNcCDhGtu_2db7queriesNtB7_15DocumentQueries16find_by_type_str0CsiLqmQIFToUG_11http_server
FN:626,_RNCNvMs2_NtCs9JGNcCDhGtu_2db7queriesNtB7_23QueryPerformanceMonitor13explain_query0CsiLqmQIFToUG_11http_server
FN:518,_RNCNvMs2_NtCs9JGNcCDhGtu_2db7queriesNtB7_23QueryPerformanceMonitor17benchmark_queries0CsiLqmQIFToUG_11http_server
FN:578,_RNCNvMs2_NtCs9JGNcCDhGtu_2db7queriesNtB7_23QueryPerformanceMonitor25benchmark_count_documents0CsiLqmQIFToUG_11http_server
FN:585,_RNCNvMs2_NtCs9JGNcCDhGtu_2db7queriesNtB7_23QueryPerformanceMonitor26benchmark_latest_documents0CsiLqmQIFToUG_11http_server
FN:29,_RNvXNtCs9JGNcCDhGtu_2db7queriesINtNtCs8Ty2CzGA6U3_5alloc3vec3VecNtNtB4_6models8DocumentENtB2_12RowCountable9row_countCsiLqmQIFToUG_11http_server
FNDA:0,_RNCNCNvMs1_NtCs9JGNcCDhGtu_2db7queriesNtB9_15DocumentQueries18rust_vector_search00Csi7GHPcvMyXT_3mcp
FNDA:0,_RNCNCNvMs1_NtCs9JGNcCDhGtu_2db7queriesNtB9_15DocumentQueries22doc_type_vector_search00Csi7GHPcvMyXT_3mcp
FNDA:0,_RNCNCNvMs1_NtCs9JGNcCDhGtu_2db7queriesNtB9_15DocumentQueries35doc_type_vector_search_with_filters00Csi7GHPcvMyXT_3mcp
FNDA:59,_RNCNCNvMs4_NtCs9JGNcCDhGtu_2db7queriesNtB9_12CrateQueries11list_crates00Csi7GHPcvMyXT_3mcp
FNDA:0,_RNCNvMs1_NtCs9JGNcCDhGtu_2db7queriesNtB7_15DocumentQueries18rust_vector_search0Csi7GHPcvMyXT_3mcp
FNDA:0,_RNCNvMs1_NtCs9JGNcCDhGtu_2db7queriesNtB7_15DocumentQueries22doc_type_vector_search0Csi7GHPcvMyXT_3mcp
FNDA:0,_RNCNvMs1_NtCs9JGNcCDhGtu_2db7queriesNtB7_15DocumentQueries35doc_type_vector_search_with_filters0Csi7GHPcvMyXT_3mcp
FNDA:2,_RNCNvMs3_NtCs9JGNcCDhGtu_2db7queriesNtB7_15CrateJobQueries10create_job0Csi7GHPcvMyXT_3mcp
FNDA:1,_RNCNvMs3_NtCs9JGNcCDhGtu_2db7queriesNtB7_15CrateJobQueries14find_job_by_id0Csi7GHPcvMyXT_3mcp
FNDA:4,_RNCNvMs3_NtCs9JGNcCDhGtu_2db7queriesNtB7_15CrateJobQueries16find_active_jobs0Csi7GHPcvMyXT_3mcp
FNDA:1,_RNCNvMs3_NtCs9JGNcCDhGtu_2db7queriesNtB7_15CrateJobQueries17update_job_status0Csi7GHPcvMyXT_3mcp
FNDA:6,_RNCNvMs4_NtCs9JGNcCDhGtu_2db7queriesNtB7_12CrateQueries11list_crates0Csi7GHPcvMyXT_3mcp
FNDA:6,_RNCNvMs4_NtCs9JGNcCDhGtu_2db7queriesNtB7_12CrateQueries18find_crate_by_name0Csi7GHPcvMyXT_3mcp
FNDA:5,_RNCNvMs4_NtCs9JGNcCDhGtu_2db7queriesNtB7_12CrateQueries20get_crate_statistics0Csi7GHPcvMyXT_3mcp
FNDA:0,_RNvMs1_NtCs9JGNcCDhGtu_2db7queriesNtB5_15DocumentQueries12find_by_type
FNDA:0,_RNvMs1_NtCs9JGNcCDhGtu_2db7queriesNtB5_15DocumentQueries13vector_search
FNDA:0,_RNvMs1_NtCs9JGNcCDhGtu_2db7queriesNtB5_15DocumentQueries14find_by_source
FNDA:0,_RNvMs1_NtCs9JGNcCDhGtu_2db7queriesNtB5_15DocumentQueries16find_by_type_str
FNDA:0,_RNvMs1_NtCs9JGNcCDhGtu_2db7queriesNtB5_15DocumentQueries18rust_vector_search
FNDA:0,_RNvMs1_NtCs9JGNcCDhGtu_2db7queriesNtB5_15DocumentQueries22doc_type_vector_search
FNDA:0,_RNvMs1_NtCs9JGNcCDhGtu_2db7queriesNtB5_15DocumentQueries35doc_type_vector_search_with_filters
FNDA:0,_RNvMs2_NtCs9JGNcCDhGtu_2db7queriesNtB5_23QueryPerformanceMonitor13explain_query
FNDA:0,_RNvMs2_NtCs9JGNcCDhGtu_2db7queriesNtB5_23QueryPerformanceMonitor17benchmark_queries
FNDA:0,_RNvMs2_NtCs9JGNcCDhGtu_2db7queriesNtB5_23QueryPerformanceMonitor25benchmark_count_documents
FNDA:0,_RNvMs2_NtCs9JGNcCDhGtu_2db7queriesNtB5_23QueryPerformanceMonitor26benchmark_latest_documents
FNDA:2,_RNvMs3_NtCs9JGNcCDhGtu_2db7queriesNtB5_15CrateJobQueries10create_job
FNDA:1,_RNvMs3_NtCs9JGNcCDhGtu_2db7queriesNtB5_15CrateJobQueries14find_job_by_id
FNDA:0,_RNvMs3_NtCs9JGNcCDhGtu_2db7queriesNtB5_15CrateJobQueries16cleanup_old_jobs
FNDA:4,_RNvMs3_NtCs9JGNcCDhGtu_2db7queriesNtB5_15CrateJobQueries16find_active_jobs
FNDA:1,_RNvMs3_NtCs9JGNcCDhGtu_2db7queriesNtB5_15CrateJobQueries17update_job_status
FNDA:6,_RNvMs4_NtCs9JGNcCDhGtu_2db7queriesNtB5_12CrateQueries11list_crates
FNDA:6,_RNvMs4_NtCs9JGNcCDhGtu_2db7queriesNtB5_12CrateQueries18find_crate_by_name
FNDA:5,_RNvMs4_NtCs9JGNcCDhGtu_2db7queriesNtB5_12CrateQueries20get_crate_statistics
FNDA:0,_RNvXs_NtCs9JGNcCDhGtu_2db7queriesxNtB4_12RowCountable9row_count
FNDA:0,_RNvXs0_NtCs9JGNcCDhGtu_2db7queriesNtNtCs8Ty2CzGA6U3_5alloc6string6StringNtB5_12RowCountable9row_count
FNDA:0,_RINvMs2_NtCs9JGNcCDhGtu_2db7queriesNtB6_23QueryPerformanceMonitor23execute_with_monitoringppEB8_
FNDA:0,_RNCINvMs2_NtCs9JGNcCDhGtu_2db7queriesNtB8_23QueryPerformanceMonitor23execute_with_monitoringppE0Ba_
FNDA:0,_RNCNCNvMs1_NtCs9JGNcCDhGtu_2db7queriesNtB9_15DocumentQueries13vector_search00Bb_
FNDA:0,_RNCNCNvMs1_NtCs9JGNcCDhGtu_2db7queriesNtB9_15DocumentQueries14find_by_source00Bb_
FNDA:0,_RNCNCNvMs1_NtCs9JGNcCDhGtu_2db7queriesNtB9_15DocumentQueries16find_by_type_str00Bb_
FNDA:0,_RNCNCNvMs1_NtCs9JGNcCDhGtu_2db7queriesNtB9_15DocumentQueries18rust_vector_search00Bb_
FNDA:0,_RNCNCNvMs1_NtCs9JGNcCDhGtu_2db7queriesNtB9_15DocumentQueries22doc_type_vector_search00Bb_
FNDA:0,_RNCNCNvMs1_NtCs9JGNcCDhGtu_2db7queriesNtB9_15DocumentQueries35doc_type_vector_search_with_filters00Bb_
FNDA:0,_RNCNCNvMs2_NtCs9JGNcCDhGtu_2db7queriesNtB9_23QueryPerformanceMonitor26benchmark_latest_documents00Bb_
FNDA:0,_RNCNCNvMs4_NtCs9JGNcCDhGtu_2db7queriesNtB9_12CrateQueries11list_crates00Bb_
FNDA:0,_RNCNvMs1_NtCs9JGNcCDhGtu_2db7queriesNtB7_15DocumentQueries12find_by_type0B9_
FNDA:0,_RNCNvMs1_NtCs9JGNcCDhGtu_2db7queriesNtB7_15DocumentQueries13vector_search0B9_
FNDA:0,_RNCNvMs1_NtCs9JGNcCDhGtu_2db7queriesNtB7_15DocumentQueries14find_by_source0B9_
FNDA:0,_RNCNvMs1_NtCs9JGNcCDhGtu_2db7queriesNtB7_15DocumentQueries16find_by_type_str0B9_
FNDA:0,_RNCNvMs1_NtCs9JGNcCDhGtu_2db7queriesNtB7_15DocumentQueries18rust_vector_search0B9_
FNDA:0,_RNCNvMs1_NtCs9JGNcCDhGtu_2db7queriesNtB7_15DocumentQueries22doc_type_vector_search0B9_
FNDA:0,_RNCNvMs1_NtCs9JGNcCDhGtu_2db7queriesNtB7_15DocumentQueries35doc_type_vector_search_with_filters0B9_
FNDA:0,_RNCNvMs2_NtCs9JGNcCDhGtu_2db7queriesNtB7_23QueryPerformanceMonitor13explain_query0B9_
FNDA:0,_RNCNvMs2_NtCs9JGNcCDhGtu_2db7queriesNtB7_23QueryPerformanceMonitor17benchmark_queries0B9_
FNDA:0,_RNCNvMs2_NtCs9JGNcCDhGtu_2db7queriesNtB7_23QueryPerformanceMonitor25benchmark_count_documents0B9_
FNDA:0,_RNCNvMs2_NtCs9JGNcCDhGtu_2db7queriesNtB7_23QueryPerformanceMonitor26benchmark_latest_documents0B9_
FNDA:0,_RNCNvMs3_NtCs9JGNcCDhGtu_2db7queriesNtB7_15CrateJobQueries10create_job0B9_
FNDA:0,_RNCNvMs3_NtCs9JGNcCDhGtu_2db7queriesNtB7_15CrateJobQueries14find_job_by_id0B9_
FNDA:0,_RNCNvMs3_NtCs9JGNcCDhGtu_2db7queriesNtB7_15CrateJobQueries16cleanup_old_jobs0B9_
FNDA:0,_RNCNvMs3_NtCs9JGNcCDhGtu_2db7queriesNtB7_15CrateJobQueries16find_active_jobs0B9_
FNDA:0,_RNCNvMs3_NtCs9JGNcCDhGtu_2db7queriesNtB7_15CrateJobQueries17update_job_status0B9_
FNDA:0,_RNCNvMs4_NtCs9JGNcCDhGtu_2db7queriesNtB7_12CrateQueries11list_crates0B9_
FNDA:0,_RNCNvMs4_NtCs9JGNcCDhGtu_2db7queriesNtB7_12CrateQueries18find_crate_by_name0B9_
FNDA:0,_RNCNvMs4_NtCs9JGNcCDhGtu_2db7queriesNtB7_12CrateQueries20get_crate_statistics0B9_
FNDA:0,_RNvXININtCs9JGNcCDhGtu_2db7queries0pEINtNtCs8Ty2CzGA6U3_5alloc3vec3VecpENtB5_12RowCountable9row_countB7_
FNDA:0,_RINvMs2_NtCs9JGNcCDhGtu_2db7queriesNtB6_23QueryPerformanceMonitor23execute_with_monitoringNCNvB2_13explain_query0NtNtCs8Ty2CzGA6U3_5alloc6string6StringECsiLqmQIFToUG_11http_server
FNDA:0,_RINvMs2_NtCs9JGNcCDhGtu_2db7queriesNtB6_23QueryPerformanceMonitor23execute_with_monitoringNCNvB2_25benchmark_count_documents0xECsiLqmQIFToUG_11http_server
FNDA:0,_RINvMs2_NtCs9JGNcCDhGtu_2db7queriesNtB6_23QueryPerformanceMonitor23execute_with_monitoringNCNvB2_26benchmark_latest_documents0INtNtCs8Ty2CzGA6U3_5alloc3vec3VecNtNtB8_6models8DocumentEECsiLqmQIFToUG_11http_server
FNDA:0,_RINvMs2_NtCs9JGNcCDhGtu_2db7queriesNtB6_23QueryPerformanceMonitor23execute_with_monitoringNCNvMs1_B6_NtB6_15DocumentQueries12find_by_type0INtNtCs8Ty2CzGA6U3_5alloc3vec3VecNtNtB8_6models8DocumentEECsiLqmQIFToUG_11http_server
FNDA:0,_RNCINvMs2_NtCs9JGNcCDhGtu_2db7queriesNtB8_23QueryPerformanceMonitor23execute_with_monitoringNCNvB4_13explain_query0NtNtCs8Ty2CzGA6U3_5alloc6string6StringE0CsiLqmQIFToUG_11http_server
FNDA:0,_RNCINvMs2_NtCs9JGNcCDhGtu_2db7queriesNtB8_23QueryPerformanceMonitor23execute_with_monitoringNCNvB4_25benchmark_count_documents0xE0CsiLqmQIFToUG_11http_server
FNDA:0,_RNCINvMs2_NtCs9JGNcCDhGtu_2db7queriesNtB8_23QueryPerformanceMonitor23execute_with_monitoringNCNvB4_26benchmark_latest_documents0INtNtCs8Ty2CzGA6U3_5alloc3vec3VecNtNtBa_6models8DocumentEE0CsiLqmQIFToUG_11http_server
FNDA:0,_RNCINvMs2_NtCs9JGNcCDhGtu_2db7queriesNtB8_23QueryPerformanceMonitor23execute_with_monitoringNCNvMs1_B8_NtB8_15DocumentQueries12find_by_type0INtNtCs8Ty2CzGA6U3_5alloc3vec3VecNtNtBa_6models8DocumentEE0CsiLqmQIFToUG_11http_server
FNDA:0,_RNCNCNvMs1_NtCs9JGNcCDhGtu_2db7queriesNtB9_15DocumentQueries16find_by_type_str00CsiLqmQIFToUG_11http_server
FNDA:0,_RNCNCNvMs2_NtCs9JGNcCDhGtu_2db7queriesNtB9_23QueryPerformanceMonitor26benchmark_latest_documents00CsiLqmQIFToUG_11http_server
FNDA:0,_RNCNvMs1_NtCs9JGNcCDhGtu_2db7queriesNtB7_15DocumentQueries12find_by_type0CsiLqmQIFToUG_11http_server
FNDA:0,_RNCNvMs1_NtCs9JGNcCDhGtu_2db7queriesNtB7_15DocumentQueries16find_by_type_str0CsiLqmQIFToUG_11http_server
FNDA:0,_RNCNvMs2_NtCs9JGNcCDhGtu_2db7queriesNtB7_23QueryPerformanceMonitor13explain_query0CsiLqmQIFToUG_11http_server
FNDA:0,_RNCNvMs2_NtCs9JGNcCDhGtu_2db7queriesNtB7_23QueryPerformanceMonitor17benchmark_queries0CsiLqmQIFToUG_11http_server
FNDA:0,_RNCNvMs2_NtCs9JGNcCDhGtu_2db7queriesNtB7_23QueryPerformanceMonitor25benchmark_count_documents0CsiLqmQIFToUG_11http_server
FNDA:0,_RNCNvMs2_NtCs9JGNcCDhGtu_2db7queriesNtB7_23QueryPerformanceMonitor26benchmark_latest_documents0CsiLqmQIFToUG_11http_server
FNDA:0,_RNvXNtCs9JGNcCDhGtu_2db7queriesINtNtCs8Ty2CzGA6U3_5alloc3vec3VecNtNtB4_6models8DocumentENtB2_12RowCountable9row_countCsiLqmQIFToUG_11http_server
FNF:51
FNH:15
DA:29,0
DA:30,0
DA:31,0
DA:36,0
DA:39,0
DA:40,0
DA:45,0
DA:47,0
DA:48,0
DA:61,0
DA:63,0
DA:64,0
DA:72,0
DA:73,0
DA:74,0
DA:75,0
DA:76,0
DA:77,0
DA:78,0
DA:79,0
DA:80,0
DA:81,0
DA:82,0
DA:83,0
DA:84,0
DA:85,0
DA:86,0
DA:87,0
DA:88,0
DA:89,0
DA:90,0
DA:91,0
DA:92,0
DA:94,0
DA:95,0
DA:96,0
DA:97,0
DA:98,0
DA:99,0
DA:100,0
DA:101,0
DA:102,0
DA:103,0
DA:104,0
DA:105,0
DA:106,0
DA:107,0
DA:108,0
DA:109,0
DA:110,0
DA:112,0
DA:113,0
DA:121,0
DA:122,0
DA:123,0
DA:124,0
DA:125,0
DA:126,0
DA:127,0
DA:128,0
DA:129,0
DA:130,0
DA:131,0
DA:132,0
DA:133,0
DA:134,0
DA:135,0
DA:136,0
DA:137,0
DA:138,0
DA:139,0
DA:140,0
DA:141,0
DA:143,0
DA:144,0
DA:145,0
DA:146,0
DA:147,0
DA:148,0
DA:149,0
DA:150,0
DA:151,0
DA:152,0
DA:153,0
DA:154,0
DA:155,0
DA:156,0
DA:157,0
DA:158,0
DA:159,0
DA:161,0
DA:162,0
DA:169,0
DA:170,0
DA:171,0
DA:172,0
DA:173,0
DA:175,0
DA:176,0
DA:177,0
DA:178,0
DA:179,0
DA:180,0
DA:181,0
DA:182,0
DA:183,0
DA:184,0
DA:185,0
DA:186,0
DA:187,0
DA:188,0
DA:189,0
DA:190,0
DA:191,0
DA:192,0
DA:193,0
DA:194,0
DA:195,0
DA:197,0
DA:198,0
DA:199,0
DA:200,0
DA:201,0
DA:202,0
DA:203,0
DA:204,0
DA:205,0
DA:206,0
DA:207,0
DA:208,0
DA:209,0
DA:210,0
DA:211,0
DA:212,0
DA:213,0
DA:215,0
DA:216,0
DA:223,0
DA:224,0
DA:225,0
DA:226,0
DA:227,0
DA:229,0
DA:230,0
DA:231,0
DA:232,0
DA:233,0
DA:234,0
DA:235,0
DA:236,0
DA:237,0
DA:238,0
DA:239,0
DA:240,0
DA:241,0
DA:242,0
DA:243,0
DA:244,0
DA:245,0
DA:246,0
DA:247,0
DA:248,0
DA:249,0
DA:251,0
DA:252,0
DA:253,0
DA:254,0
DA:255,0
DA:256,0
DA:257,0
DA:258,0
DA:259,0
DA:260,0
DA:261,0
DA:262,0
DA:263,0
DA:264,0
DA:265,0
DA:266,0
DA:267,0
DA:269,0
DA:270,0
DA:277,0
DA:278,0
DA:279,0
DA:280,0
DA:281,0
DA:282,0
DA:284,0
DA:285,0
DA:286,0
DA:287,0
DA:288,0
DA:289,0
DA:290,0
DA:291,0
DA:292,0
DA:293,0
DA:294,0
DA:295,0
DA:296,0
DA:297,0
DA:298,0
DA:299,0
DA:300,0
DA:301,0
DA:302,0
DA:303,0
DA:304,0
DA:305,0
DA:307,0
DA:308,0
DA:309,0
DA:310,0
DA:311,0
DA:312,0
DA:313,0
DA:314,0
DA:315,0
DA:316,0
DA:317,0
DA:318,0
DA:319,0
DA:320,0
DA:321,0
DA:322,0
DA:323,0
DA:325,0
DA:326,0
DA:333,0
DA:334,0
DA:335,0
DA:336,0
DA:337,0
DA:338,0
DA:339,0
DA:341,0
DA:342,0
DA:345,0
DA:346,0
DA:347,0
DA:348,0
DA:349,0
DA:350,0
DA:351,0
DA:352,0
DA:353,0
DA:354,0
DA:355,0
DA:356,0
DA:357,0
DA:358,0
DA:359,0
DA:360,0
DA:361,0
DA:362,0
DA:363,0
DA:364,0
DA:366,0
DA:367,0
DA:369,0
DA:370,0
DA:371,0
DA:372,0
DA:373,0
DA:374,0
DA:375,0
DA:376,0
DA:377,0
DA:378,0
DA:379,0
DA:380,0
DA:381,0
DA:382,0
DA:383,0
DA:384,0
DA:385,0
DA:389,0
DA:392,0
DA:393,0
DA:394,0
DA:395,0
DA:396,0
DA:397,0
DA:398,0
DA:399,0
DA:400,0
DA:401,0
DA:402,0
DA:403,0
DA:404,0
DA:405,0
DA:406,0
DA:409,0
DA:411,0
DA:413,0
DA:414,0
DA:415,0
DA:416,0
DA:417,0
DA:418,0
DA:419,0
DA:420,0
DA:421,0
DA:422,0
DA:423,0
DA:424,0
DA:425,0
DA:426,0
DA:427,0
DA:428,0
DA:429,0
DA:431,0
DA:432,0
DA:453,0
DA:454,0
DA:455,0
DA:456,0
DA:457,0
DA:458,0
DA:459,0
DA:460,0
DA:461,0
DA:462,0
DA:463,0
DA:465,0
DA:466,0
DA:467,0
DA:468,0
DA:469,0
DA:470,0
DA:471,0
DA:472,0
DA:473,0
DA:474,0
DA:477,0
DA:478,0
DA:479,0
DA:482,0
DA:483,0
DA:484,0
DA:487,0
DA:489,0
DA:491,0
DA:492,0
DA:493,0
DA:494,0
DA:495,0
DA:496,0
DA:497,0
DA:498,0
DA:500,0
DA:501,0
DA:504,0
DA:507,0
DA:518,0
DA:519,0
DA:522,0
DA:523,0
DA:524,0
DA:525,0
DA:526,0
DA:527,0
DA:528,0
DA:529,0
DA:531,0
DA:535,0
DA:536,0
DA:537,0
DA:538,0
DA:539,0
DA:540,0
DA:541,0
DA:542,0
DA:543,0
DA:544,0
DA:548,0
DA:549,0
DA:550,0
DA:551,0
DA:552,0
DA:553,0
DA:554,0
DA:555,0
DA:556,0
DA:557,0
DA:561,0
DA:562,0
DA:563,0
DA:564,0
DA:565,0
DA:566,0
DA:567,0
DA:568,0
DA:569,0
DA:570,0
DA:571,0
DA:572,0
DA:575,0
DA:576,0
DA:578,0
DA:579,0
DA:580,0
DA:581,0
DA:582,0
DA:583,0
DA:585,0
DA:586,0
DA:587,0
DA:588,0
DA:589,0
DA:590,0
DA:591,0
DA:592,0
DA:593,0
DA:594,0
DA:595,0
DA:596,0
DA:597,0
DA:598,0
DA:599,0
DA:600,0
DA:601,0
DA:602,0
DA:603,0
DA:604,0
DA:605,0
DA:607,0
DA:608,0
DA:609,0
DA:610,0
DA:611,0
DA:612,0
DA:613,0
DA:614,0
DA:615,0
DA:616,0
DA:617,0
DA:618,0
DA:619,0
DA:620,0
DA:621,0
DA:623,0
DA:624,0
DA:626,0
DA:627,0
DA:628,0
DA:630,0
DA:631,0
DA:632,0
DA:644,2
DA:645,2
DA:646,2
DA:647,2
DA:648,2
DA:649,2
DA:650,2
DA:652,2
DA:653,2
DA:654,2
DA:655,2
DA:656,2
DA:657,2
DA:658,2
DA:659,2
DA:660,2
DA:661,2
DA:662,2
DA:663,2
DA:664,2
DA:666,2
DA:667,2
DA:674,1
DA:675,1
DA:676,1
DA:677,1
DA:678,1
DA:679,1
DA:680,1
DA:681,1
DA:682,1
DA:684,1
DA:685,1
DA:692,1
DA:693,1
DA:694,1
DA:695,1
DA:696,1
DA:697,1
DA:698,1
DA:699,1
DA:700,1
DA:701,1
DA:706,0
DA:708,1
DA:711,1
DA:712,1
DA:713,1
DA:714,1
DA:715,1
DA:716,1
DA:717,1
DA:718,1
DA:719,1
DA:720,1
DA:721,1
DA:722,1
DA:723,1
DA:724,1
DA:725,1
DA:726,1
DA:728,0
DA:729,0
DA:736,4
DA:737,4
DA:738,4
DA:739,4
DA:740,4
DA:741,4
DA:742,4
DA:743,4
DA:744,4
DA:745,4
DA:747,4
DA:748,4
DA:755,0
DA:756,0
DA:757,0
DA:758,0
DA:759,0
DA:760,0
DA:761,0
DA:762,0
DA:763,0
DA:764,0
DA:767,0
DA:768,0
DA:780,6
DA:781,6
DA:782,6
DA:783,6
DA:784,6
DA:786,6
DA:787,6
DA:788,6
DA:789,6
DA:790,6
DA:791,6
DA:792,6
DA:793,6
DA:794,6
DA:795,6
DA:796,6
DA:797,6
DA:798,6
DA:801,6
DA:802,1
DA:803,5
DA:805,6
DA:806,6
DA:807,6
DA:808,6
DA:809,6
DA:810,6
DA:811,6
DA:812,6
DA:813,6
DA:814,6
DA:815,6
DA:816,6
DA:817,6
DA:818,6
DA:819,6
DA:820,6
DA:821,6
DA:824,6
DA:827,6
DA:828,6
DA:829,6
DA:830,6
DA:831,6
DA:832,6
DA:834,6
DA:835,1
DA:836,5
DA:838,6
DA:841,6
DA:842,6
DA:843,6
DA:844,6
DA:845,6
DA:846,6
DA:847,6
DA:849,6
DA:850,1
DA:851,5
DA:853,6
DA:854,6
DA:856,6
DA:857,1
DA:858,5
DA:860,6
DA:863,6
DA:864,6
DA:865,6
DA:874,59
DA:876,59
DA:877,59
DA:878,59
DA:879,59
DA:881,0
DA:883,59
DA:884,59
DA:886,0
DA:888,59
DA:889,59
DA:890,59
DA:892,59
DA:894,6
DA:896,6
DA:897,6
DA:898,6
DA:899,6
DA:900,6
DA:901,6
DA:908,5
DA:909,5
DA:910,5
DA:911,5
DA:912,5
DA:913,5
DA:914,5
DA:915,5
DA:916,5
DA:917,5
DA:918,5
DA:919,5
DA:920,5
DA:921,5
DA:922,5
DA:923,5
DA:924,5
DA:925,5
DA:926,5
DA:927,5
DA:928,5
DA:929,5
DA:930,5
DA:931,5
DA:933,5
DA:936,5
DA:937,5
DA:938,5
DA:939,5
DA:940,5
DA:941,5
DA:942,5
DA:943,5
DA:944,5
DA:945,5
DA:946,5
DA:948,5
DA:951,5
DA:954,0
DA:957,5
DA:958,5
DA:959,5
DA:960,5
DA:961,5
DA:962,5
DA:963,5
DA:964,5
DA:965,5
DA:972,6
DA:973,6
DA:974,6
DA:975,6
DA:976,6
DA:977,6
DA:978,6
DA:979,6
DA:980,6
DA:981,6
DA:982,6
DA:983,6
DA:984,6
DA:985,6
DA:986,6
DA:987,6
DA:988,6
DA:989,6
DA:990,6
DA:991,6
DA:992,6
DA:993,6
DA:995,5
DA:996,0
DA:997,0
DA:998,0
DA:999,0
DA:1000,0
DA:1001,0
DA:1002,0
DA:1003,0
DA:1004,0
DA:1005,0
DA:1007,5
DA:1009,6
BRF:0
BRH:0
LF:733
LH:237
end_of_record
SF:/workspace/agent-docs/db/src/retry.rs
FN:273,_RINvMs1_NtCs9JGNcCDhGtu_2db5retryNtB6_13RetryExecutor27execute_with_classificationNCNCNvMNtB8_10connectionNtB1p_12DatabasePool11with_config00NCNCB1k_00INtNtCsgkja2qPsmH1_9sqlx_core4pool4PoolNtNtCs9ZCbkk8MNCp_13sqlx_postgres8database8PostgresEECslLy1HX4eQ2Z_22crate_tools_unit_tests
FN:277,_RNCINvMs1_NtCs9JGNcCDhGtu_2db5retryNtB8_13RetryExecutor27execute_with_classificationNCNCNvMNtBa_10connectionNtB1r_12DatabasePool11with_config00NCNCB1m_00INtNtCsgkja2qPsmH1_9sqlx_core4pool4PoolNtNtCs9ZCbkk8MNCp_13sqlx_postgres8database8PostgresEE0CslLy1HX4eQ2Z_22crate_tools_unit_tests
FN:154,_RNvMs0_NtCs9JGNcCDhGtu_2db5retryNtB5_13DatabaseError12is_retryable
FN:167,_RNvMs0_NtCs9JGNcCDhGtu_2db5retryNtB5_13DatabaseError15from_sqlx_error
FN:205,_RNvMs1_NtCs9JGNcCDhGtu_2db5retryNtB5_13RetryExecutor11with_config
FN:197,_RNvMs1_NtCs9JGNcCDhGtu_2db5retryNtB5_13RetryExecutor3new
FN:126,_RNvMs_NtCs9JGNcCDhGtu_2db5retryNtB4_11RetryConfig10add_jitter
FN:109,_RNvMs_NtCs9JGNcCDhGtu_2db5retryNtB4_11RetryConfig15calculate_delay
FN:46,_RNvMs_NtCs9JGNcCDhGtu_2db5retryNtB4_11RetryConfig8from_env
FN:85,_RNvMs_NtCs9JGNcCDhGtu_2db5retryNtB4_11RetryConfig8validate
FN:32,_RNvXNtCs9JGNcCDhGtu_2db5retryNtB2_11RetryConfigNtNtCs66KPHxksi63_4core7default7Default7default
FN:339,_RNvXs2_NtCs9JGNcCDhGtu_2db5retryNtB5_13RetryExecutorNtNtCs66KPHxksi63_4core7default7Default7default
FN:345,_RNvXs3_NtCs9JGNcCDhGtu_2db5retryNtB5_13DatabaseErrorNtNtCs66KPHxksi63_4core3fmt7Display3fmt
FN:273,_RINvMs1_NtCs9JGNcCDhGtu_2db5retryNtB6_13RetryExecutor27execute_with_classificationpppEB8_
FN:216,_RINvMs1_NtCs9JGNcCDhGtu_2db5retryNtB6_13RetryExecutor7executeppppEB8_
FN:277,_RNCINvMs1_NtCs9JGNcCDhGtu_2db5retryNtB8_13RetryExecutor27execute_with_classificationpppE0Ba_
FN:221,_RNCINvMs1_NtCs9JGNcCDhGtu_2db5retryNtB8_13RetryExecutor7executeppppE0Ba_
FN:273,_RINvMs1_NtCs9JGNcCDhGtu_2db5retryNtB6_13RetryExecutor27execute_with_classificationNCNCNvMNtB8_10connectionNtB1p_12DatabasePool11with_config00NCNCB1k_00INtNtCsgkja2qPsmH1_9sqlx_core4pool4PoolNtNtCs9ZCbkk8MNCp_13sqlx_postgres8database8PostgresEECsiLqmQIFToUG_11http_server
FN:277,_RNCINvMs1_NtCs9JGNcCDhGtu_2db5retryNtB8_13RetryExecutor27execute_with_classificationNCNCNvMNtBa_10connectionNtB1r_12DatabasePool11with_config00NCNCB1m_00INtNtCsgkja2qPsmH1_9sqlx_core4pool4PoolNtNtCs9ZCbkk8MNCp_13sqlx_postgres8database8PostgresEE0CsiLqmQIFToUG_11http_server
FNDA:15,_RINvMs1_NtCs9JGNcCDhGtu_2db5retryNtB6_13RetryExecutor27execute_with_classificationNCNCNvMNtB8_10connectionNtB1p_12DatabasePool11with_config00NCNCB1k_00INtNtCsgkja2qPsmH1_9sqlx_core4pool4PoolNtNtCs9ZCbkk8MNCp_13sqlx_postgres8database8PostgresEECslLy1HX4eQ2Z_22crate_tools_unit_tests
FNDA:15,_RNCINvMs1_NtCs9JGNcCDhGtu_2db5retryNtB8_13RetryExecutor27execute_with_classificationNCNCNvMNtBa_10connectionNtB1r_12DatabasePool11with_config00NCNCB1m_00INtNtCsgkja2qPsmH1_9sqlx_core4pool4PoolNtNtCs9ZCbkk8MNCp_13sqlx_postgres8database8PostgresEE0CslLy1HX4eQ2Z_22crate_tools_unit_tests
FNDA:0,_RNvMs0_NtCs9JGNcCDhGtu_2db5retryNtB5_13DatabaseError12is_retryable
FNDA:0,_RNvMs0_NtCs9JGNcCDhGtu_2db5retryNtB5_13DatabaseError15from_sqlx_error
FNDA:15,_RNvMs1_NtCs9JGNcCDhGtu_2db5retryNtB5_13RetryExecutor11with_config
FNDA:0,_RNvMs1_NtCs9JGNcCDhGtu_2db5retryNtB5_13RetryExecutor3new
FNDA:0,_RNvMs_NtCs9JGNcCDhGtu_2db5retryNtB4_11RetryConfig10add_jitter
FNDA:0,_RNvMs_NtCs9JGNcCDhGtu_2db5retryNtB4_11RetryConfig15calculate_delay
FNDA:15,_RNvMs_NtCs9JGNcCDhGtu_2db5retryNtB4_11RetryConfig8from_env
FNDA:0,_RNvMs_NtCs9JGNcCDhGtu_2db5retryNtB4_11RetryConfig8validate
FNDA:15,_RNvXNtCs9JGNcCDhGtu_2db5retryNtB2_11RetryConfigNtNtCs66KPHxksi63_4core7default7Default7default
FNDA:0,_RNvXs2_NtCs9JGNcCDhGtu_2db5retryNtB5_13RetryExecutorNtNtCs66KPHxksi63_4core7default7Default7default
FNDA:0,_RNvXs3_NtCs9JGNcCDhGtu_2db5retryNtB5_13DatabaseErrorNtNtCs66KPHxksi63_4core3fmt7Display3fmt
FNDA:0,_RINvMs1_NtCs9JGNcCDhGtu_2db5retryNtB6_13RetryExecutor27execute_with_classificationpppEB8_
FNDA:0,_RINvMs1_NtCs9JGNcCDhGtu_2db5retryNtB6_13RetryExecutor7executeppppEB8_
FNDA:0,_RNCINvMs1_NtCs9JGNcCDhGtu_2db5retryNtB8_13RetryExecutor27execute_with_classificationpppE0Ba_
FNDA:0,_RNCINvMs1_NtCs9JGNcCDhGtu_2db5retryNtB8_13RetryExecutor7executeppppE0Ba_
FNDA:0,_RINvMs1_NtCs9JGNcCDhGtu_2db5retryNtB6_13RetryExecutor27execute_with_classificationNCNCNvMNtB8_10connectionNtB1p_12DatabasePool11with_config00NCNCB1k_00INtNtCsgkja2qPsmH1_9sqlx_core4pool4PoolNtNtCs9ZCbkk8MNCp_13sqlx_postgres8database8PostgresEECsiLqmQIFToUG_11http_server
FNDA:0,_RNCINvMs1_NtCs9JGNcCDhGtu_2db5retryNtB8_13RetryExecutor27execute_with_classificationNCNCNvMNtBa_10connectionNtB1r_12DatabasePool11with_config00NCNCB1m_00INtNtCsgkja2qPsmH1_9sqlx_core4pool4PoolNtNtCs9ZCbkk8MNCp_13sqlx_postgres8database8PostgresEE0CsiLqmQIFToUG_11http_server
FNF:15
FNH:5
DA:32,15
DA:33,15
DA:34,15
DA:35,15
DA:36,15
DA:37,15
DA:38,15
DA:39,15
DA:40,15
DA:46,15
DA:47,15
DA:49,15
DA:50,0
DA:51,0
DA:52,0
DA:53,15
DA:55,15
DA:56,0
DA:57,0
DA:58,0
DA:59,15
DA:61,15
DA:62,0
DA:63,0
DA:64,0
DA:65,15
DA:67,15
DA:68,0
DA:69,0
DA:70,0
DA:71,15
DA:73,15
DA:74,0
DA:75,15
DA:77,15
DA:78,15
DA:85,0
DA:86,0
DA:87,0
DA:88,0
DA:90,0
DA:91,0
DA:92,0
DA:94,0
DA:95,0
DA:96,0
DA:97,0
DA:98,0
DA:100,0
DA:101,0
DA:102,0
DA:104,0
DA:105,0
DA:109,0
DA:110,0
DA:111,0
DA:112,0
DA:114,0
DA:115,0
DA:116,0
DA:118,0
DA:119,0
DA:121,0
DA:123,0
DA:126,0
DA:128,0
DA:129,0
DA:130,0
DA:131,0
DA:154,0
DA:155,0
DA:158,0
DA:161,0
DA:163,0
DA:167,0
DA:168,0
DA:170,0
DA:172,0
DA:173,0
DA:174,0
DA:175,0
DA:176,0
DA:177,0
DA:179,0
DA:180,0
DA:182,0
DA:184,0
DA:186,0
DA:197,0
DA:198,0
DA:199,0
DA:200,0
DA:201,0
DA:205,15
DA:206,15
DA:207,15
DA:216,0
DA:217,0
DA:218,0
DA:219,0
DA:220,0
DA:221,0
DA:222,0
DA:224,0
DA:225,0
DA:226,0
DA:227,0
DA:228,0
DA:231,0
DA:232,0
DA:233,0
DA:234,0
DA:235,0
DA:236,0
DA:238,0
DA:239,0
DA:241,0
DA:242,0
DA:243,0
DA:244,0
DA:247,0
DA:248,0
DA:250,0
DA:251,0
DA:252,0
DA:253,0
DA:258,0
DA:263,0
DA:264,0
DA:273,15
DA:274,15
DA:275,15
DA:276,15
DA:277,15
DA:278,15
DA:279,15
DA:281,15
DA:282,15
DA:283,0
DA:284,0
DA:285,0
DA:288,15
DA:289,15
DA:290,15
DA:291,0
DA:292,15
DA:293,15
DA:295,0
DA:296,0
DA:297,0
DA:300,0
DA:301,0
DA:302,0
DA:303,0
DA:304,0
DA:305,0
DA:306,0
DA:308,0
DA:309,0
DA:310,0
DA:311,0
DA:312,0
DA:314,0
DA:315,0
DA:317,0
DA:318,0
DA:319,0
DA:320,0
DA:322,0
DA:325,0
DA:330,0
DA:331,0
DA:332,0
DA:333,0
DA:334,0
DA:335,15
DA:339,0
DA:340,0
DA:341,0
DA:345,0
DA:346,0
DA:347,0
DA:348,0
DA:349,0
DA:350,0
DA:352,0
DA:353,0
DA:354,0
DA:356,0
BRF:0
BRH:0
LF:189
LH:41
end_of_record
SF:/workspace/agent-docs/embed/src/batch.rs
FN:53,_RNvMNtCskebhhnGw9Ks_5embed5batchNtB2_21EmbeddingBatchRequest13new_optimized
FN:72,_RNvMNtCskebhhnGw9Ks_5embed5batchNtB2_21EmbeddingBatchRequest13to_jsonl_line
FN:65,_RNvMNtCskebhhnGw9Ks_5embed5batchNtB2_21EmbeddingBatchRequest13with_metadata
FN:88,_RNvMNtCskebhhnGw9Ks_5embed5batchNtB2_21EmbeddingBatchRequest15estimate_tokens
FN:41,_RNvMNtCskebhhnGw9Ks_5embed5batchNtB2_21EmbeddingBatchRequest3new
FN:189,_RNvMs_NtCskebhhnGw9Ks_5embed5batchNtB4_14EmbeddingBatch11add_request
FN:215,_RNvMs_NtCskebhhnGw9Ks_5embed5batchNtB4_14EmbeddingBatch14mark_submitted
FN:242,_RNvMs_NtCskebhhnGw9Ks_5embed5batchNtB4_14EmbeddingBatch15process_results
FN:167,_RNvMs_NtCskebhhnGw9Ks_5embed5batchNtB4_14EmbeddingBatch19can_accept_requests
FN:309,_RNvMs_NtCskebhhnGw9Ks_5embed5batchNtB4_14EmbeddingBatch22generate_jsonl_content
FN:173,_RNvMs_NtCskebhhnGw9Ks_5embed5batchNtB4_14EmbeddingBatch23is_ready_for_processing
FN:222,_RNvMs_NtCskebhhnGw9Ks_5embed5batchNtB4_14EmbeddingBatch27update_from_openai_response
FN:151,_RNvMs_NtCskebhhnGw9Ks_5embed5batchNtB4_14EmbeddingBatch3new
FN:319,_RNvMs_NtCskebhhnGw9Ks_5embed5batchNtB4_14EmbeddingBatch9get_stats
FN:334,_RNCNCNvMs_NtCskebhhnGw9Ks_5embed5batchNtB8_14EmbeddingBatch9get_statss1_00Ba_
FN:289,_RNCNvMs_NtCskebhhnGw9Ks_5embed5batchNtB6_14EmbeddingBatch15process_results0B8_
FN:312,_RNCNvMs_NtCskebhhnGw9Ks_5embed5batchNtB6_14EmbeddingBatch22generate_jsonl_content0B8_
FN:321,_RNCNvMs_NtCskebhhnGw9Ks_5embed5batchNtB6_14EmbeddingBatch9get_stats0B8_
FN:332,_RNCNvMs_NtCskebhhnGw9Ks_5embed5batchNtB6_14EmbeddingBatch9get_statss1_0B8_
FN:322,_RNCNvMs_NtCskebhhnGw9Ks_5embed5batchNtB6_14EmbeddingBatch9get_statss_0B8_
FNDA:0,_RNvMNtCskebhhnGw9Ks_5embed5batchNtB2_21EmbeddingBatchRequest13new_optimized
FNDA:0,_RNvMNtCskebhhnGw9Ks_5embed5batchNtB2_21EmbeddingBatchRequest13to_jsonl_line
FNDA:0,_RNvMNtCskebhhnGw9Ks_5embed5batchNtB2_21EmbeddingBatchRequest13with_metadata
FNDA:0,_RNvMNtCskebhhnGw9Ks_5embed5batchNtB2_21EmbeddingBatchRequest15estimate_tokens
FNDA:0,_RNvMNtCskebhhnGw9Ks_5embed5batchNtB2_21EmbeddingBatchRequest3new
FNDA:0,_RNvMs_NtCskebhhnGw9Ks_5embed5batchNtB4_14EmbeddingBatch11add_request
FNDA:0,_RNvMs_NtCskebhhnGw9Ks_5embed5batchNtB4_14EmbeddingBatch14mark_submitted
FNDA:0,_RNvMs_NtCskebhhnGw9Ks_5embed5batchNtB4_14EmbeddingBatch15process_results
FNDA:0,_RNvMs_NtCskebhhnGw9Ks_5embed5batchNtB4_14EmbeddingBatch19can_accept_requests
FNDA:0,_RNvMs_NtCskebhhnGw9Ks_5embed5batchNtB4_14EmbeddingBatch22generate_jsonl_content
FNDA:0,_RNvMs_NtCskebhhnGw9Ks_5embed5batchNtB4_14EmbeddingBatch23is_ready_for_processing
FNDA:0,_RNvMs_NtCskebhhnGw9Ks_5embed5batchNtB4_14EmbeddingBatch27update_from_openai_response
FNDA:0,_RNvMs_NtCskebhhnGw9Ks_5embed5batchNtB4_14EmbeddingBatch3new
FNDA:0,_RNvMs_NtCskebhhnGw9Ks_5embed5batchNtB4_14EmbeddingBatch9get_stats
FNDA:0,_RNCNCNvMs_NtCskebhhnGw9Ks_5embed5batchNtB8_14EmbeddingBatch9get_statss1_00Ba_
FNDA:0,_RNCNvMs_NtCskebhhnGw9Ks_5embed5batchNtB6_14EmbeddingBatch15process_results0B8_
FNDA:0,_RNCNvMs_NtCskebhhnGw9Ks_5embed5batchNtB6_14EmbeddingBatch22generate_jsonl_content0B8_
FNDA:0,_RNCNvMs_NtCskebhhnGw9Ks_5embed5batchNtB6_14EmbeddingBatch9get_stats0B8_
FNDA:0,_RNCNvMs_NtCskebhhnGw9Ks_5embed5batchNtB6_14EmbeddingBatch9get_statss1_0B8_
FNDA:0,_RNCNvMs_NtCskebhhnGw9Ks_5embed5batchNtB6_14EmbeddingBatch9get_statss_0B8_
FNF:20
FNH:0
DA:41,0
DA:42,0
DA:43,0
DA:44,0
DA:45,0
DA:46,0
DA:47,0
DA:48,0
DA:49,0
DA:53,0
DA:54,0
DA:55,0
DA:56,0
DA:57,0
DA:58,0
DA:59,0
DA:60,0
DA:61,0
DA:65,0
DA:66,0
DA:67,0
DA:68,0
DA:72,0
DA:73,0
DA:74,0
DA:75,0
DA:76,0
DA:77,0
DA:78,0
DA:79,0
DA:80,0
DA:81,0
DA:82,0
DA:83,0
DA:84,0
DA:88,0
DA:89,0
DA:90,0
DA:151,0
DA:152,0
DA:153,0
DA:154,0
DA:155,0
DA:156,0
DA:157,0
DA:158,0
DA:159,0
DA:160,0
DA:161,0
DA:162,0
DA:163,0
DA:167,0
DA:168,0
DA:169,0
DA:173,0
DA:174,0
DA:176,0
DA:177,0
DA:179,0
DA:180,0
DA:182,0
DA:189,0
DA:190,0
DA:191,0
DA:192,0
DA:193,0
DA:194,0
DA:195,0
DA:196,0
DA:197,0
DA:199,0
DA:202,0
DA:203,0
DA:204,0
DA:205,0
DA:207,0
DA:209,0
DA:211,0
DA:212,0
DA:215,0
DA:216,0
DA:217,0
DA:218,0
DA:219,0
DA:222,0
DA:223,0
DA:225,0
DA:227,0
DA:228,0
DA:229,0
DA:232,0
DA:233,0
DA:234,0
DA:235,0
DA:242,0
DA:243,0
DA:244,0
DA:246,0
DA:247,0
DA:249,0
DA:250,0
DA:252,0
DA:253,0
DA:254,0
DA:255,0
DA:256,0
DA:257,0
DA:258,0
DA:262,0
DA:263,0
DA:264,0
DA:265,0
DA:266,0
DA:267,0
DA:268,0
DA:269,0
DA:270,0
DA:271,0
DA:272,0
DA:273,0
DA:274,0
DA:275,0
DA:276,0
DA:277,0
DA:278,0
DA:279,0
DA:285,0
DA:286,0
DA:287,0
DA:288,0
DA:289,0
DA:290,0
DA:292,0
DA:294,0
DA:295,0
DA:296,0
DA:299,0
DA:300,0
DA:301,0
DA:304,0
DA:305,0
DA:309,0
DA:310,0
DA:311,0
DA:312,0
DA:313,0
DA:314,0
DA:315,0
DA:319,0
DA:320,0
DA:321,0
DA:322,0
DA:323,0
DA:326,0
DA:327,0
DA:328,0
DA:329,0
DA:330,0
DA:331,0
DA:332,0
DA:333,0
DA:334,0
DA:335,0
DA:337,0
BRF:0
BRH:0
LF:170
LH:0
end_of_record
SF:/workspace/agent-docs/embed/src/client.rs
FN:385,_RINvMs4_NtCskebhhnGw9Ks_5embed6clientNtB6_21OpenAIEmbeddingClient18execute_with_retryNCNCNvXsf_B6_Bz_NtB6_15EmbeddingClient12create_batch00NCNCB1n_00NtNtB8_6models13BatchResponseEB8_
FN:385,_RINvMs4_NtCskebhhnGw9Ks_5embed6clientNtB6_21OpenAIEmbeddingClient18execute_with_retryNCNCNvXsf_B6_Bz_NtB6_15EmbeddingClient17upload_batch_file00NCNCB1n_00NtNtB8_6models18FileUploadResponseEB8_
FN:389,_RNCINvMs4_NtCskebhhnGw9Ks_5embed6clientNtB8_21OpenAIEmbeddingClient18execute_with_retryNCNCNvXsf_B8_BB_NtB8_15EmbeddingClient12create_batch00NCNCB1p_00NtNtBa_6models13BatchResponseE0Ba_
FN:389,_RNCINvMs4_NtCskebhhnGw9Ks_5embed6clientNtB8_21OpenAIEmbeddingClient18execute_with_retryNCNCNvXsf_B8_BB_NtB8_15EmbeddingClient17upload_batch_file00NCNCB1p_00NtNtBa_6models18FileUploadResponseE0Ba_
FN:454,_RNCNCINvMs4_NtCskebhhnGw9Ks_5embed6clientNtBa_21OpenAIEmbeddingClient18execute_with_retryNCNCNvXsf_Ba_BD_NtBa_15EmbeddingClient12create_batch00NCNCB1r_00NtNtBc_6models13BatchResponseE00Bc_
FN:454,_RNCNCINvMs4_NtCskebhhnGw9Ks_5embed6clientNtBa_21OpenAIEmbeddingClient18execute_with_retryNCNCNvXsf_Ba_BD_NtBa_15EmbeddingClient17upload_batch_file00NCNCB1r_00NtNtBc_6models18FileUploadResponseE00Bc_
FN:610,_RNCNCNCNCNvXsf_NtCskebhhnGw9Ks_5embed6clientNtBd_21OpenAIEmbeddingClientNtBd_15EmbeddingClient12create_batch0000Bf_
FN:571,_RNCNCNCNCNvXsf_NtCskebhhnGw9Ks_5embed6clientNtBd_21OpenAIEmbeddingClientNtBd_15EmbeddingClient17upload_batch_file0000Bf_
FN:589,_RNCNCNCNvXsf_NtCskebhhnGw9Ks_5embed6clientNtBb_21OpenAIEmbeddingClientNtBb_15EmbeddingClient12create_batch000Bd_
FN:551,_RNCNCNCNvXsf_NtCskebhhnGw9Ks_5embed6clientNtBb_21OpenAIEmbeddingClientNtBb_15EmbeddingClient17upload_batch_file000Bd_
FN:523,_RNCNCNCNvXsf_NtCskebhhnGw9Ks_5embed6clientNtBb_21OpenAIEmbeddingClientNtBb_15EmbeddingClient18generate_embedding0s4_00Bd_
FN:524,_RNCNCNCNvXsf_NtCskebhhnGw9Ks_5embed6clientNtBb_21OpenAIEmbeddingClientNtBb_15EmbeddingClient18generate_embedding0s4_0s_0Bd_
FN:703,_RNCNCNvXsf_NtCskebhhnGw9Ks_5embed6clientNtB9_21OpenAIEmbeddingClientNtB9_15EmbeddingClient12cancel_batch00Bb_
FN:618,_RNCNCNvXsf_NtCskebhhnGw9Ks_5embed6clientNtB9_21OpenAIEmbeddingClientNtB9_15EmbeddingClient12create_batch00Bb_
FN:579,_RNCNCNvXsf_NtCskebhhnGw9Ks_5embed6clientNtB9_21OpenAIEmbeddingClientNtB9_15EmbeddingClient17upload_batch_file00Bb_
FN:503,_RNCNCNvXsf_NtCskebhhnGw9Ks_5embed6clientNtB9_21OpenAIEmbeddingClientNtB9_15EmbeddingClient18generate_embedding00Bb_
FN:513,_RNCNCNvXsf_NtCskebhhnGw9Ks_5embed6clientNtB9_21OpenAIEmbeddingClientNtB9_15EmbeddingClient18generate_embedding0s0_0Bb_
FN:514,_RNCNCNvXsf_NtCskebhhnGw9Ks_5embed6clientNtB9_21OpenAIEmbeddingClientNtB9_15EmbeddingClient18generate_embedding0s1_0Bb_
FN:515,_RNCNCNvXsf_NtCskebhhnGw9Ks_5embed6clientNtB9_21OpenAIEmbeddingClientNtB9_15EmbeddingClient18generate_embedding0s2_0Bb_
FN:516,_RNCNCNvXsf_NtCskebhhnGw9Ks_5embed6clientNtB9_21OpenAIEmbeddingClientNtB9_15EmbeddingClient18generate_embedding0s3_0Bb_
FN:521,_RNCNCNvXsf_NtCskebhhnGw9Ks_5embed6clientNtB9_21OpenAIEmbeddingClientNtB9_15EmbeddingClient18generate_embedding0s4_0Bb_
FN:512,_RNCNCNvXsf_NtCskebhhnGw9Ks_5embed6clientNtB9_21OpenAIEmbeddingClientNtB9_15EmbeddingClient18generate_embedding0s_0Bb_
FN:662,_RNCNCNvXsf_NtCskebhhnGw9Ks_5embed6clientNtB9_21OpenAIEmbeddingClientNtB9_15EmbeddingClient22download_batch_results00Bb_
FN:637,_RNCNCNvXsf_NtCskebhhnGw9Ks_5embed6clientNtB9_21OpenAIEmbeddingClientNtB9_15EmbeddingClient9get_batch00Bb_
FN:273,_RNCNvMs2_NtCskebhhnGw9Ks_5embed6clientNtB7_11RateLimiter17wait_for_capacity0B9_
FN:371,_RNCNvMs4_NtCskebhhnGw9Ks_5embed6clientNtB7_21OpenAIEmbeddingClient3new0B9_
FN:47,_RNvMNtCskebhhnGw9Ks_5embed6clientNtB2_11RetryPolicy15calculate_delay
FN:67,_RNvMNtCskebhhnGw9Ks_5embed6clientNtB2_11RetryPolicy18is_retryable_error
FN:35,_RNvMNtCskebhhnGw9Ks_5embed6clientNtB2_11RetryPolicy3new
FN:130,_RNvMs0_NtCskebhhnGw9Ks_5embed6clientNtB5_14CircuitBreaker11can_proceed
FN:158,_RNvMs0_NtCskebhhnGw9Ks_5embed6clientNtB5_14CircuitBreaker14record_failure
FN:151,_RNvMs0_NtCskebhhnGw9Ks_5embed6clientNtB5_14CircuitBreaker14record_success
FN:118,_RNvMs0_NtCskebhhnGw9Ks_5embed6clientNtB5_14CircuitBreaker3new
FN:215,_RNvMs1_NtCskebhhnGw9Ks_5embed6clientNtB5_11TokenBucket11try_consume
FN:226,_RNvMs1_NtCskebhhnGw9Ks_5embed6clientNtB5_11TokenBucket20time_to_availability
FN:195,_RNvMs1_NtCskebhhnGw9Ks_5embed6clientNtB5_11TokenBucket3new
FN:205,_RNvMs1_NtCskebhhnGw9Ks_5embed6clientNtB5_11TokenBucket6refill
FN:311,_RNvMs2_NtCskebhhnGw9Ks_5embed6clientNtB5_11RateLimiter15estimate_tokens
FN:273,_RNvMs2_NtCskebhhnGw9Ks_5embed6clientNtB5_11RateLimiter17wait_for_capacity
FN:250,_RNvMs2_NtCskebhhnGw9Ks_5embed6clientNtB5_11RateLimiter3new
FN:370,_RNvMs4_NtCskebhhnGw9Ks_5embed6clientNtB5_21OpenAIEmbeddingClient3new
FN:324,_RNvXs3_NtCskebhhnGw9Ks_5embed6clientNtB5_11RateLimiterNtNtCs66KPHxksi63_4core7default7Default7default
FN:84,_RNvXs_NtCskebhhnGw9Ks_5embed6clientNtB4_11RetryPolicyNtNtCs66KPHxksi63_4core7default7Default7default
FN:686,_RNvXsf_NtCskebhhnGw9Ks_5embed6clientNtB5_21OpenAIEmbeddingClientNtB5_15EmbeddingClient12cancel_batch
FN:584,_RNvXsf_NtCskebhhnGw9Ks_5embed6clientNtB5_21OpenAIEmbeddingClientNtB5_15EmbeddingClient12create_batch
FN:541,_RNvXsf_NtCskebhhnGw9Ks_5embed6clientNtB5_21OpenAIEmbeddingClientNtB5_15EmbeddingClient17upload_batch_file
FN:472,_RNvXsf_NtCskebhhnGw9Ks_5embed6clientNtB5_21OpenAIEmbeddingClientNtB5_15EmbeddingClient18generate_embedding
FN:648,_RNvXsf_NtCskebhhnGw9Ks_5embed6clientNtB5_21OpenAIEmbeddingClientNtB5_15EmbeddingClient22download_batch_results
FN:461,_RNvXsf_NtCskebhhnGw9Ks_5embed6clientNtB5_21OpenAIEmbeddingClientNtB5_15EmbeddingClient5embed
FN:623,_RNvXsf_NtCskebhhnGw9Ks_5embed6clientNtB5_21OpenAIEmbeddingClientNtB5_15EmbeddingClient9get_batch
FNDA:0,_RINvMs4_NtCskebhhnGw9Ks_5embed6clientNtB6_21OpenAIEmbeddingClient18execute_with_retryNCNCNvXsf_B6_Bz_NtB6_15EmbeddingClient12create_batch00NCNCB1n_00NtNtB8_6models13BatchResponseEB8_
FNDA:0,_RINvMs4_NtCskebhhnGw9Ks_5embed6clientNtB6_21OpenAIEmbeddingClient18execute_with_retryNCNCNvXsf_B6_Bz_NtB6_15EmbeddingClient17upload_batch_file00NCNCB1n_00NtNtB8_6models18FileUploadResponseEB8_
FNDA:0,_RNCINvMs4_NtCskebhhnGw9Ks_5embed6clientNtB8_21OpenAIEmbeddingClient18execute_with_retryNCNCNvXsf_B8_BB_NtB8_15EmbeddingClient12create_batch00NCNCB1p_00NtNtBa_6models13BatchResponseE0Ba_
FNDA:0,_RNCINvMs4_NtCskebhhnGw9Ks_5embed6clientNtB8_21OpenAIEmbeddingClient18execute_with_retryNCNCNvXsf_B8_BB_NtB8_15EmbeddingClient17upload_batch_file00NCNCB1p_00NtNtBa_6models18FileUploadResponseE0Ba_
FNDA:0,_RNCNCINvMs4_NtCskebhhnGw9Ks_5embed6clientNtBa_21OpenAIEmbeddingClient18execute_with_retryNCNCNvXsf_Ba_BD_NtBa_15EmbeddingClient12create_batch00NCNCB1r_00NtNtBc_6models13BatchResponseE00Bc_
FNDA:0,_RNCNCINvMs4_NtCskebhhnGw9Ks_5embed6clientNtBa_21OpenAIEmbeddingClient18execute_with_retryNCNCNvXsf_Ba_BD_NtBa_15EmbeddingClient17upload_batch_file00NCNCB1r_00NtNtBc_6models18FileUploadResponseE00Bc_
FNDA:0,_RNCNCNCNCNvXsf_NtCskebhhnGw9Ks_5embed6clientNtBd_21OpenAIEmbeddingClientNtBd_15EmbeddingClient12create_batch0000Bf_
FNDA:0,_RNCNCNCNCNvXsf_NtCskebhhnGw9Ks_5embed6clientNtBd_21OpenAIEmbeddingClientNtBd_15EmbeddingClient17upload_batch_file0000Bf_
FNDA:0,_RNCNCNCNvXsf_NtCskebhhnGw9Ks_5embed6clientNtBb_21OpenAIEmbeddingClientNtBb_15EmbeddingClient12create_batch000Bd_
FNDA:0,_RNCNCNCNvXsf_NtCskebhhnGw9Ks_5embed6clientNtBb_21OpenAIEmbeddingClientNtBb_15EmbeddingClient17upload_batch_file000Bd_
FNDA:0,_RNCNCNCNvXsf_NtCskebhhnGw9Ks_5embed6clientNtBb_21OpenAIEmbeddingClientNtBb_15EmbeddingClient18generate_embedding0s4_00Bd_
FNDA:0,_RNCNCNCNvXsf_NtCskebhhnGw9Ks_5embed6clientNtBb_21OpenAIEmbeddingClientNtBb_15EmbeddingClient18generate_embedding0s4_0s_0Bd_
FNDA:0,_RNCNCNvXsf_NtCskebhhnGw9Ks_5embed6clientNtB9_21OpenAIEmbeddingClientNtB9_15EmbeddingClient12cancel_batch00Bb_
FNDA:0,_RNCNCNvXsf_NtCskebhhnGw9Ks_5embed6clientNtB9_21OpenAIEmbeddingClientNtB9_15EmbeddingClient12create_batch00Bb_
FNDA:0,_RNCNCNvXsf_NtCskebhhnGw9Ks_5embed6clientNtB9_21OpenAIEmbeddingClientNtB9_15EmbeddingClient17upload_batch_file00Bb_
FNDA:0,_RNCNCNvXsf_NtCskebhhnGw9Ks_5embed6clientNtB9_21OpenAIEmbeddingClientNtB9_15EmbeddingClient18generate_embedding00Bb_
FNDA:0,_RNCNCNvXsf_NtCskebhhnGw9Ks_5embed6clientNtB9_21OpenAIEmbeddingClientNtB9_15EmbeddingClient18generate_embedding0s0_0Bb_
FNDA:0,_RNCNCNvXsf_NtCskebhhnGw9Ks_5embed6clientNtB9_21OpenAIEmbeddingClientNtB9_15EmbeddingClient18generate_embedding0s1_0Bb_
FNDA:0,_RNCNCNvXsf_NtCskebhhnGw9Ks_5embed6clientNtB9_21OpenAIEmbeddingClientNtB9_15EmbeddingClient18generate_embedding0s2_0Bb_
FNDA:0,_RNCNCNvXsf_NtCskebhhnGw9Ks_5embed6clientNtB9_21OpenAIEmbeddingClientNtB9_15EmbeddingClient18generate_embedding0s3_0Bb_
FNDA:0,_RNCNCNvXsf_NtCskebhhnGw9Ks_5embed6clientNtB9_21OpenAIEmbeddingClientNtB9_15EmbeddingClient18generate_embedding0s4_0Bb_
FNDA:0,_RNCNCNvXsf_NtCskebhhnGw9Ks_5embed6clientNtB9_21OpenAIEmbeddingClientNtB9_15EmbeddingClient18generate_embedding0s_0Bb_
FNDA:0,_RNCNCNvXsf_NtCskebhhnGw9Ks_5embed6clientNtB9_21OpenAIEmbeddingClientNtB9_15EmbeddingClient22download_batch_results00Bb_
FNDA:0,_RNCNCNvXsf_NtCskebhhnGw9Ks_5embed6clientNtB9_21OpenAIEmbeddingClientNtB9_15EmbeddingClient9get_batch00Bb_
FNDA:0,_RNCNvMs2_NtCskebhhnGw9Ks_5embed6clientNtB7_11RateLimiter17wait_for_capacity0B9_
FNDA:0,_RNCNvMs4_NtCskebhhnGw9Ks_5embed6clientNtB7_21OpenAIEmbeddingClient3new0B9_
FNDA:0,_RNvMNtCskebhhnGw9Ks_5embed6clientNtB2_11RetryPolicy15calculate_delay
FNDA:0,_RNvMNtCskebhhnGw9Ks_5embed6clientNtB2_11RetryPolicy18is_retryable_error
FNDA:0,_RNvMNtCskebhhnGw9Ks_5embed6clientNtB2_11RetryPolicy3new
FNDA:0,_RNvMs0_NtCskebhhnGw9Ks_5embed6clientNtB5_14CircuitBreaker11can_proceed
FNDA:0,_RNvMs0_NtCskebhhnGw9Ks_5embed6clientNtB5_14CircuitBreaker14record_failure
FNDA:0,_RNvMs0_NtCskebhhnGw9Ks_5embed6clientNtB5_14CircuitBreaker14record_success
FNDA:0,_RNvMs0_NtCskebhhnGw9Ks_5embed6clientNtB5_14CircuitBreaker3new
FNDA:0,_RNvMs1_NtCskebhhnGw9Ks_5embed6clientNtB5_11TokenBucket11try_consume
FNDA:0,_RNvMs1_NtCskebhhnGw9Ks_5embed6clientNtB5_11TokenBucket20time_to_availability
FNDA:0,_RNvMs1_NtCskebhhnGw9Ks_5embed6clientNtB5_11TokenBucket3new
FNDA:0,_RNvMs1_NtCskebhhnGw9Ks_5embed6clientNtB5_11TokenBucket6refill
FNDA:0,_RNvMs2_NtCskebhhnGw9Ks_5embed6clientNtB5_11RateLimiter15estimate_tokens
FNDA:0,_RNvMs2_NtCskebhhnGw9Ks_5embed6clientNtB5_11RateLimiter17wait_for_capacity
FNDA:0,_RNvMs2_NtCskebhhnGw9Ks_5embed6clientNtB5_11RateLimiter3new
FNDA:0,_RNvMs4_NtCskebhhnGw9Ks_5embed6clientNtB5_21OpenAIEmbeddingClient3new
FNDA:0,_RNvXs3_NtCskebhhnGw9Ks_5embed6clientNtB5_11RateLimiterNtNtCs66KPHxksi63_4core7default7Default7default
FNDA:0,_RNvXs_NtCskebhhnGw9Ks_5embed6clientNtB4_11RetryPolicyNtNtCs66KPHxksi63_4core7default7Default7default
FNDA:0,_RNvXsf_NtCskebhhnGw9Ks_5embed6clientNtB5_21OpenAIEmbeddingClientNtB5_15EmbeddingClient12cancel_batch
FNDA:0,_RNvXsf_NtCskebhhnGw9Ks_5embed6clientNtB5_21OpenAIEmbeddingClientNtB5_15EmbeddingClient12create_batch
FNDA:0,_RNvXsf_NtCskebhhnGw9Ks_5embed6clientNtB5_21OpenAIEmbeddingClientNtB5_15EmbeddingClient17upload_batch_file
FNDA:0,_RNvXsf_NtCskebhhnGw9Ks_5embed6clientNtB5_21OpenAIEmbeddingClientNtB5_15EmbeddingClient18generate_embedding
FNDA:0,_RNvXsf_NtCskebhhnGw9Ks_5embed6clientNtB5_21OpenAIEmbeddingClientNtB5_15EmbeddingClient22download_batch_results
FNDA:0,_RNvXsf_NtCskebhhnGw9Ks_5embed6clientNtB5_21OpenAIEmbeddingClientNtB5_15EmbeddingClient5embed
FNDA:0,_RNvXsf_NtCskebhhnGw9Ks_5embed6clientNtB5_21OpenAIEmbeddingClientNtB5_15EmbeddingClient9get_batch
FNF:47
FNH:0
DA:35,0
DA:36,0
DA:37,0
DA:38,0
DA:39,0
DA:40,0
DA:41,0
DA:42,0
DA:43,0
DA:47,0
DA:48,0
DA:49,0
DA:50,0
DA:53,0
DA:54,0
DA:55,0
DA:58,0
DA:59,0
DA:60,0
DA:62,0
DA:63,0
DA:67,0
DA:68,0
DA:71,0
DA:72,0
DA:73,0
DA:74,0
DA:75,0
DA:76,0
DA:77,0
DA:78,0
DA:79,0
DA:80,0
DA:84,0
DA:85,0
DA:86,0
DA:118,0
DA:119,0
DA:120,0
DA:121,0
DA:122,0
DA:123,0
DA:124,0
DA:125,0
DA:126,0
DA:130,0
DA:131,0
DA:132,0
DA:134,0
DA:135,0
DA:136,0
DA:137,0
DA:139,0
DA:143,0
DA:144,0
DA:148,0
DA:151,0
DA:152,0
DA:153,0
DA:154,0
DA:155,0
DA:158,0
DA:159,0
DA:160,0
DA:162,0
DA:163,0
DA:164,0
DA:165,0
DA:168,0
DA:169,0
DA:195,0
DA:196,0
DA:197,0
DA:198,0
DA:199,0
DA:200,0
DA:201,0
DA:202,0
DA:205,0
DA:206,0
DA:207,0
DA:208,0
DA:210,0
DA:211,0
DA:212,0
DA:215,0
DA:216,0
DA:217,0
DA:218,0
DA:219,0
DA:221,0
DA:223,0
DA:226,0
DA:227,0
DA:228,0
DA:229,0
DA:231,0
DA:232,0
DA:233,0
DA:235,0
DA:250,0
DA:252,0
DA:254,0
DA:256,0
DA:257,0
DA:258,0
DA:259,0
DA:260,0
DA:261,0
DA:262,0
DA:263,0
DA:264,0
DA:265,0
DA:266,0
DA:273,0
DA:274,0
DA:277,0
DA:278,0
DA:281,0
DA:282,0
DA:283,0
DA:286,0
DA:287,0
DA:290,0
DA:291,0
DA:292,0
DA:294,0
DA:295,0
DA:297,0
DA:298,0
DA:299,0
DA:302,0
DA:306,0
DA:307,0
DA:311,0
DA:318,0
DA:319,0
DA:320,0
DA:324,0
DA:325,0
DA:326,0
DA:370,0
DA:371,0
DA:373,0
DA:375,0
DA:376,0
DA:377,0
DA:378,0
DA:379,0
DA:380,0
DA:381,0
DA:382,0
DA:385,0
DA:386,0
DA:387,0
DA:388,0
DA:389,0
DA:392,0
DA:393,0
DA:394,0
DA:395,0
DA:396,0
DA:397,0
DA:400,0
DA:402,0
DA:403,0
DA:404,0
DA:407,0
DA:408,0
DA:410,0
DA:412,0
DA:413,0
DA:416,0
DA:417,0
DA:418,0
DA:421,0
DA:422,0
DA:423,0
DA:424,0
DA:425,0
DA:426,0
DA:429,0
DA:430,0
DA:431,0
DA:432,0
DA:433,0
DA:435,0
DA:436,0
DA:441,0
DA:442,0
DA:443,0
DA:450,0
DA:451,0
DA:454,0
DA:455,0
DA:461,0
DA:469,0
DA:472,0
DA:503,0
DA:512,0
DA:513,0
DA:514,0
DA:515,0
DA:516,0
DA:521,0
DA:522,0
DA:523,0
DA:524,0
DA:525,0
DA:538,0
DA:541,0
DA:551,0
DA:552,0
DA:554,0
DA:555,0
DA:556,0
DA:559,0
DA:560,0
DA:561,0
DA:562,0
DA:563,0
DA:564,0
DA:565,0
DA:567,0
DA:568,0
DA:569,0
DA:570,0
DA:571,0
DA:572,0
DA:573,0
DA:574,0
DA:576,0
DA:577,0
DA:578,0
DA:579,0
DA:581,0
DA:584,0
DA:589,0
DA:590,0
DA:591,0
DA:592,0
DA:593,0
DA:594,0
DA:595,0
DA:597,0
DA:598,0
DA:599,0
DA:600,0
DA:601,0
DA:602,0
DA:603,0
DA:604,0
DA:606,0
DA:607,0
DA:608,0
DA:609,0
DA:610,0
DA:611,0
DA:612,0
DA:613,0
DA:615,0
DA:616,0
DA:617,0
DA:618,0
DA:620,0
DA:623,0
DA:637,0
DA:645,0
DA:648,0
DA:662,0
DA:683,0
DA:686,0
DA:703,0
DA:711,0
BRF:0
BRH:0
LF:283
LH:0
end_of_record
SF:/workspace/agent-docs/embed/src/models.rs
FN:222,_RNvMNtCskebhhnGw9Ks_5embed6modelsNtB2_8CostInfo28savings_percentage_formatted
FN:202,_RNvMNtCskebhhnGw9Ks_5embed6modelsNtB2_8CostInfo9calculate
FNDA:0,_RNvMNtCskebhhnGw9Ks_5embed6modelsNtB2_8CostInfo28savings_percentage_formatted
FNDA:0,_RNvMNtCskebhhnGw9Ks_5embed6modelsNtB2_8CostInfo9calculate
FNF:2
FNH:0
DA:202,0
DA:203,0
DA:204,0
DA:205,0
DA:206,0
DA:207,0
DA:209,0
DA:210,0
DA:211,0
DA:212,0
DA:213,0
DA:214,0
DA:215,0
DA:216,0
DA:217,0
DA:218,0
DA:222,0
DA:223,0
DA:224,0
BRF:0
BRH:0
LF:19
LH:0
end_of_record
SF:/workspace/agent-docs/loader/src/loaders.rs
FN:60,_RNCNCNvMNtCs42xciLWDxiV_6loader7loadersNtB6_11RateLimiter3get00Csi7GHPcvMyXT_3mcp
FN:193,_RNCNCNvMs1_NtCs42xciLWDxiV_6loader7loadersNtB9_10RustLoader20fetch_crate_metadata00Csi7GHPcvMyXT_3mcp
FN:202,_RNCNCNvMs1_NtCs42xciLWDxiV_6loader7loadersNtB9_10RustLoader20fetch_crate_metadata0s0_0Csi7GHPcvMyXT_3mcp
FN:207,_RNCNCNvMs1_NtCs42xciLWDxiV_6loader7loadersNtB9_10RustLoader20fetch_crate_metadata0s1_0Csi7GHPcvMyXT_3mcp
FN:212,_RNCNCNvMs1_NtCs42xciLWDxiV_6loader7loadersNtB9_10RustLoader20fetch_crate_metadata0s2_0Csi7GHPcvMyXT_3mcp
FN:216,_RNCNCNvMs1_NtCs42xciLWDxiV_6loader7loadersNtB9_10RustLoader20fetch_crate_metadata0s3_0Csi7GHPcvMyXT_3mcp
FN:197,_RNCNCNvMs1_NtCs42xciLWDxiV_6loader7loadersNtB9_10RustLoader20fetch_crate_metadata0s_0Csi7GHPcvMyXT_3mcp
FN:40,_RNCNvMNtCs42xciLWDxiV_6loader7loadersNtB4_11RateLimiter3get0Csi7GHPcvMyXT_3mcp
FN:132,_RNCNvMs1_NtCs42xciLWDxiV_6loader7loadersNtB7_10RustLoader15load_crate_docs0Csi7GHPcvMyXT_3mcp
FN:187,_RNCNvMs1_NtCs42xciLWDxiV_6loader7loadersNtB7_10RustLoader20fetch_crate_metadata0Csi7GHPcvMyXT_3mcp
FN:40,_RNvMNtCs42xciLWDxiV_6loader7loadersNtB2_11RateLimiter3get
FN:27,_RNvMNtCs42xciLWDxiV_6loader7loadersNtB2_11RateLimiter3new
FN:128,_RNvMs1_NtCs42xciLWDxiV_6loader7loadersNtB5_10RustLoader15load_crate_docs
FN:256,_RNvMs1_NtCs42xciLWDxiV_6loader7loadersNtB5_10RustLoader17fetch_single_page
FN:369,_RNvMs1_NtCs42xciLWDxiV_6loader7loadersNtB5_10RustLoader18fetch_docs_rs_item
FN:392,_RNvMs1_NtCs42xciLWDxiV_6loader7loadersNtB5_10RustLoader19extract_module_path
FN:348,_RNvMs1_NtCs42xciLWDxiV_6loader7loadersNtB5_10RustLoader19resolve_docs_rs_url
FN:187,_RNvMs1_NtCs42xciLWDxiV_6loader7loadersNtB5_10RustLoader20fetch_crate_metadata
FN:159,_RNvMs1_NtCs42xciLWDxiV_6loader7loadersNtB5_10RustLoader25create_stub_documentation
FN:375,_RNvMs1_NtCs42xciLWDxiV_6loader7loadersNtB5_10RustLoader28determine_item_type_from_url
FN:309,_RNvMs1_NtCs42xciLWDxiV_6loader7loadersNtB5_10RustLoader28discover_documentation_pages
FN:115,_RNvMs1_NtCs42xciLWDxiV_6loader7loadersNtB5_10RustLoader3new
FN:106,_RNvXs0_NtCs42xciLWDxiV_6loader7loadersNtB5_10RustLoaderNtNtCs66KPHxksi63_4core7default7Default7default
FN:76,_RNvXs_NtCs42xciLWDxiV_6loader7loadersNtB4_11RateLimiterNtNtCs66KPHxksi63_4core7default7Default7default
FN:399,_RNCNvMs1_NtCs42xciLWDxiV_6loader7loadersNtB7_10RustLoader19extract_module_path0B9_
FN:407,_RNCNvMs1_NtCs42xciLWDxiV_6loader7loadersNtB7_10RustLoader19extract_module_paths0_0B9_
FN:408,_RNCNvMs1_NtCs42xciLWDxiV_6loader7loadersNtB7_10RustLoader19extract_module_paths1_0B9_
FN:409,_RNCNvMs1_NtCs42xciLWDxiV_6loader7loadersNtB7_10RustLoader19extract_module_paths2_0B9_
FN:403,_RNCNvMs1_NtCs42xciLWDxiV_6loader7loadersNtB7_10RustLoader19extract_module_paths_0B9_
FNDA:0,_RNCNCNvMNtCs42xciLWDxiV_6loader7loadersNtB6_11RateLimiter3get00Csi7GHPcvMyXT_3mcp
FNDA:0,_RNCNCNvMs1_NtCs42xciLWDxiV_6loader7loadersNtB9_10RustLoader20fetch_crate_metadata00Csi7GHPcvMyXT_3mcp
FNDA:0,_RNCNCNvMs1_NtCs42xciLWDxiV_6loader7loadersNtB9_10RustLoader20fetch_crate_metadata0s0_0Csi7GHPcvMyXT_3mcp
FNDA:0,_RNCNCNvMs1_NtCs42xciLWDxiV_6loader7loadersNtB9_10RustLoader20fetch_crate_metadata0s1_0Csi7GHPcvMyXT_3mcp
FNDA:0,_RNCNCNvMs1_NtCs42xciLWDxiV_6loader7loadersNtB9_10RustLoader20fetch_crate_metadata0s2_0Csi7GHPcvMyXT_3mcp
FNDA:0,_RNCNCNvMs1_NtCs42xciLWDxiV_6loader7loadersNtB9_10RustLoader20fetch_crate_metadata0s3_0Csi7GHPcvMyXT_3mcp
FNDA:0,_RNCNCNvMs1_NtCs42xciLWDxiV_6loader7loadersNtB9_10RustLoader20fetch_crate_metadata0s_0Csi7GHPcvMyXT_3mcp
FNDA:0,_RNCNvMNtCs42xciLWDxiV_6loader7loadersNtB4_11RateLimiter3get0Csi7GHPcvMyXT_3mcp
FNDA:0,_RNCNvMs1_NtCs42xciLWDxiV_6loader7loadersNtB7_10RustLoader15load_crate_docs0Csi7GHPcvMyXT_3mcp
FNDA:0,_RNCNvMs1_NtCs42xciLWDxiV_6loader7loadersNtB7_10RustLoader20fetch_crate_metadata0Csi7GHPcvMyXT_3mcp
FNDA:0,_RNvMNtCs42xciLWDxiV_6loader7loadersNtB2_11RateLimiter3get
FNDA:5,_RNvMNtCs42xciLWDxiV_6loader7loadersNtB2_11RateLimiter3new
FNDA:0,_RNvMs1_NtCs42xciLWDxiV_6loader7loadersNtB5_10RustLoader15load_crate_docs
FNDA:0,_RNvMs1_NtCs42xciLWDxiV_6loader7loadersNtB5_10RustLoader17fetch_single_page
FNDA:0,_RNvMs1_NtCs42xciLWDxiV_6loader7loadersNtB5_10RustLoader18fetch_docs_rs_item
FNDA:0,_RNvMs1_NtCs42xciLWDxiV_6loader7loadersNtB5_10RustLoader19extract_module_path
FNDA:0,_RNvMs1_NtCs42xciLWDxiV_6loader7loadersNtB5_10RustLoader19resolve_docs_rs_url
FNDA:0,_RNvMs1_NtCs42xciLWDxiV_6loader7loadersNtB5_10RustLoader20fetch_crate_metadata
FNDA:0,_RNvMs1_NtCs42xciLWDxiV_6loader7loadersNtB5_10RustLoader25create_stub_documentation
FNDA:0,_RNvMs1_NtCs42xciLWDxiV_6loader7loadersNtB5_10RustLoader28determine_item_type_from_url
FNDA:0,_RNvMs1_NtCs42xciLWDxiV_6loader7loadersNtB5_10RustLoader28discover_documentation_pages
FNDA:5,_RNvMs1_NtCs42xciLWDxiV_6loader7loadersNtB5_10RustLoader3new
FNDA:0,_RNvXs0_NtCs42xciLWDxiV_6loader7loadersNtB5_10RustLoaderNtNtCs66KPHxksi63_4core7default7Default7default
FNDA:0,_RNvXs_NtCs42xciLWDxiV_6loader7loadersNtB4_11RateLimiterNtNtCs66KPHxksi63_4core7default7Default7default
FNDA:0,_RNCNvMs1_NtCs42xciLWDxiV_6loader7loadersNtB7_10RustLoader19extract_module_path0B9_
FNDA:0,_RNCNvMs1_NtCs42xciLWDxiV_6loader7loadersNtB7_10RustLoader19extract_module_paths0_0B9_
FNDA:0,_RNCNvMs1_NtCs42xciLWDxiV_6loader7loadersNtB7_10RustLoader19extract_module_paths1_0B9_
FNDA:0,_RNCNvMs1_NtCs42xciLWDxiV_6loader7loadersNtB7_10RustLoader19extract_module_paths2_0B9_
FNDA:0,_RNCNvMs1_NtCs42xciLWDxiV_6loader7loadersNtB7_10RustLoader19extract_module_paths_0B9_
FNF:29
FNH:2
DA:27,5
DA:28,5
DA:29,5
DA:30,5
DA:31,5
DA:32,5
DA:33,5
DA:34,5
DA:35,5
DA:36,5
DA:37,5
DA:40,0
DA:42,0
DA:43,0
DA:44,0
DA:45,0
DA:46,0
DA:47,0
DA:48,0
DA:50,0
DA:51,0
DA:52,0
DA:54,0
DA:55,0
DA:56,0
DA:57,0
DA:58,0
DA:59,0
DA:60,0
DA:62,0
DA:64,0
DA:65,0
DA:66,0
DA:67,0
DA:68,0
DA:69,0
DA:71,0
DA:72,0
DA:76,0
DA:77,0
DA:78,0
DA:106,0
DA:107,0
DA:108,0
DA:115,5
DA:116,5
DA:117,5
DA:118,5
DA:119,5
DA:128,0
DA:129,0
DA:130,0
DA:131,0
DA:132,0
DA:133,0
DA:134,0
DA:139,0
DA:141,0
DA:142,0
DA:143,0
DA:148,0
DA:150,0
DA:151,0
DA:152,0
DA:155,0
DA:156,0
DA:159,0
DA:160,0
DA:162,0
DA:163,0
DA:164,0
DA:165,0
DA:166,0
DA:167,0
DA:168,0
DA:169,0
DA:170,0
DA:171,0
DA:172,0
DA:173,0
DA:174,0
DA:175,0
DA:176,0
DA:177,0
DA:178,0
DA:179,0
DA:180,0
DA:183,0
DA:184,0
DA:187,0
DA:188,0
DA:189,0
DA:190,0
DA:192,0
DA:193,0
DA:195,0
DA:196,0
DA:197,0
DA:200,0
DA:201,0
DA:202,0
DA:203,0
DA:204,0
DA:205,0
DA:206,0
DA:207,0
DA:208,0
DA:209,0
DA:210,0
DA:211,0
DA:212,0
DA:213,0
DA:214,0
DA:215,0
DA:216,0
DA:217,0
DA:219,0
DA:256,0
DA:257,0
DA:258,0
DA:259,0
DA:260,0
DA:261,0
DA:309,0
DA:310,0
DA:311,0
DA:312,0
DA:313,0
DA:348,0
DA:349,0
DA:350,0
DA:351,0
DA:353,0
DA:354,0
DA:355,0
DA:356,0
DA:358,0
DA:359,0
DA:360,0
DA:361,0
DA:362,0
DA:363,0
DA:365,0
DA:366,0
DA:369,0
DA:375,0
DA:376,0
DA:377,0
DA:378,0
DA:379,0
DA:380,0
DA:381,0
DA:382,0
DA:383,0
DA:384,0
DA:385,0
DA:387,0
DA:389,0
DA:392,0
DA:396,0
DA:397,0
DA:398,0
DA:399,0
DA:400,0
DA:403,0
DA:404,0
DA:405,0
DA:406,0
DA:407,0
DA:408,0
DA:409,0
DA:410,0
DA:412,0
DA:413,0
DA:414,0
DA:415,0
DA:416,0
DA:418,0
DA:419,0
BRF:0
BRH:0
LF:194
LH:16
end_of_record
SF:/workspace/agent-docs/mcp/src/bin/http_server.rs
FN:158,_RNvCsiLqmQIFToUG_11http_server15shutdown_signal
FN:503,_RNvCsiLqmQIFToUG_11http_server19run_migrations_only
FN:190,_RNvCsiLqmQIFToUG_11http_server24register_core_migrations
FN:137,_RNvCsiLqmQIFToUG_11http_server33run_server_with_graceful_shutdown
FN:15,_RNvCsiLqmQIFToUG_11http_server4main
FN:195,_RNvNvCsiLqmQIFToUG_11http_server24register_core_migrations18calculate_checksum
FN:159,_RNCNCNvCsiLqmQIFToUG_11http_server15shutdown_signal00B5_
FN:166,_RNCNCNvCsiLqmQIFToUG_11http_server15shutdown_signal0s_0B5_
FN:510,_RNCNCNvCsiLqmQIFToUG_11http_server19run_migrations_only00B5_
FN:41,_RNCNCNvCsiLqmQIFToUG_11http_server4main00B5_
FN:52,_RNCNCNvCsiLqmQIFToUG_11http_server4main0s0_0B5_
FN:98,_RNCNCNvCsiLqmQIFToUG_11http_server4main0s1_0B5_
FN:127,_RNCNCNvCsiLqmQIFToUG_11http_server4main0s2_0B5_
FN:51,_RNCNCNvCsiLqmQIFToUG_11http_server4main0s_0B5_
FN:158,_RNCNvCsiLqmQIFToUG_11http_server15shutdown_signal0B3_
FN:503,_RNCNvCsiLqmQIFToUG_11http_server19run_migrations_only0B3_
FN:137,_RNCNvCsiLqmQIFToUG_11http_server33run_server_with_graceful_shutdown0B3_
FN:15,_RNCNvCsiLqmQIFToUG_11http_server4main0B3_
FNDA:0,_RNvCsiLqmQIFToUG_11http_server15shutdown_signal
FNDA:0,_RNvCsiLqmQIFToUG_11http_server19run_migrations_only
FNDA:0,_RNvCsiLqmQIFToUG_11http_server24register_core_migrations
FNDA:0,_RNvCsiLqmQIFToUG_11http_server33run_server_with_graceful_shutdown
FNDA:0,_RNvCsiLqmQIFToUG_11http_server4main
FNDA:0,_RNvNvCsiLqmQIFToUG_11http_server24register_core_migrations18calculate_checksum
FNDA:0,_RNCNCNvCsiLqmQIFToUG_11http_server15shutdown_signal00B5_
FNDA:0,_RNCNCNvCsiLqmQIFToUG_11http_server15shutdown_signal0s_0B5_
FNDA:0,_RNCNCNvCsiLqmQIFToUG_11http_server19run_migrations_only00B5_
FNDA:0,_RNCNCNvCsiLqmQIFToUG_11http_server4main00B5_
FNDA:0,_RNCNCNvCsiLqmQIFToUG_11http_server4main0s0_0B5_
FNDA:0,_RNCNCNvCsiLqmQIFToUG_11http_server4main0s1_0B5_
FNDA:0,_RNCNCNvCsiLqmQIFToUG_11http_server4main0s2_0B5_
FNDA:0,_RNCNCNvCsiLqmQIFToUG_11http_server4main0s_0B5_
FNDA:0,_RNCNvCsiLqmQIFToUG_11http_server15shutdown_signal0B3_
FNDA:0,_RNCNvCsiLqmQIFToUG_11http_server19run_migrations_only0B3_
FNDA:0,_RNCNvCsiLqmQIFToUG_11http_server33run_server_with_graceful_shutdown0B3_
FNDA:0,_RNCNvCsiLqmQIFToUG_11http_server4main0B3_
FNF:18
FNH:0
DA:15,0
DA:17,0
DA:18,0
DA:19,0
DA:20,0
DA:22,0
DA:23,0
DA:25,0
DA:27,0
DA:29,0
DA:30,0
DA:31,0
DA:33,0
DA:36,0
DA:39,0
DA:40,0
DA:41,0
DA:43,0
DA:45,0
DA:48,0
DA:50,0
DA:51,0
DA:52,0
DA:53,0
DA:54,0
DA:57,0
DA:60,0
DA:63,0
DA:66,0
DA:67,0
DA:68,0
DA:69,0
DA:70,0
DA:72,0
DA:73,0
DA:75,0
DA:78,0
DA:79,0
DA:80,0
DA:81,0
DA:83,0
DA:86,0
DA:87,0
DA:88,0
DA:93,0
DA:94,0
DA:95,0
DA:96,0
DA:97,0
DA:98,0
DA:99,0
DA:101,0
DA:102,0
DA:104,0
DA:105,0
DA:106,0
DA:110,0
DA:111,0
DA:112,0
DA:116,0
DA:117,0
DA:123,0
DA:127,0
DA:128,0
DA:129,0
DA:131,0
DA:133,0
DA:134,0
DA:137,0
DA:141,0
DA:142,0
DA:143,0
DA:144,0
DA:149,0
DA:150,0
DA:151,0
DA:153,0
DA:154,0
DA:155,0
DA:158,0
DA:159,0
DA:160,0
DA:161,0
DA:162,0
DA:163,0
DA:166,0
DA:167,0
DA:168,0
DA:169,0
DA:170,0
DA:171,0
DA:176,0
DA:177,0
DA:178,0
DA:180,0
DA:181,0
DA:185,0
DA:186,0
DA:190,0
DA:195,0
DA:196,0
DA:197,0
DA:198,0
DA:199,0
DA:202,0
DA:203,0
DA:204,0
DA:205,0
DA:206,0
DA:207,0
DA:208,0
DA:209,0
DA:210,0
DA:211,0
DA:212,0
DA:213,0
DA:214,0
DA:215,0
DA:216,0
DA:219,0
DA:220,0
DA:221,0
DA:222,0
DA:223,0
DA:224,0
DA:225,0
DA:226,0
DA:227,0
DA:228,0
DA:229,0
DA:230,0
DA:231,0
DA:232,0
DA:233,0
DA:234,0
DA:235,0
DA:236,0
DA:237,0
DA:240,0
DA:241,0
DA:242,0
DA:243,0
DA:244,0
DA:245,0
DA:246,0
DA:247,0
DA:248,0
DA:249,0
DA:250,0
DA:251,0
DA:252,0
DA:253,0
DA:254,0
DA:255,0
DA:256,0
DA:257,0
DA:258,0
DA:259,0
DA:260,0
DA:261,0
DA:262,0
DA:263,0
DA:264,0
DA:267,0
DA:268,0
DA:269,0
DA:270,0
DA:271,0
DA:272,0
DA:273,0
DA:274,0
DA:275,0
DA:276,0
DA:277,0
DA:278,0
DA:279,0
DA:280,0
DA:281,0
DA:282,0
DA:283,0
DA:284,0
DA:285,0
DA:286,0
DA:287,0
DA:288,0
DA:291,0
DA:292,0
DA:293,0
DA:294,0
DA:295,0
DA:296,0
DA:297,0
DA:298,0
DA:299,0
DA:300,0
DA:301,0
DA:302,0
DA:303,0
DA:304,0
DA:305,0
DA:306,0
DA:307,0
DA:308,0
DA:309,0
DA:310,0
DA:311,0
DA:312,0
DA:313,0
DA:314,0
DA:315,0
DA:316,0
DA:317,0
DA:318,0
DA:319,0
DA:322,0
DA:323,0
DA:324,0
DA:325,0
DA:326,0
DA:327,0
DA:328,0
DA:329,0
DA:330,0
DA:331,0
DA:332,0
DA:333,0
DA:334,0
DA:335,0
DA:336,0
DA:337,0
DA:338,0
DA:339,0
DA:340,0
DA:341,0
DA:342,0
DA:345,0
DA:346,0
DA:347,0
DA:348,0
DA:349,0
DA:350,0
DA:351,0
DA:352,0
DA:353,0
DA:354,0
DA:355,0
DA:356,0
DA:357,0
DA:358,0
DA:359,0
DA:360,0
DA:361,0
DA:362,0
DA:363,0
DA:364,0
DA:365,0
DA:366,0
DA:367,0
DA:368,0
DA:369,0
DA:370,0
DA:371,0
DA:372,0
DA:373,0
DA:374,0
DA:375,0
DA:376,0
DA:377,0
DA:378,0
DA:379,0
DA:380,0
DA:381,0
DA:382,0
DA:383,0
DA:384,0
DA:385,0
DA:386,0
DA:387,0
DA:388,0
DA:389,0
DA:390,0
DA:391,0
DA:392,0
DA:393,0
DA:394,0
DA:395,0
DA:396,0
DA:397,0
DA:398,0
DA:399,0
DA:400,0
DA:401,0
DA:402,0
DA:403,0
DA:404,0
DA:405,0
DA:406,0
DA:407,0
DA:408,0
DA:409,0
DA:410,0
DA:411,0
DA:412,0
DA:413,0
DA:414,0
DA:415,0
DA:416,0
DA:417,0
DA:418,0
DA:419,0
DA:420,0
DA:421,0
DA:422,0
DA:423,0
DA:424,0
DA:425,0
DA:426,0
DA:429,0
DA:430,0
DA:431,0
DA:432,0
DA:433,0
DA:434,0
DA:435,0
DA:436,0
DA:437,0
DA:438,0
DA:439,0
DA:440,0
DA:441,0
DA:442,0
DA:443,0
DA:444,0
DA:445,0
DA:446,0
DA:447,0
DA:448,0
DA:449,0
DA:450,0
DA:451,0
DA:452,0
DA:453,0
DA:454,0
DA:455,0
DA:456,0
DA:457,0
DA:458,0
DA:459,0
DA:460,0
DA:461,0
DA:462,0
DA:463,0
DA:464,0
DA:465,0
DA:466,0
DA:467,0
DA:468,0
DA:469,0
DA:470,0
DA:471,0
DA:472,0
DA:473,0
DA:474,0
DA:475,0
DA:476,0
DA:477,0
DA:478,0
DA:479,0
DA:480,0
DA:481,0
DA:482,0
DA:483,0
DA:484,0
DA:485,0
DA:486,0
DA:487,0
DA:488,0
DA:489,0
DA:490,0
DA:491,0
DA:492,0
DA:493,0
DA:494,0
DA:495,0
DA:496,0
DA:497,0
DA:498,0
DA:499,0
DA:500,0
DA:503,0
DA:505,0
DA:508,0
DA:509,0
DA:510,0
DA:512,0
DA:514,0
DA:517,0
DA:520,0
DA:523,0
DA:526,0
DA:529,0
DA:530,0
DA:531,0
DA:532,0
DA:533,0
DA:534,0
DA:536,0
DA:537,0
DA:539,0
DA:542,0
DA:543,0
DA:544,0
DA:545,0
DA:546,0
DA:548,0
DA:549,0
DA:550,0
DA:551,0
DA:557,0
DA:558,0
DA:559,0
DA:564,0
DA:565,0
DA:566,0
DA:567,0
DA:569,0
DA:570,0
DA:571,0
DA:573,0
DA:574,0
DA:576,0
DA:580,0
DA:581,0
DA:582,0
DA:586,0
DA:587,0
DA:588,0
BRF:0
BRH:0
LF:450
LH:0
end_of_record
SF:/workspace/agent-docs/mcp/src/config.rs
FN:43,_RNvMNtCsi7GHPcvMyXT_3mcp6configNtB2_12ConfigLoader12load_default
FN:66,_RNvMNtCsi7GHPcvMyXT_3mcp6configNtB2_12ConfigLoader15validate_config
FN:128,_RNvMNtCsi7GHPcvMyXT_3mcp6configNtB2_12ConfigLoader20filter_enabled_tools
FN:18,_RINvMNtCsi7GHPcvMyXT_3mcp6configNtB3_12ConfigLoader14load_from_fileNtNtCs8Ty2CzGA6U3_5alloc6string6StringEB5_
FN:22,_RNCINvMNtCsi7GHPcvMyXT_3mcp6configNtB5_12ConfigLoader14load_from_fileNtNtCs8Ty2CzGA6U3_5alloc6string6StringE0B7_
FN:25,_RNCINvMNtCsi7GHPcvMyXT_3mcp6configNtB5_12ConfigLoader14load_from_fileNtNtCs8Ty2CzGA6U3_5alloc6string6StringEs_0B7_
FN:49,_RNCNvMNtCsi7GHPcvMyXT_3mcp6configNtB4_12ConfigLoader12load_default0B6_
FNDA:0,_RNvMNtCsi7GHPcvMyXT_3mcp6configNtB2_12ConfigLoader12load_default
FNDA:0,_RNvMNtCsi7GHPcvMyXT_3mcp6configNtB2_12ConfigLoader15validate_config
FNDA:0,_RNvMNtCsi7GHPcvMyXT_3mcp6configNtB2_12ConfigLoader20filter_enabled_tools
FNDA:0,_RINvMNtCsi7GHPcvMyXT_3mcp6configNtB3_12ConfigLoader14load_from_fileNtNtCs8Ty2CzGA6U3_5alloc6string6StringEB5_
FNDA:0,_RNCINvMNtCsi7GHPcvMyXT_3mcp6configNtB5_12ConfigLoader14load_from_fileNtNtCs8Ty2CzGA6U3_5alloc6string6StringE0B7_
FNDA:0,_RNCINvMNtCsi7GHPcvMyXT_3mcp6configNtB5_12ConfigLoader14load_from_fileNtNtCs8Ty2CzGA6U3_5alloc6string6StringEs_0B7_
FNDA:0,_RNCNvMNtCsi7GHPcvMyXT_3mcp6configNtB4_12ConfigLoader12load_default0B6_
FNF:7
FNH:0
DA:18,0
DA:19,0
DA:21,0
DA:22,0
DA:24,0
DA:25,0
DA:27,0
DA:29,0
DA:30,0
DA:31,0
DA:32,0
DA:35,0
DA:36,0
DA:43,0
DA:46,0
DA:48,0
DA:49,0
DA:51,0
DA:53,0
DA:54,0
DA:55,0
DA:58,0
DA:59,0
DA:66,0
DA:67,0
DA:68,0
DA:69,0
DA:71,0
DA:72,0
DA:73,0
DA:74,0
DA:75,0
DA:76,0
DA:77,0
DA:78,0
DA:79,0
DA:80,0
DA:81,0
DA:82,0
DA:83,0
DA:85,0
DA:87,0
DA:88,0
DA:89,0
DA:90,0
DA:91,0
DA:92,0
DA:93,0
DA:94,0
DA:95,0
DA:96,0
DA:97,0
DA:98,0
DA:101,0
DA:102,0
DA:103,0
DA:106,0
DA:107,0
DA:108,0
DA:111,0
DA:112,0
DA:113,0
DA:114,0
DA:115,0
DA:116,0
DA:117,0
DA:118,0
DA:120,0
DA:123,0
DA:124,0
DA:128,0
DA:129,0
DA:130,0
DA:131,0
DA:132,0
DA:133,0
DA:134,0
DA:135,0
BRF:0
BRH:0
LF:81
LH:0
end_of_record
SF:/workspace/agent-docs/mcp/src/crate_tools.rs
FN:843,_RNCNvMs4_NtCsi7GHPcvMyXT_3mcp11crate_toolsNtB7_19CheckRustStatusTool15get_job_metrics0B9_
FN:831,_RNCNvMs4_NtCsi7GHPcvMyXT_3mcp11crate_toolsNtB7_19CheckRustStatusTool19get_storage_metrics0B9_
FN:843,_RNvMs4_NtCsi7GHPcvMyXT_3mcp11crate_toolsNtB5_19CheckRustStatusTool15get_job_metrics
FN:831,_RNvMs4_NtCsi7GHPcvMyXT_3mcp11crate_toolsNtB5_19CheckRustStatusTool19get_storage_metrics
FN:339,_RNCNCNCNvXs6_NtCsi7GHPcvMyXT_3mcp11crate_toolsNtBb_19RemoveRustCrateToolNtNtBd_5tools4Tool7execute0s_00Bd_
FN:169,_RNCNCNvMs_NtCsi7GHPcvMyXT_3mcp11crate_toolsNtB8_16AddRustCrateTool23process_crate_ingestion00Ba_
FN:78,_RNCNCNvXs5_NtCsi7GHPcvMyXT_3mcp11crate_toolsNtB9_16AddRustCrateToolNtNtBb_5tools4Tool7execute00Bb_
FN:108,_RNCNCNvXs5_NtCsi7GHPcvMyXT_3mcp11crate_toolsNtB9_16AddRustCrateToolNtNtBb_5tools4Tool7execute0s0_0Bb_
FN:79,_RNCNCNvXs5_NtCsi7GHPcvMyXT_3mcp11crate_toolsNtB9_16AddRustCrateToolNtNtBb_5tools4Tool7execute0s_0Bb_
FN:338,_RNCNCNvXs6_NtCsi7GHPcvMyXT_3mcp11crate_toolsNtB9_19RemoveRustCrateToolNtNtBb_5tools4Tool7execute00Bb_
FN:340,_RNCNCNvXs6_NtCsi7GHPcvMyXT_3mcp11crate_toolsNtB9_19RemoveRustCrateToolNtNtBb_5tools4Tool7execute0s0_0Bb_
FN:339,_RNCNCNvXs6_NtCsi7GHPcvMyXT_3mcp11crate_toolsNtB9_19RemoveRustCrateToolNtNtBb_5tools4Tool7execute0s_0Bb_
FN:505,_RNCNCNvXs7_NtCsi7GHPcvMyXT_3mcp11crate_toolsNtB9_18ListRustCratesToolNtNtBb_5tools4Tool7execute00Bb_
FN:509,_RNCNCNvXs7_NtCsi7GHPcvMyXT_3mcp11crate_toolsNtB9_18ListRustCratesToolNtNtBb_5tools4Tool7execute0s_0Bb_
FN:668,_RNCNCNvXs8_NtCsi7GHPcvMyXT_3mcp11crate_toolsNtB9_19CheckRustStatusToolNtNtBb_5tools4Tool7execute00Bb_
FN:765,_RNCNCNvXs8_NtCsi7GHPcvMyXT_3mcp11crate_toolsNtB9_19CheckRustStatusToolNtNtBb_5tools4Tool7execute0s_0Bb_
FN:405,_RNCNvMs1_NtCsi7GHPcvMyXT_3mcp11crate_toolsNtB7_19RemoveRustCrateTool21perform_soft_deletion0B9_
FN:370,_RNCNvMs1_NtCsi7GHPcvMyXT_3mcp11crate_toolsNtB7_19RemoveRustCrateTool24perform_cascade_deletion0B9_
FN:158,_RNCNvMs_NtCsi7GHPcvMyXT_3mcp11crate_toolsNtB6_16AddRustCrateTool23process_crate_ingestion0B8_
FN:39,_RNvMNtCsi7GHPcvMyXT_3mcp11crate_toolsNtB2_16AddRustCrateTool3new
FN:303,_RNvMs0_NtCsi7GHPcvMyXT_3mcp11crate_toolsNtB5_19RemoveRustCrateTool3new
FN:405,_RNvMs1_NtCsi7GHPcvMyXT_3mcp11crate_toolsNtB5_19RemoveRustCrateTool21perform_soft_deletion
FN:370,_RNvMs1_NtCsi7GHPcvMyXT_3mcp11crate_toolsNtB5_19RemoveRustCrateTool24perform_cascade_deletion
FN:457,_RNvMs2_NtCsi7GHPcvMyXT_3mcp11crate_toolsNtB5_18ListRustCratesTool3new
FN:624,_RNvMs3_NtCsi7GHPcvMyXT_3mcp11crate_toolsNtB5_19CheckRustStatusTool3new
FN:150,_RNvMs_NtCsi7GHPcvMyXT_3mcp11crate_toolsNtB4_16AddRustCrateTool23process_crate_ingestion
FN:54,_RNvXs5_NtCsi7GHPcvMyXT_3mcp11crate_toolsNtB5_16AddRustCrateToolNtNtB7_5tools4Tool10definition
FN:75,_RNvXs5_NtCsi7GHPcvMyXT_3mcp11crate_toolsNtB5_16AddRustCrateToolNtNtB7_5tools4Tool7execute
FN:310,_RNvXs6_NtCsi7GHPcvMyXT_3mcp11crate_toolsNtB5_19RemoveRustCrateToolNtNtB7_5tools4Tool10definition
FN:335,_RNvXs6_NtCsi7GHPcvMyXT_3mcp11crate_toolsNtB5_19RemoveRustCrateToolNtNtB7_5tools4Tool7execute
FN:464,_RNvXs7_NtCsi7GHPcvMyXT_3mcp11crate_toolsNtB5_18ListRustCratesToolNtNtB7_5tools4Tool10definition
FN:501,_RNvXs7_NtCsi7GHPcvMyXT_3mcp11crate_toolsNtB5_18ListRustCratesToolNtNtB7_5tools4Tool7execute
FN:635,_RNvXs8_NtCsi7GHPcvMyXT_3mcp11crate_toolsNtB5_19CheckRustStatusToolNtNtB7_5tools4Tool10definition
FN:656,_RNvXs8_NtCsi7GHPcvMyXT_3mcp11crate_toolsNtB5_19CheckRustStatusToolNtNtB7_5tools4Tool7execute
FNDA:0,_RNCNvMs4_NtCsi7GHPcvMyXT_3mcp11crate_toolsNtB7_19CheckRustStatusTool15get_job_metrics0B9_
FNDA:0,_RNCNvMs4_NtCsi7GHPcvMyXT_3mcp11crate_toolsNtB7_19CheckRustStatusTool19get_storage_metrics0B9_
FNDA:0,_RNvMs4_NtCsi7GHPcvMyXT_3mcp11crate_toolsNtB5_19CheckRustStatusTool15get_job_metrics
FNDA:0,_RNvMs4_NtCsi7GHPcvMyXT_3mcp11crate_toolsNtB5_19CheckRustStatusTool19get_storage_metrics
FNDA:0,_RNCNCNCNvXs6_NtCsi7GHPcvMyXT_3mcp11crate_toolsNtBb_19RemoveRustCrateToolNtNtBd_5tools4Tool7execute0s_00Bd_
FNDA:0,_RNCNCNvMs_NtCsi7GHPcvMyXT_3mcp11crate_toolsNtB8_16AddRustCrateTool23process_crate_ingestion00Ba_
FNDA:4,_RNCNCNvXs5_NtCsi7GHPcvMyXT_3mcp11crate_toolsNtB9_16AddRustCrateToolNtNtBb_5tools4Tool7execute00Bb_
FNDA:1,_RNCNCNvXs5_NtCsi7GHPcvMyXT_3mcp11crate_toolsNtB9_16AddRustCrateToolNtNtBb_5tools4Tool7execute0s0_0Bb_
FNDA:2,_RNCNCNvXs5_NtCsi7GHPcvMyXT_3mcp11crate_toolsNtB9_16AddRustCrateToolNtNtBb_5tools4Tool7execute0s_0Bb_
FNDA:4,_RNCNCNvXs6_NtCsi7GHPcvMyXT_3mcp11crate_toolsNtB9_19RemoveRustCrateToolNtNtBb_5tools4Tool7execute00Bb_
FNDA:2,_RNCNCNvXs6_NtCsi7GHPcvMyXT_3mcp11crate_toolsNtB9_19RemoveRustCrateToolNtNtBb_5tools4Tool7execute0s0_0Bb_
FNDA:2,_RNCNCNvXs6_NtCsi7GHPcvMyXT_3mcp11crate_toolsNtB9_19RemoveRustCrateToolNtNtBb_5tools4Tool7execute0s_0Bb_
FNDA:2,_RNCNCNvXs7_NtCsi7GHPcvMyXT_3mcp11crate_toolsNtB9_18ListRustCratesToolNtNtBb_5tools4Tool7execute00Bb_
FNDA:3,_RNCNCNvXs7_NtCsi7GHPcvMyXT_3mcp11crate_toolsNtB9_18ListRustCratesToolNtNtBb_5tools4Tool7execute0s_0Bb_
FNDA:1,_RNCNCNvXs8_NtCsi7GHPcvMyXT_3mcp11crate_toolsNtB9_19CheckRustStatusToolNtNtBb_5tools4Tool7execute00Bb_
FNDA:20,_RNCNCNvXs8_NtCsi7GHPcvMyXT_3mcp11crate_toolsNtB9_19CheckRustStatusToolNtNtBb_5tools4Tool7execute0s_0Bb_
FNDA:0,_RNCNvMs1_NtCsi7GHPcvMyXT_3mcp11crate_toolsNtB7_19RemoveRustCrateTool21perform_soft_deletion0B9_
FNDA:0,_RNCNvMs1_NtCsi7GHPcvMyXT_3mcp11crate_toolsNtB7_19RemoveRustCrateTool24perform_cascade_deletion0B9_
FNDA:1,_RNCNvMs_NtCsi7GHPcvMyXT_3mcp11crate_toolsNtB6_16AddRustCrateTool23process_crate_ingestion0B8_
FNDA:4,_RNvMNtCsi7GHPcvMyXT_3mcp11crate_toolsNtB2_16AddRustCrateTool3new
FNDA:5,_RNvMs0_NtCsi7GHPcvMyXT_3mcp11crate_toolsNtB5_19RemoveRustCrateTool3new
FNDA:0,_RNvMs1_NtCsi7GHPcvMyXT_3mcp11crate_toolsNtB5_19RemoveRustCrateTool21perform_soft_deletion
FNDA:0,_RNvMs1_NtCsi7GHPcvMyXT_3mcp11crate_toolsNtB5_19RemoveRustCrateTool24perform_cascade_deletion
FNDA:5,_RNvMs2_NtCsi7GHPcvMyXT_3mcp11crate_toolsNtB5_18ListRustCratesTool3new
FNDA:5,_RNvMs3_NtCsi7GHPcvMyXT_3mcp11crate_toolsNtB5_19CheckRustStatusTool3new
FNDA:1,_RNvMs_NtCsi7GHPcvMyXT_3mcp11crate_toolsNtB4_16AddRustCrateTool23process_crate_ingestion
FNDA:0,_RNvXs5_NtCsi7GHPcvMyXT_3mcp11crate_toolsNtB5_16AddRustCrateToolNtNtB7_5tools4Tool10definition
FNDA:6,_RNvXs5_NtCsi7GHPcvMyXT_3mcp11crate_toolsNtB5_16AddRustCrateToolNtNtB7_5tools4Tool7execute
FNDA:0,_RNvXs6_NtCsi7GHPcvMyXT_3mcp11crate_toolsNtB5_19RemoveRustCrateToolNtNtB7_5tools4Tool10definition
FNDA:6,_RNvXs6_NtCsi7GHPcvMyXT_3mcp11crate_toolsNtB5_19RemoveRustCrateToolNtNtB7_5tools4Tool7execute
FNDA:0,_RNvXs7_NtCsi7GHPcvMyXT_3mcp11crate_toolsNtB5_18ListRustCratesToolNtNtB7_5tools4Tool10definition
FNDA:6,_RNvXs7_NtCsi7GHPcvMyXT_3mcp11crate_toolsNtB5_18ListRustCratesToolNtNtB7_5tools4Tool7execute
FNDA:0,_RNvXs8_NtCsi7GHPcvMyXT_3mcp11crate_toolsNtB5_19CheckRustStatusToolNtNtB7_5tools4Tool10definition
FNDA:5,_RNvXs8_NtCsi7GHPcvMyXT_3mcp11crate_toolsNtB5_19CheckRustStatusToolNtNtB7_5tools4Tool7execute
FNF:34
FNH:20
DA:39,4
DA:40,4
DA:41,4
DA:42,4
DA:43,4
DA:44,4
DA:45,4
DA:46,4
DA:47,4
DA:48,4
DA:49,4
DA:54,0
DA:55,0
DA:56,0
DA:57,0
DA:58,0
DA:59,0
DA:60,0
DA:61,0
DA:62,0
DA:63,0
DA:65,0
DA:66,0
DA:67,0
DA:70,0
DA:73,0
DA:75,6
DA:78,4
DA:79,2
DA:108,1
DA:109,1
DA:110,1
DA:111,1
DA:112,1
DA:113,1
DA:114,1
DA:115,1
DA:116,1
DA:117,1
DA:119,1
DA:121,0
DA:123,0
DA:124,0
DA:125,0
DA:127,0
DA:128,0
DA:129,0
DA:130,0
DA:144,6
DA:150,1
DA:151,1
DA:152,1
DA:153,1
DA:154,1
DA:155,1
DA:156,1
DA:157,1
DA:158,1
DA:160,1
DA:161,1
DA:162,1
DA:165,0
DA:166,0
DA:167,0
DA:168,0
DA:169,0
DA:172,0
DA:173,0
DA:174,0
DA:177,0
DA:178,0
DA:179,0
DA:184,0
DA:185,0
DA:186,0
DA:188,0
DA:189,0
DA:190,0
DA:193,0
DA:194,0
DA:196,0
DA:198,0
DA:199,0
DA:200,0
DA:201,0
DA:202,0
DA:203,0
DA:204,0
DA:205,0
DA:209,0
DA:211,0
DA:214,0
DA:215,0
DA:216,0
DA:217,0
DA:218,0
DA:219,0
DA:220,0
DA:221,0
DA:222,0
DA:223,0
DA:224,0
DA:225,0
DA:226,0
DA:227,0
DA:230,0
DA:231,0
DA:232,0
DA:233,0
DA:236,0
DA:237,0
DA:238,0
DA:239,0
DA:240,0
DA:242,0
DA:243,0
DA:244,0
DA:250,0
DA:252,0
DA:254,0
DA:255,0
DA:259,0
DA:262,0
DA:263,0
DA:265,0
DA:266,0
DA:267,0
DA:268,0
DA:270,0
DA:271,0
DA:272,0
DA:281,0
DA:282,0
DA:283,0
DA:285,0
DA:286,0
DA:292,0
DA:293,0
DA:303,5
DA:304,5
DA:305,5
DA:310,0
DA:311,0
DA:312,0
DA:313,0
DA:314,0
DA:315,0
DA:316,0
DA:317,0
DA:318,0
DA:319,0
DA:321,0
DA:322,0
DA:323,0
DA:325,0
DA:326,0
DA:327,0
DA:330,0
DA:333,0
DA:335,6
DA:338,4
DA:339,2
DA:340,2
DA:365,6
DA:370,0
DA:371,0
DA:374,0
DA:375,0
DA:376,0
DA:377,0
DA:378,0
DA:379,0
DA:382,0
DA:383,0
DA:384,0
DA:385,0
DA:386,0
DA:387,0
DA:390,0
DA:392,0
DA:393,0
DA:395,0
DA:398,0
DA:399,0
DA:400,0
DA:401,0
DA:402,0
DA:405,0
DA:406,0
DA:409,0
DA:410,0
DA:411,0
DA:412,0
DA:413,0
DA:414,0
DA:416,0
DA:417,0
DA:418,0
DA:419,0
DA:422,0
DA:423,0
DA:424,0
DA:425,0
DA:426,0
DA:427,0
DA:428,0
DA:429,0
DA:430,0
DA:431,0
DA:432,0
DA:433,0
DA:435,0
DA:437,0
DA:438,0
DA:440,0
DA:443,0
DA:444,0
DA:445,0
DA:446,0
DA:447,0
DA:457,5
DA:458,5
DA:459,5
DA:464,0
DA:465,0
DA:466,0
DA:467,0
DA:468,0
DA:469,0
DA:470,0
DA:471,0
DA:472,0
DA:473,0
DA:474,0
DA:476,0
DA:477,0
DA:478,0
DA:479,0
DA:480,0
DA:482,0
DA:483,0
DA:484,0
DA:485,0
DA:487,0
DA:488,0
DA:489,0
DA:491,0
DA:492,0
DA:493,0
DA:496,0
DA:499,0
DA:501,6
DA:505,2
DA:509,3
DA:613,6
DA:624,5
DA:625,5
DA:626,5
DA:627,5
DA:628,5
DA:629,5
DA:630,5
DA:635,0
DA:636,0
DA:637,0
DA:638,0
DA:639,0
DA:640,0
DA:641,0
DA:642,0
DA:643,0
DA:644,0
DA:646,0
DA:647,0
DA:648,0
DA:651,0
DA:654,0
DA:656,5
DA:668,1
DA:765,20
DA:825,5
DA:831,0
DA:833,0
DA:834,0
DA:835,0
DA:836,0
DA:837,0
DA:838,0
DA:839,0
DA:843,0
DA:845,0
DA:846,0
DA:847,0
DA:848,0
DA:849,0
DA:850,0
DA:851,0
BRF:0
BRH:0
LF:304
LH:65
end_of_record
SF:/workspace/agent-docs/mcp/src/handlers.rs
FN:163,_RNCNCNvMNtCsi7GHPcvMyXT_3mcp8handlersNtB6_10McpHandler14handle_request00B8_
FN:164,_RNCNCNvMNtCsi7GHPcvMyXT_3mcp8handlersNtB6_10McpHandler14handle_request0s_0B8_
FN:187,_RNCNCNvMNtCsi7GHPcvMyXT_3mcp8handlersNtB6_10McpHandler16handle_tool_call00B8_
FN:192,_RNCNCNvMNtCsi7GHPcvMyXT_3mcp8handlersNtB6_10McpHandler16handle_tool_call0s0_0B8_
FN:202,_RNCNCNvMNtCsi7GHPcvMyXT_3mcp8handlersNtB6_10McpHandler16handle_tool_call0s1_0B8_
FN:191,_RNCNCNvMNtCsi7GHPcvMyXT_3mcp8handlersNtB6_10McpHandler16handle_tool_call0s_0B8_
FN:157,_RNCNvMNtCsi7GHPcvMyXT_3mcp8handlersNtB4_10McpHandler14handle_request0B6_
FN:184,_RNCNvMNtCsi7GHPcvMyXT_3mcp8handlersNtB4_10McpHandler16handle_tool_call0B6_
FN:176,_RNCNvMNtCsi7GHPcvMyXT_3mcp8handlersNtB4_10McpHandler17handle_tools_list0B6_
FN:157,_RNvMNtCsi7GHPcvMyXT_3mcp8handlersNtB2_10McpHandler14handle_request
FN:184,_RNvMNtCsi7GHPcvMyXT_3mcp8handlersNtB2_10McpHandler16handle_tool_call
FN:232,_RNvMNtCsi7GHPcvMyXT_3mcp8handlersNtB2_10McpHandler17handle_initialize
FN:175,_RNvMNtCsi7GHPcvMyXT_3mcp8handlersNtB2_10McpHandler17handle_tools_list
FN:64,_RNvMNtCsi7GHPcvMyXT_3mcp8handlersNtB2_10McpHandler22register_dynamic_tools
FN:120,_RNvMNtCsi7GHPcvMyXT_3mcp8handlersNtB2_10McpHandler31register_crate_management_tools
FN:28,_RNvMNtCsi7GHPcvMyXT_3mcp8handlersNtB2_10McpHandler3new
FNDA:0,_RNCNCNvMNtCsi7GHPcvMyXT_3mcp8handlersNtB6_10McpHandler14handle_request00B8_
FNDA:0,_RNCNCNvMNtCsi7GHPcvMyXT_3mcp8handlersNtB6_10McpHandler14handle_request0s_0B8_
FNDA:0,_RNCNCNvMNtCsi7GHPcvMyXT_3mcp8handlersNtB6_10McpHandler16handle_tool_call00B8_
FNDA:0,_RNCNCNvMNtCsi7GHPcvMyXT_3mcp8handlersNtB6_10McpHandler16handle_tool_call0s0_0B8_
FNDA:0,_RNCNCNvMNtCsi7GHPcvMyXT_3mcp8handlersNtB6_10McpHandler16handle_tool_call0s1_0B8_
FNDA:0,_RNCNCNvMNtCsi7GHPcvMyXT_3mcp8handlersNtB6_10McpHandler16handle_tool_call0s_0B8_
FNDA:0,_RNCNvMNtCsi7GHPcvMyXT_3mcp8handlersNtB4_10McpHandler14handle_request0B6_
FNDA:0,_RNCNvMNtCsi7GHPcvMyXT_3mcp8handlersNtB4_10McpHandler16handle_tool_call0B6_
FNDA:0,_RNCNvMNtCsi7GHPcvMyXT_3mcp8handlersNtB4_10McpHandler17handle_tools_list0B6_
FNDA:0,_RNvMNtCsi7GHPcvMyXT_3mcp8handlersNtB2_10McpHandler14handle_request
FNDA:0,_RNvMNtCsi7GHPcvMyXT_3mcp8handlersNtB2_10McpHandler16handle_tool_call
FNDA:0,_RNvMNtCsi7GHPcvMyXT_3mcp8handlersNtB2_10McpHandler17handle_initialize
FNDA:0,_RNvMNtCsi7GHPcvMyXT_3mcp8handlersNtB2_10McpHandler17handle_tools_list
FNDA:0,_RNvMNtCsi7GHPcvMyXT_3mcp8handlersNtB2_10McpHandler22register_dynamic_tools
FNDA:0,_RNvMNtCsi7GHPcvMyXT_3mcp8handlersNtB2_10McpHandler31register_crate_management_tools
FNDA:0,_RNvMNtCsi7GHPcvMyXT_3mcp8handlersNtB2_10McpHandler3new
FNF:16
FNH:0
DA:28,0
DA:29,0
DA:32,0
DA:33,0
DA:34,0
DA:37,0
DA:40,0
DA:41,0
DA:42,0
DA:43,0
DA:47,0
DA:48,0
DA:49,0
DA:55,0
DA:56,0
DA:57,0
DA:64,0
DA:65,0
DA:66,0
DA:67,0
DA:69,0
DA:70,0
DA:71,0
DA:73,0
DA:74,0
DA:77,0
DA:78,0
DA:80,0
DA:82,0
DA:83,0
DA:84,0
DA:85,0
DA:88,0
DA:89,0
DA:90,0
DA:91,0
DA:94,0
DA:95,0
DA:96,0
DA:97,0
DA:100,0
DA:101,0
DA:103,0
DA:104,0
DA:105,0
DA:112,0
DA:113,0
DA:120,0
DA:121,0
DA:122,0
DA:123,0
DA:125,0
DA:126,0
DA:129,0
DA:130,0
DA:131,0
DA:134,0
DA:135,0
DA:136,0
DA:139,0
DA:140,0
DA:141,0
DA:144,0
DA:145,0
DA:146,0
DA:148,0
DA:149,0
DA:150,0
DA:157,0
DA:158,0
DA:161,0
DA:162,0
DA:163,0
DA:164,0
DA:166,0
DA:167,0
DA:168,0
DA:169,0
DA:170,0
DA:172,0
DA:175,0
DA:176,0
DA:178,0
DA:179,0
DA:181,0
DA:184,0
DA:185,0
DA:186,0
DA:187,0
DA:189,0
DA:190,0
DA:191,0
DA:192,0
DA:194,0
DA:195,0
DA:197,0
DA:199,0
DA:200,0
DA:201,0
DA:202,0
DA:204,0
DA:205,0
DA:206,0
DA:207,0
DA:208,0
DA:209,0
DA:210,0
DA:211,0
DA:212,0
DA:213,0
DA:214,0
DA:215,0
DA:216,0
DA:217,0
DA:218,0
DA:219,0
DA:220,0
DA:221,0
DA:222,0
DA:223,0
DA:226,0
DA:232,0
DA:233,0
DA:235,0
DA:236,0
DA:237,0
DA:240,0
DA:241,0
DA:242,0
DA:243,0
DA:245,0
DA:246,0
DA:247,0
DA:250,0
BRF:0
BRH:0
LF:143
LH:0
end_of_record
SF:/workspace/agent-docs/mcp/src/headers.rs
FN:101,_RNCNCNvXININtCsi7GHPcvMyXT_3mcp7headerss6_0pENtB9_24McpProtocolVersionHeaderINtNtCsl3nYzWiYlSC_9axum_core7extract16FromRequestPartspE18from_request_parts00Bb_
FN:94,_RNvXININtCsi7GHPcvMyXT_3mcp7headerss6_0pENtB5_24McpProtocolVersionHeaderINtNtCsl3nYzWiYlSC_9axum_core7extract16FromRequestPartspE18from_request_partsB7_
FN:223,_RNvXININtCsi7GHPcvMyXT_3mcp7headerssf_0pENtB5_20ContentTypeValidatorINtNtCsl3nYzWiYlSC_9axum_core7extract16FromRequestPartspE18from_request_partsB7_
FN:274,_RNvXININtCsi7GHPcvMyXT_3mcp7headerssi_0pENtB5_21AcceptHeaderValidatorINtNtCsl3nYzWiYlSC_9axum_core7extract16FromRequestPartspE18from_request_partsB7_
FN:396,_RNvNtCsi7GHPcvMyXT_3mcp7headers18extract_session_id
FN:358,_RNvNtCsi7GHPcvMyXT_3mcp7headers20set_standard_headers
FN:384,_RNvNtCsi7GHPcvMyXT_3mcp7headers24set_sse_response_headers
FN:374,_RNvNtCsi7GHPcvMyXT_3mcp7headers25set_json_response_headers
FN:330,_RNvNtCsi7GHPcvMyXT_3mcp7headers25validate_protocol_version
FN:43,_RNvXNtCsi7GHPcvMyXT_3mcp7headersNtB2_20ProtocolVersionErrorNtNtNtCsl3nYzWiYlSC_9axum_core8response13into_response12IntoResponse13into_response
FN:178,_RNvXs0_NtCsi7GHPcvMyXT_3mcp7headersNtB5_17AcceptHeaderErrorNtNtNtCsl3nYzWiYlSC_9axum_core8response13into_response12IntoResponse13into_response
FN:147,_RNvXs_NtCsi7GHPcvMyXT_3mcp7headersNtB4_16ContentTypeErrorNtNtNtCsl3nYzWiYlSC_9axum_core8response13into_response12IntoResponse13into_response
FN:401,_RNCNvNtCsi7GHPcvMyXT_3mcp7headers18extract_session_id0B5_
FN:403,_RNCNvNtCsi7GHPcvMyXT_3mcp7headers18extract_session_ids_0B5_
FN:335,_RNCNvNtCsi7GHPcvMyXT_3mcp7headers25validate_protocol_version0B5_
FN:339,_RNCNvNtCsi7GHPcvMyXT_3mcp7headers25validate_protocol_versions_0B5_
FNDA:0,_RNCNCNvXININtCsi7GHPcvMyXT_3mcp7headerss6_0pENtB9_24McpProtocolVersionHeaderINtNtCsl3nYzWiYlSC_9axum_core7extract16FromRequestPartspE18from_request_parts00Bb_
FNDA:0,_RNvXININtCsi7GHPcvMyXT_3mcp7headerss6_0pENtB5_24McpProtocolVersionHeaderINtNtCsl3nYzWiYlSC_9axum_core7extract16FromRequestPartspE18from_request_partsB7_
FNDA:0,_RNvXININtCsi7GHPcvMyXT_3mcp7headerssf_0pENtB5_20ContentTypeValidatorINtNtCsl3nYzWiYlSC_9axum_core7extract16FromRequestPartspE18from_request_partsB7_
FNDA:0,_RNvXININtCsi7GHPcvMyXT_3mcp7headerssi_0pENtB5_21AcceptHeaderValidatorINtNtCsl3nYzWiYlSC_9axum_core7extract16FromRequestPartspE18from_request_partsB7_
FNDA:0,_RNvNtCsi7GHPcvMyXT_3mcp7headers18extract_session_id
FNDA:0,_RNvNtCsi7GHPcvMyXT_3mcp7headers20set_standard_headers
FNDA:0,_RNvNtCsi7GHPcvMyXT_3mcp7headers24set_sse_response_headers
FNDA:0,_RNvNtCsi7GHPcvMyXT_3mcp7headers25set_json_response_headers
FNDA:0,_RNvNtCsi7GHPcvMyXT_3mcp7headers25validate_protocol_version
FNDA:0,_RNvXNtCsi7GHPcvMyXT_3mcp7headersNtB2_20ProtocolVersionErrorNtNtNtCsl3nYzWiYlSC_9axum_core8response13into_response12IntoResponse13into_response
FNDA:0,_RNvXs0_NtCsi7GHPcvMyXT_3mcp7headersNtB5_17AcceptHeaderErrorNtNtNtCsl3nYzWiYlSC_9axum_core8response13into_response12IntoResponse13into_response
FNDA:0,_RNvXs_NtCsi7GHPcvMyXT_3mcp7headersNtB4_16ContentTypeErrorNtNtNtCsl3nYzWiYlSC_9axum_core8response13into_response12IntoResponse13into_response
FNDA:0,_RNCNvNtCsi7GHPcvMyXT_3mcp7headers18extract_session_id0B5_
FNDA:0,_RNCNvNtCsi7GHPcvMyXT_3mcp7headers18extract_session_ids_0B5_
FNDA:0,_RNCNvNtCsi7GHPcvMyXT_3mcp7headers25validate_protocol_version0B5_
FNDA:0,_RNCNvNtCsi7GHPcvMyXT_3mcp7headers25validate_protocol_versions_0B5_
FNF:16
FNH:0
DA:43,0
DA:44,0
DA:45,0
DA:46,0
DA:47,0
DA:48,0
DA:49,0
DA:50,0
DA:51,0
DA:52,0
DA:54,0
DA:58,0
DA:59,0
DA:60,0
DA:61,0
DA:62,0
DA:66,0
DA:67,0
DA:68,0
DA:70,0
DA:71,0
DA:94,0
DA:101,0
DA:102,0
DA:103,0
DA:123,0
DA:147,0
DA:148,0
DA:150,0
DA:153,0
DA:155,0
DA:156,0
DA:157,0
DA:158,0
DA:161,0
DA:162,0
DA:163,0
DA:164,0
DA:165,0
DA:169,0
DA:170,0
DA:171,0
DA:173,0
DA:174,0
DA:178,0
DA:179,0
DA:181,0
DA:184,0
DA:188,0
DA:189,0
DA:190,0
DA:191,0
DA:192,0
DA:196,0
DA:197,0
DA:198,0
DA:200,0
DA:201,0
DA:223,0
DA:252,0
DA:274,0
DA:318,0
DA:330,0
DA:331,0
DA:333,0
DA:334,0
DA:335,0
DA:336,0
DA:337,0
DA:338,0
DA:339,0
DA:340,0
DA:341,0
DA:343,0
DA:344,0
DA:346,0
DA:349,0
DA:350,0
DA:352,0
DA:358,0
DA:359,0
DA:361,0
DA:363,0
DA:364,0
DA:365,0
DA:366,0
DA:367,0
DA:368,0
DA:374,0
DA:375,0
DA:376,0
DA:377,0
DA:384,0
DA:385,0
DA:386,0
DA:387,0
DA:388,0
DA:389,0
DA:396,0
DA:397,0
DA:398,0
DA:399,0
DA:400,0
DA:401,0
DA:402,0
DA:403,0
DA:404,0
DA:406,0
DA:408,0
BRF:0
BRH:0
LF:111
LH:0
end_of_record
SF:/workspace/agent-docs/mcp/src/health.rs
FN:97,_RNCNvNtCsi7GHPcvMyXT_3mcp6health12health_check0B5_
FN:201,_RNCNvNtCsi7GHPcvMyXT_3mcp6health14liveness_check0B5_
FN:116,_RNCNvNtCsi7GHPcvMyXT_3mcp6health15readiness_check0B5_
FN:286,_RNCNvNtCsi7GHPcvMyXT_3mcp6health17build_pool_health0B5_
FN:79,_RNCNvNtCsi7GHPcvMyXT_3mcp6health18get_uptime_seconds0B5_
FN:248,_RNCNvNtCsi7GHPcvMyXT_3mcp6health21build_database_health0B5_
FN:216,_RNCNvNtCsi7GHPcvMyXT_3mcp6health21detailed_health_check0B5_
FN:95,_RNvNtCsi7GHPcvMyXT_3mcp6health12health_check
FN:201,_RNvNtCsi7GHPcvMyXT_3mcp6health14liveness_check
FN:337,_RNvNtCsi7GHPcvMyXT_3mcp6health15elevate_overall
FN:114,_RNvNtCsi7GHPcvMyXT_3mcp6health15readiness_check
FN:286,_RNvNtCsi7GHPcvMyXT_3mcp6health17build_pool_health
FN:76,_RNvNtCsi7GHPcvMyXT_3mcp6health18get_uptime_seconds
FN:83,_RNvNtCsi7GHPcvMyXT_3mcp6health20create_health_router
FN:248,_RNvNtCsi7GHPcvMyXT_3mcp6health21build_database_health
FN:214,_RNvNtCsi7GHPcvMyXT_3mcp6health21detailed_health_check
FN:71,_RNvNtCsi7GHPcvMyXT_3mcp6health23init_service_start_time
FN:325,_RNvNtCsi7GHPcvMyXT_3mcp6health28build_session_manager_health
FN:348,_RNvNtCsi7GHPcvMyXT_3mcp6health28determine_pool_health_status
FNDA:0,_RNCNvNtCsi7GHPcvMyXT_3mcp6health12health_check0B5_
FNDA:0,_RNCNvNtCsi7GHPcvMyXT_3mcp6health14liveness_check0B5_
FNDA:0,_RNCNvNtCsi7GHPcvMyXT_3mcp6health15readiness_check0B5_
FNDA:0,_RNCNvNtCsi7GHPcvMyXT_3mcp6health17build_pool_health0B5_
FNDA:0,_RNCNvNtCsi7GHPcvMyXT_3mcp6health18get_uptime_seconds0B5_
FNDA:0,_RNCNvNtCsi7GHPcvMyXT_3mcp6health21build_database_health0B5_
FNDA:0,_RNCNvNtCsi7GHPcvMyXT_3mcp6health21detailed_health_check0B5_
FNDA:0,_RNvNtCsi7GHPcvMyXT_3mcp6health12health_check
FNDA:0,_RNvNtCsi7GHPcvMyXT_3mcp6health14liveness_check
FNDA:0,_RNvNtCsi7GHPcvMyXT_3mcp6health15elevate_overall
FNDA:0,_RNvNtCsi7GHPcvMyXT_3mcp6health15readiness_check
FNDA:0,_RNvNtCsi7GHPcvMyXT_3mcp6health17build_pool_health
FNDA:0,_RNvNtCsi7GHPcvMyXT_3mcp6health18get_uptime_seconds
FNDA:0,_RNvNtCsi7GHPcvMyXT_3mcp6health20create_health_router
FNDA:0,_RNvNtCsi7GHPcvMyXT_3mcp6health21build_database_health
FNDA:0,_RNvNtCsi7GHPcvMyXT_3mcp6health21detailed_health_check
FNDA:0,_RNvNtCsi7GHPcvMyXT_3mcp6health23init_service_start_time
FNDA:0,_RNvNtCsi7GHPcvMyXT_3mcp6health28build_session_manager_health
FNDA:0,_RNvNtCsi7GHPcvMyXT_3mcp6health28determine_pool_health_status
FNF:19
FNH:0
DA:71,0
DA:72,0
DA:73,0
DA:76,0
DA:77,0
DA:78,0
DA:79,0
DA:80,0
DA:83,0
DA:84,0
DA:85,0
DA:86,0
DA:87,0
DA:88,0
DA:89,0
DA:95,0
DA:96,0
DA:97,0
DA:99,0
DA:100,0
DA:101,0
DA:102,0
DA:103,0
DA:104,0
DA:105,0
DA:106,0
DA:108,0
DA:114,0
DA:115,0
DA:116,0
DA:117,0
DA:118,0
DA:121,0
DA:122,0
DA:123,0
DA:125,0
DA:127,0
DA:128,0
DA:129,0
DA:130,0
DA:131,0
DA:132,0
DA:133,0
DA:134,0
DA:135,0
DA:137,0
DA:138,0
DA:139,0
DA:140,0
DA:141,0
DA:142,0
DA:144,0
DA:147,0
DA:148,0
DA:149,0
DA:150,0
DA:151,0
DA:152,0
DA:153,0
DA:155,0
DA:156,0
DA:157,0
DA:158,0
DA:160,0
DA:161,0
DA:162,0
DA:163,0
DA:167,0
DA:168,0
DA:169,0
DA:170,0
DA:171,0
DA:172,0
DA:173,0
DA:176,0
DA:178,0
DA:179,0
DA:180,0
DA:181,0
DA:183,0
DA:185,0
DA:188,0
DA:189,0
DA:191,0
DA:194,0
DA:195,0
DA:201,0
DA:202,0
DA:203,0
DA:204,0
DA:205,0
DA:206,0
DA:207,0
DA:214,0
DA:215,0
DA:216,0
DA:217,0
DA:218,0
DA:220,0
DA:221,0
DA:222,0
DA:224,0
DA:225,0
DA:226,0
DA:228,0
DA:229,0
DA:231,0
DA:232,0
DA:233,0
DA:234,0
DA:235,0
DA:236,0
DA:237,0
DA:238,0
DA:240,0
DA:241,0
DA:242,0
DA:245,0
DA:246,0
DA:248,0
DA:249,0
DA:250,0
DA:251,0
DA:252,0
DA:253,0
DA:255,0
DA:257,0
DA:258,0
DA:259,0
DA:260,0
DA:261,0
DA:262,0
DA:263,0
DA:264,0
DA:265,0
DA:266,0
DA:267,0
DA:268,0
DA:269,0
DA:270,0
DA:271,0
DA:273,0
DA:274,0
DA:275,0
DA:276,0
DA:277,0
DA:278,0
DA:279,0
DA:280,0
DA:281,0
DA:282,0
DA:284,0
DA:286,0
DA:287,0
DA:288,0
DA:289,0
DA:290,0
DA:291,0
DA:292,0
DA:293,0
DA:294,0
DA:295,0
DA:296,0
DA:297,0
DA:298,0
DA:299,0
DA:300,0
DA:301,0
DA:302,0
DA:303,0
DA:304,0
DA:305,0
DA:306,0
DA:307,0
DA:308,0
DA:309,0
DA:310,0
DA:312,0
DA:313,0
DA:314,0
DA:315,0
DA:316,0
DA:317,0
DA:318,0
DA:319,0
DA:320,0
DA:321,0
DA:323,0
DA:325,0
DA:326,0
DA:327,0
DA:328,0
DA:329,0
DA:330,0
DA:331,0
DA:332,0
DA:333,0
DA:334,0
DA:335,0
DA:337,0
DA:338,0
DA:339,0
DA:340,0
DA:341,0
DA:343,0
DA:345,0
DA:348,0
DA:350,0
DA:351,0
DA:352,0
DA:354,0
DA:355,0
DA:356,0
DA:358,0
DA:359,0
DA:360,0
DA:363,0
DA:364,0
DA:365,0
DA:367,0
DA:368,0
DA:369,0
DA:371,0
DA:372,0
DA:373,0
DA:375,0
DA:376,0
BRF:0
BRH:0
LF:234
LH:0
end_of_record
SF:/workspace/agent-docs/mcp/src/job_queue.rs
FN:75,_RNCNvMNtCsi7GHPcvMyXT_3mcp9job_queueNtB4_17CrateJobProcessor16cleanup_old_jobs0B6_
FN:50,_RNvMNtCsi7GHPcvMyXT_3mcp9job_queueNtB2_17CrateJobProcessor14get_job_status
FN:75,_RNvMNtCsi7GHPcvMyXT_3mcp9job_queueNtB2_17CrateJobProcessor16cleanup_old_jobs
FN:59,_RNvMNtCsi7GHPcvMyXT_3mcp9job_queueNtB2_17CrateJobProcessor17update_job_status
FN:38,_RNvMNtCsi7GHPcvMyXT_3mcp9job_queueNtB2_17CrateJobProcessor21enqueue_add_crate_job
FN:24,_RNvMNtCsi7GHPcvMyXT_3mcp9job_queueNtB2_17CrateJobProcessor3new
FN:29,_RNvMNtCsi7GHPcvMyXT_3mcp9job_queueNtB2_17CrateJobProcessor7db_pool
FN:50,_RNCNvMNtCsi7GHPcvMyXT_3mcp9job_queueNtB4_17CrateJobProcessor14get_job_status0B6_
FN:65,_RNCNvMNtCsi7GHPcvMyXT_3mcp9job_queueNtB4_17CrateJobProcessor17update_job_status0B6_
FN:38,_RNCNvMNtCsi7GHPcvMyXT_3mcp9job_queueNtB4_17CrateJobProcessor21enqueue_add_crate_job0B6_
FNDA:0,_RNCNvMNtCsi7GHPcvMyXT_3mcp9job_queueNtB4_17CrateJobProcessor16cleanup_old_jobs0B6_
FNDA:1,_RNvMNtCsi7GHPcvMyXT_3mcp9job_queueNtB2_17CrateJobProcessor14get_job_status
FNDA:0,_RNvMNtCsi7GHPcvMyXT_3mcp9job_queueNtB2_17CrateJobProcessor16cleanup_old_jobs
FNDA:1,_RNvMNtCsi7GHPcvMyXT_3mcp9job_queueNtB2_17CrateJobProcessor17update_job_status
FNDA:2,_RNvMNtCsi7GHPcvMyXT_3mcp9job_queueNtB2_17CrateJobProcessor21enqueue_add_crate_job
FNDA:9,_RNvMNtCsi7GHPcvMyXT_3mcp9job_queueNtB2_17CrateJobProcessor3new
FNDA:0,_RNvMNtCsi7GHPcvMyXT_3mcp9job_queueNtB2_17CrateJobProcessor7db_pool
FNDA:1,_RNCNvMNtCsi7GHPcvMyXT_3mcp9job_queueNtB4_17CrateJobProcessor14get_job_status0B6_
FNDA:1,_RNCNvMNtCsi7GHPcvMyXT_3mcp9job_queueNtB4_17CrateJobProcessor17update_job_status0B6_
FNDA:2,_RNCNvMNtCsi7GHPcvMyXT_3mcp9job_queueNtB4_17CrateJobProcessor21enqueue_add_crate_job0B6_
FNF:10
FNH:7
DA:24,9
DA:25,9
DA:26,9
DA:29,0
DA:30,0
DA:31,0
DA:38,2
DA:39,2
DA:41,2
DA:42,2
DA:43,2
DA:50,1
DA:51,1
DA:52,1
DA:59,1
DA:60,1
DA:61,1
DA:62,1
DA:63,1
DA:64,1
DA:65,1
DA:66,1
DA:67,1
DA:68,0
DA:75,0
DA:76,0
DA:77,0
BRF:0
BRH:0
LF:31
LH:23
end_of_record
SF:/workspace/agent-docs/mcp/src/metrics.rs
FN:50,_RNvMNtCsi7GHPcvMyXT_3mcp7metricsNtB2_10McpMetrics18increment_requests
FN:55,_RNvMNtCsi7GHPcvMyXT_3mcp7metricsNtB2_10McpMetrics22increment_post_success
FN:82,_RNvMNtCsi7GHPcvMyXT_3mcp7metricsNtB2_10McpMetrics25increment_internal_errors
FN:87,_RNvMNtCsi7GHPcvMyXT_3mcp7metricsNtB2_10McpMetrics26increment_sessions_created
FN:92,_RNvMNtCsi7GHPcvMyXT_3mcp7metricsNtB2_10McpMetrics26increment_sessions_deleted
FN:71,_RNvMNtCsi7GHPcvMyXT_3mcp7metricsNtB2_10McpMetrics27increment_json_parse_errors
FN:60,_RNvMNtCsi7GHPcvMyXT_3mcp7metricsNtB2_10McpMetrics28increment_method_not_allowed
FN:66,_RNvMNtCsi7GHPcvMyXT_3mcp7metricsNtB2_10McpMetrics33increment_protocol_version_errors
FN:76,_RNvMNtCsi7GHPcvMyXT_3mcp7metricsNtB2_10McpMetrics36increment_security_validation_errors
FN:35,_RNvMNtCsi7GHPcvMyXT_3mcp7metricsNtB2_10McpMetrics3new
FN:98,_RNvMNtCsi7GHPcvMyXT_3mcp7metricsNtB2_10McpMetrics8snapshot
FN:138,_RNvNtCsi7GHPcvMyXT_3mcp7metrics7metrics
FN:114,_RNvXs_NtCsi7GHPcvMyXT_3mcp7metricsNtB4_10McpMetricsNtNtCs66KPHxksi63_4core7default7Default7default
FNDA:0,_RNvMNtCsi7GHPcvMyXT_3mcp7metricsNtB2_10McpMetrics18increment_requests
FNDA:0,_RNvMNtCsi7GHPcvMyXT_3mcp7metricsNtB2_10McpMetrics22increment_post_success
FNDA:0,_RNvMNtCsi7GHPcvMyXT_3mcp7metricsNtB2_10McpMetrics25increment_internal_errors
FNDA:0,_RNvMNtCsi7GHPcvMyXT_3mcp7metricsNtB2_10McpMetrics26increment_sessions_created
FNDA:0,_RNvMNtCsi7GHPcvMyXT_3mcp7metricsNtB2_10McpMetrics26increment_sessions_deleted
FNDA:0,_RNvMNtCsi7GHPcvMyXT_3mcp7metricsNtB2_10McpMetrics27increment_json_parse_errors
FNDA:0,_RNvMNtCsi7GHPcvMyXT_3mcp7metricsNtB2_10McpMetrics28increment_method_not_allowed
FNDA:0,_RNvMNtCsi7GHPcvMyXT_3mcp7metricsNtB2_10McpMetrics33increment_protocol_version_errors
FNDA:0,_RNvMNtCsi7GHPcvMyXT_3mcp7metricsNtB2_10McpMetrics36increment_security_validation_errors
FNDA:0,_RNvMNtCsi7GHPcvMyXT_3mcp7metricsNtB2_10McpMetrics3new
FNDA:0,_RNvMNtCsi7GHPcvMyXT_3mcp7metricsNtB2_10McpMetrics8snapshot
FNDA:0,_RNvNtCsi7GHPcvMyXT_3mcp7metrics7metrics
FNDA:0,_RNvXs_NtCsi7GHPcvMyXT_3mcp7metricsNtB4_10McpMetricsNtNtCs66KPHxksi63_4core7default7Default7default
FNF:13
FNH:0
DA:35,0
DA:36,0
DA:37,0
DA:38,0
DA:39,0
DA:40,0
DA:41,0
DA:42,0
DA:43,0
DA:44,0
DA:45,0
DA:46,0
DA:47,0
DA:50,0
DA:51,0
DA:52,0
DA:55,0
DA:56,0
DA:57,0
DA:60,0
DA:61,0
DA:62,0
DA:63,0
DA:66,0
DA:67,0
DA:68,0
DA:71,0
DA:72,0
DA:73,0
DA:76,0
DA:77,0
DA:78,0
DA:79,0
DA:82,0
DA:83,0
DA:84,0
DA:87,0
DA:88,0
DA:89,0
DA:92,0
DA:93,0
DA:94,0
DA:98,0
DA:99,0
DA:100,0
DA:101,0
DA:102,0
DA:103,0
DA:104,0
DA:105,0
DA:106,0
DA:107,0
DA:108,0
DA:109,0
DA:110,0
DA:114,0
DA:115,0
DA:116,0
DA:138,0
DA:139,0
DA:140,0
BRF:0
BRH:0
LF:61
LH:0
end_of_record
SF:/workspace/agent-docs/mcp/src/protocol_version.rs
FN:101,_RNCNvMs2_NtCsi7GHPcvMyXT_3mcp16protocol_versionNtB7_16ProtocolRegistry27is_version_string_supported0B9_
FN:32,_RNvMNtCsi7GHPcvMyXT_3mcp16protocol_versionNtB2_15ProtocolVersion12is_supported
FN:24,_RNvMNtCsi7GHPcvMyXT_3mcp16protocol_versionNtB2_15ProtocolVersion6as_str
FN:38,_RNvMNtCsi7GHPcvMyXT_3mcp16protocol_versionNtB2_15ProtocolVersion7current
FN:106,_RNvMs2_NtCsi7GHPcvMyXT_3mcp16protocol_versionNtB5_16ProtocolRegistry15current_version
FN:93,_RNvMs2_NtCsi7GHPcvMyXT_3mcp16protocol_versionNtB5_16ProtocolRegistry20is_version_supported
FN:112,_RNvMs2_NtCsi7GHPcvMyXT_3mcp16protocol_versionNtB5_16ProtocolRegistry22current_version_string
FN:121,_RNvMs2_NtCsi7GHPcvMyXT_3mcp16protocol_versionNtB5_16ProtocolRegistry23validate_version_string
FN:99,_RNvMs2_NtCsi7GHPcvMyXT_3mcp16protocol_versionNtB5_16ProtocolRegistry27is_version_string_supported
FN:85,_RNvMs2_NtCsi7GHPcvMyXT_3mcp16protocol_versionNtB5_16ProtocolRegistry3new
FN:52,_RNvXs0_NtCsi7GHPcvMyXT_3mcp16protocol_versionNtB5_15ProtocolVersionNtNtNtCs66KPHxksi63_4core3str6traits7FromStr8from_str
FN:63,_RNvXs1_NtCsi7GHPcvMyXT_3mcp16protocol_versionNtB5_15ProtocolVersionNtNtCs66KPHxksi63_4core7default7Default7default
FN:137,_RNvXs3_NtCsi7GHPcvMyXT_3mcp16protocol_versionNtB5_16ProtocolRegistryNtNtCs66KPHxksi63_4core7default7Default7default
FN:44,_RNvXs_NtCsi7GHPcvMyXT_3mcp16protocol_versionNtB4_15ProtocolVersionNtNtCs66KPHxksi63_4core3fmt7Display3fmt
FNDA:0,_RNCNvMs2_NtCsi7GHPcvMyXT_3mcp16protocol_versionNtB7_16ProtocolRegistry27is_version_string_supported0B9_
FNDA:0,_RNvMNtCsi7GHPcvMyXT_3mcp16protocol_versionNtB2_15ProtocolVersion12is_supported
FNDA:0,_RNvMNtCsi7GHPcvMyXT_3mcp16protocol_versionNtB2_15ProtocolVersion6as_str
FNDA:0,_RNvMNtCsi7GHPcvMyXT_3mcp16protocol_versionNtB2_15ProtocolVersion7current
FNDA:0,_RNvMs2_NtCsi7GHPcvMyXT_3mcp16protocol_versionNtB5_16ProtocolRegistry15current_version
FNDA:0,_RNvMs2_NtCsi7GHPcvMyXT_3mcp16protocol_versionNtB5_16ProtocolRegistry20is_version_supported
FNDA:0,_RNvMs2_NtCsi7GHPcvMyXT_3mcp16protocol_versionNtB5_16ProtocolRegistry22current_version_string
FNDA:0,_RNvMs2_NtCsi7GHPcvMyXT_3mcp16protocol_versionNtB5_16ProtocolRegistry23validate_version_string
FNDA:0,_RNvMs2_NtCsi7GHPcvMyXT_3mcp16protocol_versionNtB5_16ProtocolRegistry27is_version_string_supported
FNDA:0,_RNvMs2_NtCsi7GHPcvMyXT_3mcp16protocol_versionNtB5_16ProtocolRegistry3new
FNDA:0,_RNvXs0_NtCsi7GHPcvMyXT_3mcp16protocol_versionNtB5_15ProtocolVersionNtNtNtCs66KPHxksi63_4core3str6traits7FromStr8from_str
FNDA:0,_RNvXs1_NtCsi7GHPcvMyXT_3mcp16protocol_versionNtB5_15ProtocolVersionNtNtCs66KPHxksi63_4core7default7Default7default
FNDA:0,_RNvXs3_NtCsi7GHPcvMyXT_3mcp16protocol_versionNtB5_16ProtocolRegistryNtNtCs66KPHxksi63_4core7default7Default7default
FNDA:0,_RNvXs_NtCsi7GHPcvMyXT_3mcp16protocol_versionNtB4_15ProtocolVersionNtNtCs66KPHxksi63_4core3fmt7Display3fmt
FNF:14
FNH:0
DA:24,0
DA:25,0
DA:26,0
DA:28,0
DA:32,0
DA:33,0
DA:34,0
DA:38,0
DA:39,0
DA:40,0
DA:44,0
DA:45,0
DA:46,0
DA:52,0
DA:53,0
DA:54,0
DA:55,0
DA:56,0
DA:57,0
DA:59,0
DA:63,0
DA:64,0
DA:65,0
DA:85,0
DA:86,0
DA:87,0
DA:88,0
DA:89,0
DA:93,0
DA:94,0
DA:95,0
DA:99,0
DA:100,0
DA:101,0
DA:102,0
DA:106,0
DA:107,0
DA:108,0
DA:112,0
DA:113,0
DA:114,0
DA:121,0
DA:122,0
DA:123,0
DA:124,0
DA:125,0
DA:126,0
DA:127,0
DA:129,0
DA:130,0
DA:131,0
DA:133,0
DA:137,0
DA:138,0
DA:139,0
BRF:0
BRH:0
LF:56
LH:0
end_of_record
SF:/workspace/agent-docs/mcp/src/security.rs
FN:246,_RNCNvNtCsi7GHPcvMyXT_3mcp8security28origin_validation_middleware0B5_
FN:87,_RNvMs_NtCsi7GHPcvMyXT_3mcp8securityNtB4_14SecurityConfig17is_origin_allowed
FN:59,_RNvMs_NtCsi7GHPcvMyXT_3mcp8securityNtB4_14SecurityConfig18add_allowed_origin
FN:93,_RNvMs_NtCsi7GHPcvMyXT_3mcp8securityNtB4_14SecurityConfig19is_localhost_origin
FN:73,_RNvMs_NtCsi7GHPcvMyXT_3mcp8securityNtB4_14SecurityConfig19with_localhost_only
FN:80,_RNvMs_NtCsi7GHPcvMyXT_3mcp8securityNtB4_14SecurityConfig26with_require_origin_header
FN:66,_RNvMs_NtCsi7GHPcvMyXT_3mcp8securityNtB4_14SecurityConfig29with_strict_origin_validation
FN:54,_RNvMs_NtCsi7GHPcvMyXT_3mcp8securityNtB4_14SecurityConfig3new
FN:156,_RNvNtCsi7GHPcvMyXT_3mcp8security12extract_host
FN:148,_RNvNtCsi7GHPcvMyXT_3mcp8security14extract_origin
FN:168,_RNvNtCsi7GHPcvMyXT_3mcp8security15validate_origin
FN:351,_RNvNtCsi7GHPcvMyXT_3mcp8security18log_security_event
FN:330,_RNvNtCsi7GHPcvMyXT_3mcp8security20add_security_headers
FN:198,_RNvNtCsi7GHPcvMyXT_3mcp8security22validate_dns_rebinding
FN:269,_RNvNtCsi7GHPcvMyXT_3mcp8security23validate_server_binding
FN:242,_RNvNtCsi7GHPcvMyXT_3mcp8security28origin_validation_middleware
FN:33,_RNvXNtCsi7GHPcvMyXT_3mcp8securityNtB2_14SecurityConfigNtNtCs66KPHxksi63_4core7default7Default7default
FN:121,_RNvXs0_NtCsi7GHPcvMyXT_3mcp8securityNtB5_13SecurityErrorNtNtNtCsl3nYzWiYlSC_9axum_core8response13into_response12IntoResponse13into_response
FN:211,_RNCNCNCNvNtCsi7GHPcvMyXT_3mcp8security22validate_dns_rebinding000B9_
FN:211,_RNCNCNCNvNtCsi7GHPcvMyXT_3mcp8security22validate_dns_rebinding00s_0B9_
FN:209,_RNCNCNvNtCsi7GHPcvMyXT_3mcp8security22validate_dns_rebinding00B7_
FN:159,_RNCNvNtCsi7GHPcvMyXT_3mcp8security12extract_host0B5_
FN:151,_RNCNvNtCsi7GHPcvMyXT_3mcp8security14extract_origin0B5_
FN:208,_RNCNvNtCsi7GHPcvMyXT_3mcp8security22validate_dns_rebinding0B5_
FN:283,_RNCNvNtCsi7GHPcvMyXT_3mcp8security23validate_server_binding0B5_
FN:316,_RNCNvNtCsi7GHPcvMyXT_3mcp8security23validate_server_bindings0_0B5_
FN:312,_RNCNvNtCsi7GHPcvMyXT_3mcp8security23validate_server_bindings_0B5_
FNDA:0,_RNCNvNtCsi7GHPcvMyXT_3mcp8security28origin_validation_middleware0B5_
FNDA:0,_RNvMs_NtCsi7GHPcvMyXT_3mcp8securityNtB4_14SecurityConfig17is_origin_allowed
FNDA:0,_RNvMs_NtCsi7GHPcvMyXT_3mcp8securityNtB4_14SecurityConfig18add_allowed_origin
FNDA:0,_RNvMs_NtCsi7GHPcvMyXT_3mcp8securityNtB4_14SecurityConfig19is_localhost_origin
FNDA:0,_RNvMs_NtCsi7GHPcvMyXT_3mcp8securityNtB4_14SecurityConfig19with_localhost_only
FNDA:0,_RNvMs_NtCsi7GHPcvMyXT_3mcp8securityNtB4_14SecurityConfig26with_require_origin_header
FNDA:0,_RNvMs_NtCsi7GHPcvMyXT_3mcp8securityNtB4_14SecurityConfig29with_strict_origin_validation
FNDA:0,_RNvMs_NtCsi7GHPcvMyXT_3mcp8securityNtB4_14SecurityConfig3new
FNDA:0,_RNvNtCsi7GHPcvMyXT_3mcp8security12extract_host
FNDA:0,_RNvNtCsi7GHPcvMyXT_3mcp8security14extract_origin
FNDA:0,_RNvNtCsi7GHPcvMyXT_3mcp8security15validate_origin
FNDA:0,_RNvNtCsi7GHPcvMyXT_3mcp8security18log_security_event
FNDA:0,_RNvNtCsi7GHPcvMyXT_3mcp8security20add_security_headers
FNDA:0,_RNvNtCsi7GHPcvMyXT_3mcp8security22validate_dns_rebinding
FNDA:0,_RNvNtCsi7GHPcvMyXT_3mcp8security23validate_server_binding
FNDA:0,_RNvNtCsi7GHPcvMyXT_3mcp8security28origin_validation_middleware
FNDA:0,_RNvXNtCsi7GHPcvMyXT_3mcp8securityNtB2_14SecurityConfigNtNtCs66KPHxksi63_4core7default7Default7default
FNDA:0,_RNvXs0_NtCsi7GHPcvMyXT_3mcp8securityNtB5_13SecurityErrorNtNtNtCsl3nYzWiYlSC_9axum_core8response13into_response12IntoResponse13into_response
FNDA:0,_RNCNCNCNvNtCsi7GHPcvMyXT_3mcp8security22validate_dns_rebinding000B9_
FNDA:0,_RNCNCNCNvNtCsi7GHPcvMyXT_3mcp8security22validate_dns_rebinding00s_0B9_
FNDA:0,_RNCNCNvNtCsi7GHPcvMyXT_3mcp8security22validate_dns_rebinding00B7_
FNDA:0,_RNCNvNtCsi7GHPcvMyXT_3mcp8security12extract_host0B5_
FNDA:0,_RNCNvNtCsi7GHPcvMyXT_3mcp8security14extract_origin0B5_
FNDA:0,_RNCNvNtCsi7GHPcvMyXT_3mcp8security22validate_dns_rebinding0B5_
FNDA:0,_RNCNvNtCsi7GHPcvMyXT_3mcp8security23validate_server_binding0B5_
FNDA:0,_RNCNvNtCsi7GHPcvMyXT_3mcp8security23validate_server_bindings0_0B5_
FNDA:0,_RNCNvNtCsi7GHPcvMyXT_3mcp8security23validate_server_bindings_0B5_
FNF:27
FNH:0
DA:33,0
DA:34,0
DA:35,0
DA:36,0
DA:37,0
DA:38,0
DA:39,0
DA:40,0
DA:42,0
DA:43,0
DA:44,0
DA:45,0
DA:46,0
DA:47,0
DA:48,0
DA:54,0
DA:55,0
DA:56,0
DA:59,0
DA:60,0
DA:61,0
DA:62,0
DA:66,0
DA:67,0
DA:68,0
DA:69,0
DA:73,0
DA:74,0
DA:75,0
DA:76,0
DA:80,0
DA:81,0
DA:82,0
DA:83,0
DA:87,0
DA:88,0
DA:89,0
DA:93,0
DA:94,0
DA:95,0
DA:121,0
DA:122,0
DA:123,0
DA:124,0
DA:126,0
DA:128,0
DA:129,0
DA:130,0
DA:133,0
DA:135,0
DA:136,0
DA:137,0
DA:138,0
DA:139,0
DA:143,0
DA:144,0
DA:148,0
DA:149,0
DA:150,0
DA:151,0
DA:152,0
DA:153,0
DA:156,0
DA:157,0
DA:158,0
DA:159,0
DA:160,0
DA:161,0
DA:168,0
DA:169,0
DA:172,0
DA:173,0
DA:174,0
DA:177,0
DA:179,0
DA:180,0
DA:181,0
DA:184,0
DA:185,0
DA:186,0
DA:187,0
DA:188,0
DA:190,0
DA:191,0
DA:198,0
DA:199,0
DA:200,0
DA:201,0
DA:202,0
DA:203,0
DA:206,0
DA:208,0
DA:209,0
DA:210,0
DA:211,0
DA:212,0
DA:213,0
DA:216,0
DA:218,0
DA:219,0
DA:221,0
DA:222,0
DA:223,0
DA:226,0
DA:227,0
DA:228,0
DA:229,0
DA:230,0
DA:231,0
DA:232,0
DA:234,0
DA:235,0
DA:242,0
DA:243,0
DA:244,0
DA:245,0
DA:246,0
DA:249,0
DA:252,0
DA:255,0
DA:257,0
DA:260,0
DA:261,0
DA:262,0
DA:269,0
DA:270,0
DA:271,0
DA:272,0
DA:273,0
DA:274,0
DA:275,0
DA:278,0
DA:280,0
DA:281,0
DA:282,0
DA:283,0
DA:284,0
DA:285,0
DA:287,0
DA:288,0
DA:290,0
DA:293,0
DA:296,0
DA:300,0
DA:301,0
DA:302,0
DA:303,0
DA:304,0
DA:307,0
DA:311,0
DA:312,0
DA:313,0
DA:314,0
DA:315,0
DA:316,0
DA:317,0
DA:318,0
DA:320,0
DA:321,0
DA:323,0
DA:327,0
DA:330,0
DA:332,0
DA:333,0
DA:334,0
DA:336,0
DA:337,0
DA:338,0
DA:340,0
DA:341,0
DA:342,0
DA:344,0
DA:345,0
DA:346,0
DA:348,0
DA:351,0
DA:352,0
DA:353,0
DA:354,0
DA:355,0
DA:357,0
BRF:0
BRH:0
LF:189
LH:0
end_of_record
SF:/workspace/agent-docs/mcp/src/server.rs
FN:39,_RNCNvMNtCsi7GHPcvMyXT_3mcp6serverNtB4_9McpServer3new0B6_
FN:81,_RNCNvMNtCsi7GHPcvMyXT_3mcp6serverNtB4_9McpServer5serve0B6_
FN:99,_RNvMNtCsi7GHPcvMyXT_3mcp6serverNtB2_9McpServer13create_router
FN:39,_RNvMNtCsi7GHPcvMyXT_3mcp6serverNtB2_9McpServer3new
FN:81,_RNvMNtCsi7GHPcvMyXT_3mcp6serverNtB2_9McpServer5serve
FN:39,_RNCNvMNtCsi7GHPcvMyXT_3mcp6serverNtB4_9McpServer3new0CsiLqmQIFToUG_11http_server
FNDA:0,_RNCNvMNtCsi7GHPcvMyXT_3mcp6serverNtB4_9McpServer3new0B6_
FNDA:0,_RNCNvMNtCsi7GHPcvMyXT_3mcp6serverNtB4_9McpServer5serve0B6_
FNDA:0,_RNvMNtCsi7GHPcvMyXT_3mcp6serverNtB2_9McpServer13create_router
FNDA:0,_RNvMNtCsi7GHPcvMyXT_3mcp6serverNtB2_9McpServer3new
FNDA:0,_RNvMNtCsi7GHPcvMyXT_3mcp6serverNtB2_9McpServer5serve
FNDA:0,_RNCNvMNtCsi7GHPcvMyXT_3mcp6serverNtB4_9McpServer3new0CsiLqmQIFToUG_11http_server
FNF:5
FNH:0
DA:39,0
DA:41,0
DA:42,0
DA:45,0
DA:46,0
DA:49,0
DA:50,0
DA:53,0
DA:56,0
DA:59,0
DA:61,0
DA:62,0
DA:63,0
DA:64,0
DA:65,0
DA:66,0
DA:67,0
DA:68,0
DA:71,0
DA:73,0
DA:74,0
DA:81,0
DA:83,0
DA:84,0
DA:85,0
DA:86,0
DA:88,0
DA:90,0
DA:91,0
DA:93,0
DA:95,0
DA:96,0
DA:99,0
DA:100,0
DA:102,0
DA:105,0
DA:107,0
DA:108,0
DA:109,0
DA:110,0
DA:111,0
DA:113,0
DA:114,0
BRF:0
BRH:0
LF:45
LH:0
end_of_record
SF:/workspace/agent-docs/mcp/src/session.rs
FN:81,_RNvMNtCsi7GHPcvMyXT_3mcp7sessionNtB2_7Session10is_expired
FN:63,_RNvMNtCsi7GHPcvMyXT_3mcp7sessionNtB2_7Session16new_with_version
FN:116,_RNvMNtCsi7GHPcvMyXT_3mcp7sessionNtB2_7Session25validate_protocol_version
FN:107,_RNvMNtCsi7GHPcvMyXT_3mcp7sessionNtB2_7Session29is_protocol_version_supported
FN:93,_RNvMNtCsi7GHPcvMyXT_3mcp7sessionNtB2_7Session3age
FN:47,_RNvMNtCsi7GHPcvMyXT_3mcp7sessionNtB2_7Session3new
FN:87,_RNvMNtCsi7GHPcvMyXT_3mcp7sessionNtB2_7Session7refresh
FN:100,_RNvMNtCsi7GHPcvMyXT_3mcp7sessionNtB2_7Session9idle_time
FN:277,_RNvMs0_NtCsi7GHPcvMyXT_3mcp7sessionNtB5_14SessionManager11get_session
FN:381,_RNvMs0_NtCsi7GHPcvMyXT_3mcp7sessionNtB5_14SessionManager13session_count
FN:422,_RNvMs0_NtCsi7GHPcvMyXT_3mcp7sessionNtB5_14SessionManager13session_stats
FN:201,_RNvMs0_NtCsi7GHPcvMyXT_3mcp7sessionNtB5_14SessionManager14create_session
FN:330,_RNvMs0_NtCsi7GHPcvMyXT_3mcp7sessionNtB5_14SessionManager14delete_session
FN:463,_RNvMs0_NtCsi7GHPcvMyXT_3mcp7sessionNtB5_14SessionManager18start_cleanup_task
FN:303,_RNvMs0_NtCsi7GHPcvMyXT_3mcp7sessionNtB5_14SessionManager20update_last_accessed
FN:351,_RNvMs0_NtCsi7GHPcvMyXT_3mcp7sessionNtB5_14SessionManager24cleanup_expired_sessions
FN:235,_RNvMs0_NtCsi7GHPcvMyXT_3mcp7sessionNtB5_14SessionManager27create_session_with_version
FN:394,_RNvMs0_NtCsi7GHPcvMyXT_3mcp7sessionNtB5_14SessionManager33validate_session_protocol_version
FN:188,_RNvMs0_NtCsi7GHPcvMyXT_3mcp7sessionNtB5_14SessionManager3new
FN:499,_RNvMs0_NtCsi7GHPcvMyXT_3mcp7sessionNtB5_14SessionManager6config
FN:140,_RNvXs_NtCsi7GHPcvMyXT_3mcp7sessionNtB4_13SessionConfigNtNtCs66KPHxksi63_4core7default7Default7default
FN:285,_RNCNvMs0_NtCsi7GHPcvMyXT_3mcp7sessionNtB7_14SessionManager11get_sessions0_0B9_
FN:281,_RNCNvMs0_NtCsi7GHPcvMyXT_3mcp7sessionNtB7_14SessionManager11get_sessions_0B9_
FN:467,_RNCNvMs0_NtCsi7GHPcvMyXT_3mcp7sessionNtB7_14SessionManager18start_cleanup_task0B9_
FN:311,_RNCNvMs0_NtCsi7GHPcvMyXT_3mcp7sessionNtB7_14SessionManager20update_last_accesseds0_0B9_
FN:307,_RNCNvMs0_NtCsi7GHPcvMyXT_3mcp7sessionNtB7_14SessionManager20update_last_accesseds_0B9_
FN:355,_RNCNvMs0_NtCsi7GHPcvMyXT_3mcp7sessionNtB7_14SessionManager24cleanup_expired_sessionss_0B9_
FN:406,_RNCNvMs0_NtCsi7GHPcvMyXT_3mcp7sessionNtB7_14SessionManager33validate_session_protocol_versions0_0B9_
FN:402,_RNCNvMs0_NtCsi7GHPcvMyXT_3mcp7sessionNtB7_14SessionManager33validate_session_protocol_versions_0B9_
FNDA:0,_RNvMNtCsi7GHPcvMyXT_3mcp7sessionNtB2_7Session10is_expired
FNDA:0,_RNvMNtCsi7GHPcvMyXT_3mcp7sessionNtB2_7Session16new_with_version
FNDA:0,_RNvMNtCsi7GHPcvMyXT_3mcp7sessionNtB2_7Session25validate_protocol_version
FNDA:0,_RNvMNtCsi7GHPcvMyXT_3mcp7sessionNtB2_7Session29is_protocol_version_supported
FNDA:0,_RNvMNtCsi7GHPcvMyXT_3mcp7sessionNtB2_7Session3age
FNDA:0,_RNvMNtCsi7GHPcvMyXT_3mcp7sessionNtB2_7Session3new
FNDA:0,_RNvMNtCsi7GHPcvMyXT_3mcp7sessionNtB2_7Session7refresh
FNDA:0,_RNvMNtCsi7GHPcvMyXT_3mcp7sessionNtB2_7Session9idle_time
FNDA:0,_RNvMs0_NtCsi7GHPcvMyXT_3mcp7sessionNtB5_14SessionManager11get_session
FNDA:0,_RNvMs0_NtCsi7GHPcvMyXT_3mcp7sessionNtB5_14SessionManager13session_count
FNDA:0,_RNvMs0_NtCsi7GHPcvMyXT_3mcp7sessionNtB5_14SessionManager13session_stats
FNDA:0,_RNvMs0_NtCsi7GHPcvMyXT_3mcp7sessionNtB5_14SessionManager14create_session
FNDA:0,_RNvMs0_NtCsi7GHPcvMyXT_3mcp7sessionNtB5_14SessionManager14delete_session
FNDA:0,_RNvMs0_NtCsi7GHPcvMyXT_3mcp7sessionNtB5_14SessionManager18start_cleanup_task
FNDA:0,_RNvMs0_NtCsi7GHPcvMyXT_3mcp7sessionNtB5_14SessionManager20update_last_accessed
FNDA:0,_RNvMs0_NtCsi7GHPcvMyXT_3mcp7sessionNtB5_14SessionManager24cleanup_expired_sessions
FNDA:0,_RNvMs0_NtCsi7GHPcvMyXT_3mcp7sessionNtB5_14SessionManager27create_session_with_version
FNDA:0,_RNvMs0_NtCsi7GHPcvMyXT_3mcp7sessionNtB5_14SessionManager33validate_session_protocol_version
FNDA:0,_RNvMs0_NtCsi7GHPcvMyXT_3mcp7sessionNtB5_14SessionManager3new
FNDA:0,_RNvMs0_NtCsi7GHPcvMyXT_3mcp7sessionNtB5_14SessionManager6config
FNDA:0,_RNvXs_NtCsi7GHPcvMyXT_3mcp7sessionNtB4_13SessionConfigNtNtCs66KPHxksi63_4core7default7Default7default
FNDA:0,_RNCNvMs0_NtCsi7GHPcvMyXT_3mcp7sessionNtB7_14SessionManager11get_sessions0_0B9_
FNDA:0,_RNCNvMs0_NtCsi7GHPcvMyXT_3mcp7sessionNtB7_14SessionManager11get_sessions_0B9_
FNDA:0,_RNCNvMs0_NtCsi7GHPcvMyXT_3mcp7sessionNtB7_14SessionManager18start_cleanup_task0B9_
FNDA:0,_RNCNvMs0_NtCsi7GHPcvMyXT_3mcp7sessionNtB7_14SessionManager20update_last_accesseds0_0B9_
FNDA:0,_RNCNvMs0_NtCsi7GHPcvMyXT_3mcp7sessionNtB7_14SessionManager20update_last_accesseds_0B9_
FNDA:0,_RNCNvMs0_NtCsi7GHPcvMyXT_3mcp7sessionNtB7_14SessionManager24cleanup_expired_sessionss_0B9_
FNDA:0,_RNCNvMs0_NtCsi7GHPcvMyXT_3mcp7sessionNtB7_14SessionManager33validate_session_protocol_versions0_0B9_
FNDA:0,_RNCNvMs0_NtCsi7GHPcvMyXT_3mcp7sessionNtB7_14SessionManager33validate_session_protocol_versions_0B9_
FNF:29
FNH:0
DA:47,0
DA:48,0
DA:49,0
DA:51,0
DA:52,0
DA:53,0
DA:54,0
DA:55,0
DA:56,0
DA:57,0
DA:58,0
DA:59,0
DA:63,0
DA:64,0
DA:65,0
DA:66,0
DA:67,0
DA:68,0
DA:69,0
DA:70,0
DA:71,0
DA:72,0
DA:73,0
DA:74,0
DA:75,0
DA:76,0
DA:77,0
DA:81,0
DA:82,0
DA:83,0
DA:84,0
DA:87,0
DA:88,0
DA:89,0
DA:93,0
DA:94,0
DA:95,0
DA:96,0
DA:100,0
DA:101,0
DA:102,0
DA:103,0
DA:107,0
DA:108,0
DA:109,0
DA:116,0
DA:117,0
DA:118,0
DA:120,0
DA:121,0
DA:122,0
DA:123,0
DA:125,0
DA:140,0
DA:141,0
DA:142,0
DA:143,0
DA:144,0
DA:145,0
DA:146,0
DA:188,0
DA:189,0
DA:190,0
DA:191,0
DA:192,0
DA:193,0
DA:201,0
DA:202,0
DA:205,0
DA:206,0
DA:207,0
DA:208,0
DA:211,0
DA:212,0
DA:214,0
DA:215,0
DA:217,0
DA:219,0
DA:220,0
DA:221,0
DA:223,0
DA:224,0
DA:226,0
DA:227,0
DA:235,0
DA:236,0
DA:237,0
DA:238,0
DA:239,0
DA:240,0
DA:243,0
DA:244,0
DA:245,0
DA:246,0
DA:249,0
DA:250,0
DA:252,0
DA:253,0
DA:254,0
DA:255,0
DA:257,0
DA:259,0
DA:261,0
DA:262,0
DA:265,0
DA:267,0
DA:268,0
DA:277,0
DA:278,0
DA:280,0
DA:281,0
DA:282,0
DA:283,0
DA:284,0
DA:285,0
DA:286,0
DA:287,0
DA:288,0
DA:290,0
DA:292,0
DA:294,0
DA:303,0
DA:304,0
DA:306,0
DA:307,0
DA:308,0
DA:309,0
DA:310,0
DA:311,0
DA:312,0
DA:313,0
DA:314,0
DA:316,0
DA:317,0
DA:318,0
DA:320,0
DA:322,0
DA:330,0
DA:331,0
DA:333,0
DA:334,0
DA:335,0
DA:337,0
DA:339,0
DA:341,0
DA:342,0
DA:344,0
DA:351,0
DA:352,0
DA:354,0
DA:355,0
DA:356,0
DA:357,0
DA:358,0
DA:360,0
DA:362,0
DA:364,0
DA:365,0
DA:366,0
DA:367,0
DA:369,0
DA:371,0
DA:373,0
DA:374,0
DA:381,0
DA:382,0
DA:383,0
DA:384,0
DA:394,0
DA:395,0
DA:396,0
DA:397,0
DA:398,0
DA:399,0
DA:401,0
DA:402,0
DA:403,0
DA:404,0
DA:405,0
DA:406,0
DA:407,0
DA:408,0
DA:409,0
DA:411,0
DA:413,0
DA:415,0
DA:422,0
DA:423,0
DA:425,0
DA:426,0
DA:427,0
DA:428,0
DA:430,0
DA:431,0
DA:432,0
DA:433,0
DA:435,0
DA:436,0
DA:437,0
DA:438,0
DA:439,0
DA:440,0
DA:441,0
DA:445,0
DA:446,0
DA:447,0
DA:448,0
DA:450,0
DA:451,0
DA:452,0
DA:453,0
DA:454,0
DA:455,0
DA:456,0
DA:457,0
DA:463,0
DA:464,0
DA:465,0
DA:467,0
DA:468,0
DA:469,0
DA:473,0
DA:475,0
DA:476,0
DA:477,0
DA:478,0
DA:479,0
DA:482,0
DA:484,0
DA:485,0
DA:491,0
DA:492,0
DA:495,0
DA:499,0
DA:500,0
DA:501,0
BRF:0
BRH:0
LF:238
LH:0
end_of_record
SF:/workspace/agent-docs/mcp/src/tools.rs
FN:49,_RNvMNtCsi7GHPcvMyXT_3mcp5toolsNtB2_13RustQueryTool15semantic_search
FN:39,_RNvMNtCsi7GHPcvMyXT_3mcp5toolsNtB2_13RustQueryTool3new
FN:462,_RNvMs0_NtCsi7GHPcvMyXT_3mcp5toolsNtB5_16DynamicQueryTool22parse_metadata_filters
FN:163,_RNvMs_NtCsi7GHPcvMyXT_3mcp5toolsNtB4_16DynamicQueryTool15semantic_search
FN:294,_RNvMs_NtCsi7GHPcvMyXT_3mcp5toolsNtB4_16DynamicQueryTool19extract_source_info
FN:354,_RNvMs_NtCsi7GHPcvMyXT_3mcp5toolsNtB4_16DynamicQueryTool25calculate_relevance_score
FN:232,_RNvMs_NtCsi7GHPcvMyXT_3mcp5toolsNtB4_16DynamicQueryTool25format_content_adaptively
FN:152,_RNvMs_NtCsi7GHPcvMyXT_3mcp5toolsNtB4_16DynamicQueryTool3new
FN:96,_RNvXs1_NtCsi7GHPcvMyXT_3mcp5toolsNtB5_13RustQueryToolNtB5_4Tool10definition
FN:119,_RNvXs1_NtCsi7GHPcvMyXT_3mcp5toolsNtB5_13RustQueryToolNtB5_4Tool7execute
FN:366,_RNvXs2_NtCsi7GHPcvMyXT_3mcp5toolsNtB5_16DynamicQueryToolNtB5_4Tool10definition
FN:438,_RNvXs2_NtCsi7GHPcvMyXT_3mcp5toolsNtB5_16DynamicQueryToolNtB5_4Tool7execute
FN:77,_RNCNCNvMNtCsi7GHPcvMyXT_3mcp5toolsNtB6_13RustQueryTool15semantic_search00B8_
FN:78,_RNCNCNvMNtCsi7GHPcvMyXT_3mcp5toolsNtB6_13RustQueryTool15semantic_search0s_0B8_
FN:122,_RNCNCNvXs1_NtCsi7GHPcvMyXT_3mcp5toolsNtB9_13RustQueryToolNtB9_4Tool7execute00Bb_
FN:123,_RNCNCNvXs1_NtCsi7GHPcvMyXT_3mcp5toolsNtB9_13RustQueryToolNtB9_4Tool7execute0s_0Bb_
FN:441,_RNCNCNvXs2_NtCsi7GHPcvMyXT_3mcp5toolsNtB9_16DynamicQueryToolNtB9_4Tool7execute00Bb_
FN:442,_RNCNCNvXs2_NtCsi7GHPcvMyXT_3mcp5toolsNtB9_16DynamicQueryToolNtB9_4Tool7execute0s_0Bb_
FN:49,_RNCNvMNtCsi7GHPcvMyXT_3mcp5toolsNtB4_13RustQueryTool15semantic_search0B6_
FN:467,_RNCNvMs0_NtCsi7GHPcvMyXT_3mcp5toolsNtB7_16DynamicQueryTool22parse_metadata_filters0B9_
FN:502,_RNCNvMs0_NtCsi7GHPcvMyXT_3mcp5toolsNtB7_16DynamicQueryTool22parse_metadata_filterss0_0B9_
FN:521,_RNCNvMs0_NtCsi7GHPcvMyXT_3mcp5toolsNtB7_16DynamicQueryTool22parse_metadata_filterss1_0B9_
FN:537,_RNCNvMs0_NtCsi7GHPcvMyXT_3mcp5toolsNtB7_16DynamicQueryTool22parse_metadata_filterss2_0B9_
FN:483,_RNCNvMs0_NtCsi7GHPcvMyXT_3mcp5toolsNtB7_16DynamicQueryTool22parse_metadata_filterss_0B9_
FN:168,_RNCNvMs_NtCsi7GHPcvMyXT_3mcp5toolsNtB6_16DynamicQueryTool15semantic_search0B8_
FN:300,_RNCNvMs_NtCsi7GHPcvMyXT_3mcp5toolsNtB6_16DynamicQueryTool19extract_source_info0B8_
FN:303,_RNCNvMs_NtCsi7GHPcvMyXT_3mcp5toolsNtB6_16DynamicQueryTool19extract_source_infos0_0B8_
FN:304,_RNCNvMs_NtCsi7GHPcvMyXT_3mcp5toolsNtB6_16DynamicQueryTool19extract_source_infos1_0B8_
FN:312,_RNCNvMs_NtCsi7GHPcvMyXT_3mcp5toolsNtB6_16DynamicQueryTool19extract_source_infos2_0B8_
FN:313,_RNCNvMs_NtCsi7GHPcvMyXT_3mcp5toolsNtB6_16DynamicQueryTool19extract_source_infos3_0B8_
FN:318,_RNCNvMs_NtCsi7GHPcvMyXT_3mcp5toolsNtB6_16DynamicQueryTool19extract_source_infos4_0B8_
FN:319,_RNCNvMs_NtCsi7GHPcvMyXT_3mcp5toolsNtB6_16DynamicQueryTool19extract_source_infos5_0B8_
FN:324,_RNCNvMs_NtCsi7GHPcvMyXT_3mcp5toolsNtB6_16DynamicQueryTool19extract_source_infos6_0B8_
FN:325,_RNCNvMs_NtCsi7GHPcvMyXT_3mcp5toolsNtB6_16DynamicQueryTool19extract_source_infos7_0B8_
FN:334,_RNCNvMs_NtCsi7GHPcvMyXT_3mcp5toolsNtB6_16DynamicQueryTool19extract_source_infos8_0B8_
FN:335,_RNCNvMs_NtCsi7GHPcvMyXT_3mcp5toolsNtB6_16DynamicQueryTool19extract_source_infos9_0B8_
FN:301,_RNCNvMs_NtCsi7GHPcvMyXT_3mcp5toolsNtB6_16DynamicQueryTool19extract_source_infos_0B8_
FN:340,_RNCNvMs_NtCsi7GHPcvMyXT_3mcp5toolsNtB6_16DynamicQueryTool19extract_source_infosa_0B8_
FN:341,_RNCNvMs_NtCsi7GHPcvMyXT_3mcp5toolsNtB6_16DynamicQueryTool19extract_source_infosb_0B8_
FN:237,_RNCNvMs_NtCsi7GHPcvMyXT_3mcp5toolsNtB6_16DynamicQueryTool25format_content_adaptively0B8_
FN:254,_RNCNvMs_NtCsi7GHPcvMyXT_3mcp5toolsNtB6_16DynamicQueryTool25format_content_adaptivelys0_0B8_
FN:255,_RNCNvMs_NtCsi7GHPcvMyXT_3mcp5toolsNtB6_16DynamicQueryTool25format_content_adaptivelys1_0B8_
FN:260,_RNCNvMs_NtCsi7GHPcvMyXT_3mcp5toolsNtB6_16DynamicQueryTool25format_content_adaptivelys2_0B8_
FN:238,_RNCNvMs_NtCsi7GHPcvMyXT_3mcp5toolsNtB6_16DynamicQueryTool25format_content_adaptivelys_0B8_
FNDA:0,_RNvMNtCsi7GHPcvMyXT_3mcp5toolsNtB2_13RustQueryTool15semantic_search
FNDA:0,_RNvMNtCsi7GHPcvMyXT_3mcp5toolsNtB2_13RustQueryTool3new
FNDA:0,_RNvMs0_NtCsi7GHPcvMyXT_3mcp5toolsNtB5_16DynamicQueryTool22parse_metadata_filters
FNDA:0,_RNvMs_NtCsi7GHPcvMyXT_3mcp5toolsNtB4_16DynamicQueryTool15semantic_search
FNDA:0,_RNvMs_NtCsi7GHPcvMyXT_3mcp5toolsNtB4_16DynamicQueryTool19extract_source_info
FNDA:0,_RNvMs_NtCsi7GHPcvMyXT_3mcp5toolsNtB4_16DynamicQueryTool25calculate_relevance_score
FNDA:0,_RNvMs_NtCsi7GHPcvMyXT_3mcp5toolsNtB4_16DynamicQueryTool25format_content_adaptively
FNDA:0,_RNvMs_NtCsi7GHPcvMyXT_3mcp5toolsNtB4_16DynamicQueryTool3new
FNDA:0,_RNvXs1_NtCsi7GHPcvMyXT_3mcp5toolsNtB5_13RustQueryToolNtB5_4Tool10definition
FNDA:0,_RNvXs1_NtCsi7GHPcvMyXT_3mcp5toolsNtB5_13RustQueryToolNtB5_4Tool7execute
FNDA:0,_RNvXs2_NtCsi7GHPcvMyXT_3mcp5toolsNtB5_16DynamicQueryToolNtB5_4Tool10definition
FNDA:0,_RNvXs2_NtCsi7GHPcvMyXT_3mcp5toolsNtB5_16DynamicQueryToolNtB5_4Tool7execute
FNDA:0,_RNCNCNvMNtCsi7GHPcvMyXT_3mcp5toolsNtB6_13RustQueryTool15semantic_search00B8_
FNDA:0,_RNCNCNvMNtCsi7GHPcvMyXT_3mcp5toolsNtB6_13RustQueryTool15semantic_search0s_0B8_
FNDA:0,_RNCNCNvXs1_NtCsi7GHPcvMyXT_3mcp5toolsNtB9_13RustQueryToolNtB9_4Tool7execute00Bb_
FNDA:0,_RNCNCNvXs1_NtCsi7GHPcvMyXT_3mcp5toolsNtB9_13RustQueryToolNtB9_4Tool7execute0s_0Bb_
FNDA:0,_RNCNCNvXs2_NtCsi7GHPcvMyXT_3mcp5toolsNtB9_16DynamicQueryToolNtB9_4Tool7execute00Bb_
FNDA:0,_RNCNCNvXs2_NtCsi7GHPcvMyXT_3mcp5toolsNtB9_16DynamicQueryToolNtB9_4Tool7execute0s_0Bb_
FNDA:0,_RNCNvMNtCsi7GHPcvMyXT_3mcp5toolsNtB4_13RustQueryTool15semantic_search0B6_
FNDA:0,_RNCNvMs0_NtCsi7GHPcvMyXT_3mcp5toolsNtB7_16DynamicQueryTool22parse_metadata_filters0B9_
FNDA:0,_RNCNvMs0_NtCsi7GHPcvMyXT_3mcp5toolsNtB7_16DynamicQueryTool22parse_metadata_filterss0_0B9_
FNDA:0,_RNCNvMs0_NtCsi7GHPcvMyXT_3mcp5toolsNtB7_16DynamicQueryTool22parse_metadata_filterss1_0B9_
FNDA:0,_RNCNvMs0_NtCsi7GHPcvMyXT_3mcp5toolsNtB7_16DynamicQueryTool22parse_metadata_filterss2_0B9_
FNDA:0,_RNCNvMs0_NtCsi7GHPcvMyXT_3mcp5toolsNtB7_16DynamicQueryTool22parse_metadata_filterss_0B9_
FNDA:0,_RNCNvMs_NtCsi7GHPcvMyXT_3mcp5toolsNtB6_16DynamicQueryTool15semantic_search0B8_
FNDA:0,_RNCNvMs_NtCsi7GHPcvMyXT_3mcp5toolsNtB6_16DynamicQueryTool19extract_source_info0B8_
FNDA:0,_RNCNvMs_NtCsi7GHPcvMyXT_3mcp5toolsNtB6_16DynamicQueryTool19extract_source_infos0_0B8_
FNDA:0,_RNCNvMs_NtCsi7GHPcvMyXT_3mcp5toolsNtB6_16DynamicQueryTool19extract_source_infos1_0B8_
FNDA:0,_RNCNvMs_NtCsi7GHPcvMyXT_3mcp5toolsNtB6_16DynamicQueryTool19extract_source_infos2_0B8_
FNDA:0,_RNCNvMs_NtCsi7GHPcvMyXT_3mcp5toolsNtB6_16DynamicQueryTool19extract_source_infos3_0B8_
FNDA:0,_RNCNvMs_NtCsi7GHPcvMyXT_3mcp5toolsNtB6_16DynamicQueryTool19extract_source_infos4_0B8_
FNDA:0,_RNCNvMs_NtCsi7GHPcvMyXT_3mcp5toolsNtB6_16DynamicQueryTool19extract_source_infos5_0B8_
FNDA:0,_RNCNvMs_NtCsi7GHPcvMyXT_3mcp5toolsNtB6_16DynamicQueryTool19extract_source_infos6_0B8_
FNDA:0,_RNCNvMs_NtCsi7GHPcvMyXT_3mcp5toolsNtB6_16DynamicQueryTool19extract_source_infos7_0B8_
FNDA:0,_RNCNvMs_NtCsi7GHPcvMyXT_3mcp5toolsNtB6_16DynamicQueryTool19extract_source_infos8_0B8_
FNDA:0,_RNCNvMs_NtCsi7GHPcvMyXT_3mcp5toolsNtB6_16DynamicQueryTool19extract_source_infos9_0B8_
FNDA:0,_RNCNvMs_NtCsi7GHPcvMyXT_3mcp5toolsNtB6_16DynamicQueryTool19extract_source_infos_0B8_
FNDA:0,_RNCNvMs_NtCsi7GHPcvMyXT_3mcp5toolsNtB6_16DynamicQueryTool19extract_source_infosa_0B8_
FNDA:0,_RNCNvMs_NtCsi7GHPcvMyXT_3mcp5toolsNtB6_16DynamicQueryTool19extract_source_infosb_0B8_
FNDA:0,_RNCNvMs_NtCsi7GHPcvMyXT_3mcp5toolsNtB6_16DynamicQueryTool25format_content_adaptively0B8_
FNDA:0,_RNCNvMs_NtCsi7GHPcvMyXT_3mcp5toolsNtB6_16DynamicQueryTool25format_content_adaptivelys0_0B8_
FNDA:0,_RNCNvMs_NtCsi7GHPcvMyXT_3mcp5toolsNtB6_16DynamicQueryTool25format_content_adaptivelys1_0B8_
FNDA:0,_RNCNvMs_NtCsi7GHPcvMyXT_3mcp5toolsNtB6_16DynamicQueryTool25format_content_adaptivelys2_0B8_
FNDA:0,_RNCNvMs_NtCsi7GHPcvMyXT_3mcp5toolsNtB6_16DynamicQueryTool25format_content_adaptivelys_0B8_
FNF:44
FNH:0
DA:39,0
DA:40,0
DA:42,0
DA:43,0
DA:44,0
DA:45,0
DA:46,0
DA:49,0
DA:50,0
DA:53,0
DA:56,0
DA:57,0
DA:58,0
DA:59,0
DA:60,0
DA:61,0
DA:63,0
DA:64,0
DA:65,0
DA:68,0
DA:69,0
DA:70,0
DA:73,0
DA:74,0
DA:75,0
DA:76,0
DA:77,0
DA:78,0
DA:79,0
DA:81,0
DA:82,0
DA:83,0
DA:84,0
DA:86,0
DA:90,0
DA:91,0
DA:96,0
DA:97,0
DA:98,0
DA:99,0
DA:100,0
DA:101,0
DA:102,0
DA:103,0
DA:104,0
DA:105,0
DA:107,0
DA:108,0
DA:109,0
DA:110,0
DA:111,0
DA:114,0
DA:117,0
DA:119,0
DA:122,0
DA:123,0
DA:135,0
DA:152,0
DA:153,0
DA:155,0
DA:156,0
DA:157,0
DA:158,0
DA:159,0
DA:160,0
DA:163,0
DA:164,0
DA:165,0
DA:166,0
DA:167,0
DA:168,0
DA:169,0
DA:170,0
DA:175,0
DA:178,0
DA:179,0
DA:180,0
DA:181,0
DA:182,0
DA:183,0
DA:184,0
DA:185,0
DA:186,0
DA:188,0
DA:189,0
DA:190,0
DA:191,0
DA:192,0
DA:193,0
DA:194,0
DA:197,0
DA:198,0
DA:199,0
DA:200,0
DA:201,0
DA:202,0
DA:205,0
DA:206,0
DA:207,0
DA:211,0
DA:212,0
DA:213,0
DA:214,0
DA:215,0
DA:216,0
DA:217,0
DA:218,0
DA:219,0
DA:220,0
DA:221,0
DA:222,0
DA:223,0
DA:224,0
DA:225,0
DA:226,0
DA:228,0
DA:229,0
DA:232,0
DA:234,0
DA:235,0
DA:236,0
DA:237,0
DA:238,0
DA:240,0
DA:241,0
DA:243,0
DA:244,0
DA:245,0
DA:246,0
DA:249,0
DA:251,0
DA:252,0
DA:253,0
DA:254,0
DA:255,0
DA:256,0
DA:257,0
DA:258,0
DA:259,0
DA:260,0
DA:261,0
DA:262,0
DA:264,0
DA:265,0
DA:269,0
DA:272,0
DA:274,0
DA:275,0
DA:277,0
DA:280,0
DA:285,0
DA:286,0
DA:287,0
DA:291,0
DA:294,0
DA:295,0
DA:296,0
DA:298,0
DA:299,0
DA:300,0
DA:301,0
DA:302,0
DA:303,0
DA:304,0
DA:307,0
DA:309,0
DA:310,0
DA:311,0
DA:312,0
DA:313,0
DA:314,0
DA:315,0
DA:316,0
DA:317,0
DA:318,0
DA:319,0
DA:320,0
DA:321,0
DA:322,0
DA:323,0
DA:324,0
DA:325,0
DA:326,0
DA:327,0
DA:329,0
DA:331,0
DA:332,0
DA:333,0
DA:334,0
DA:335,0
DA:336,0
DA:337,0
DA:338,0
DA:339,0
DA:340,0
DA:341,0
DA:342,0
DA:343,0
DA:347,0
DA:350,0
DA:354,0
DA:359,0
DA:361,0
DA:366,0
DA:367,0
DA:368,0
DA:369,0
DA:370,0
DA:372,0
DA:373,0
DA:374,0
DA:375,0
DA:376,0
DA:381,0
DA:382,0
DA:384,0
DA:385,0
DA:386,0
DA:387,0
DA:388,0
DA:389,0
DA:390,0
DA:392,0
DA:393,0
DA:394,0
DA:395,0
DA:396,0
DA:397,0
DA:398,0
DA:400,0
DA:401,0
DA:402,0
DA:403,0
DA:404,0
DA:405,0
DA:406,0
DA:408,0
DA:409,0
DA:410,0
DA:411,0
DA:412,0
DA:413,0
DA:414,0
DA:416,0
DA:417,0
DA:418,0
DA:419,0
DA:420,0
DA:421,0
DA:422,0
DA:423,0
DA:424,0
DA:425,0
DA:427,0
DA:428,0
DA:429,0
DA:430,0
DA:431,0
DA:432,0
DA:433,0
DA:436,0
DA:438,0
DA:441,0
DA:442,0
DA:457,0
DA:462,0
DA:463,0
DA:464,0
DA:467,0
DA:468,0
DA:469,0
DA:470,0
DA:471,0
DA:472,0
DA:473,0
DA:474,0
DA:475,0
DA:476,0
DA:477,0
DA:479,0
DA:480,0
DA:483,0
DA:484,0
DA:485,0
DA:486,0
DA:487,0
DA:488,0
DA:489,0
DA:490,0
DA:491,0
DA:492,0
DA:493,0
DA:494,0
DA:495,0
DA:496,0
DA:498,0
DA:499,0
DA:502,0
DA:503,0
DA:504,0
DA:505,0
DA:506,0
DA:507,0
DA:508,0
DA:509,0
DA:510,0
DA:511,0
DA:512,0
DA:513,0
DA:514,0
DA:515,0
DA:517,0
DA:518,0
DA:521,0
DA:522,0
DA:523,0
DA:524,0
DA:525,0
DA:526,0
DA:527,0
DA:528,0
DA:529,0
DA:530,0
DA:531,0
DA:533,0
DA:534,0
DA:537,0
DA:538,0
DA:539,0
DA:540,0
DA:541,0
DA:542,0
DA:543,0
DA:545,0
DA:546,0
DA:548,0
DA:549,0
DA:551,0
DA:553,0
BRF:0
BRH:0
LF:365
LH:0
end_of_record
SF:/workspace/agent-docs/mcp/src/transport.rs
FN:712,_RNCNCNvNtCsi7GHPcvMyXT_3mcp9transport20initialize_transport00B7_
FN:708,_RNCNvNtCsi7GHPcvMyXT_3mcp9transport20initialize_transport0B5_
FN:223,_RNvMs1_NtCsi7GHPcvMyXT_3mcp9transportNtB5_14SessionManager13session_count
FN:129,_RNvMs1_NtCsi7GHPcvMyXT_3mcp9transportNtB5_14SessionManager14create_session
FN:148,_RNvMs1_NtCsi7GHPcvMyXT_3mcp9transportNtB5_14SessionManager21get_or_create_session
FN:179,_RNvMs1_NtCsi7GHPcvMyXT_3mcp9transportNtB5_14SessionManager23update_session_activity
FN:199,_RNvMs1_NtCsi7GHPcvMyXT_3mcp9transportNtB5_14SessionManager24cleanup_expired_sessions
FN:117,_RNvMs1_NtCsi7GHPcvMyXT_3mcp9transportNtB5_14SessionManager3new
FN:94,_RNvMs_NtCsi7GHPcvMyXT_3mcp9transportNtB4_10McpSession10is_expired
FN:86,_RNvMs_NtCsi7GHPcvMyXT_3mcp9transportNtB4_10McpSession15update_activity
FN:74,_RNvMs_NtCsi7GHPcvMyXT_3mcp9transportNtB4_10McpSession3new
FN:457,_RNvNtCsi7GHPcvMyXT_3mcp9transport19extract_client_info
FN:325,_RNvNtCsi7GHPcvMyXT_3mcp9transport19unified_mcp_handler
FN:708,_RNvNtCsi7GHPcvMyXT_3mcp9transport20initialize_transport
FN:417,_RNvNtCsi7GHPcvMyXT_3mcp9transport22validate_accept_header
FN:591,_RNvNtCsi7GHPcvMyXT_3mcp9transport23handle_json_rpc_request
FN:368,_RNvNtCsi7GHPcvMyXT_3mcp9transport24unified_mcp_handler_impl
FN:522,_RNvNtCsi7GHPcvMyXT_3mcp9transport29handle_delete_session_request
FN:476,_RNvNtCsi7GHPcvMyXT_3mcp9transport35get_or_create_comprehensive_session
FN:41,_RNvXNtCsi7GHPcvMyXT_3mcp9transportNtB2_15TransportConfigNtNtCs66KPHxksi63_4core7default7Default7default
FN:102,_RNvXs0_NtCsi7GHPcvMyXT_3mcp9transportNtB5_10McpSessionNtNtCs66KPHxksi63_4core7default7Default7default
FN:276,_RNvXs2_NtCsi7GHPcvMyXT_3mcp9transportNtB5_14TransportErrorNtNtNtCsl3nYzWiYlSC_9axum_core8response13into_response12IntoResponse13into_response
FN:336,_RNCNCNvNtCsi7GHPcvMyXT_3mcp9transport19unified_mcp_handler00B7_
FN:352,_RNCNCNvNtCsi7GHPcvMyXT_3mcp9transport19unified_mcp_handler0s_0B7_
FN:617,_RNCNCNvNtCsi7GHPcvMyXT_3mcp9transport23handle_json_rpc_request00B7_
FN:660,_RNCNCNvNtCsi7GHPcvMyXT_3mcp9transport23handle_json_rpc_request0s0_0B7_
FN:668,_RNCNCNvNtCsi7GHPcvMyXT_3mcp9transport23handle_json_rpc_request0s1_0B7_
FN:649,_RNCNCNvNtCsi7GHPcvMyXT_3mcp9transport23handle_json_rpc_request0s_0B7_
FN:381,_RNCNCNvNtCsi7GHPcvMyXT_3mcp9transport24unified_mcp_handler_impl00B7_
FN:186,_RNCNvMs1_NtCsi7GHPcvMyXT_3mcp9transportNtB7_14SessionManager23update_session_activitys_0B9_
FN:206,_RNCNvMs1_NtCsi7GHPcvMyXT_3mcp9transportNtB7_14SessionManager24cleanup_expired_sessionss_0B9_
FN:97,_RNCNvMs_NtCsi7GHPcvMyXT_3mcp9transportNtB6_10McpSession10is_expired0B8_
FN:461,_RNCNvNtCsi7GHPcvMyXT_3mcp9transport19extract_client_info0B5_
FN:465,_RNCNvNtCsi7GHPcvMyXT_3mcp9transport19extract_client_infos_0B5_
FN:329,_RNCNvNtCsi7GHPcvMyXT_3mcp9transport19unified_mcp_handler0B5_
FN:596,_RNCNvNtCsi7GHPcvMyXT_3mcp9transport23handle_json_rpc_request0B5_
FN:373,_RNCNvNtCsi7GHPcvMyXT_3mcp9transport24unified_mcp_handler_impl0B5_
FN:514,_RNCNvNtCsi7GHPcvMyXT_3mcp9transport35get_or_create_comprehensive_session0B5_
FN:712,_RNCNCNvNtCsi7GHPcvMyXT_3mcp9transport20initialize_transport00CsiLqmQIFToUG_11http_server
FN:708,_RNCNvNtCsi7GHPcvMyXT_3mcp9transport20initialize_transport0CsiLqmQIFToUG_11http_server
FNDA:0,_RNCNCNvNtCsi7GHPcvMyXT_3mcp9transport20initialize_transport00B7_
FNDA:0,_RNCNvNtCsi7GHPcvMyXT_3mcp9transport20initialize_transport0B5_
FNDA:0,_RNvMs1_NtCsi7GHPcvMyXT_3mcp9transportNtB5_14SessionManager13session_count
FNDA:0,_RNvMs1_NtCsi7GHPcvMyXT_3mcp9transportNtB5_14SessionManager14create_session
FNDA:0,_RNvMs1_NtCsi7GHPcvMyXT_3mcp9transportNtB5_14SessionManager21get_or_create_session
FNDA:0,_RNvMs1_NtCsi7GHPcvMyXT_3mcp9transportNtB5_14SessionManager23update_session_activity
FNDA:0,_RNvMs1_NtCsi7GHPcvMyXT_3mcp9transportNtB5_14SessionManager24cleanup_expired_sessions
FNDA:0,_RNvMs1_NtCsi7GHPcvMyXT_3mcp9transportNtB5_14SessionManager3new
FNDA:0,_RNvMs_NtCsi7GHPcvMyXT_3mcp9transportNtB4_10McpSession10is_expired
FNDA:0,_RNvMs_NtCsi7GHPcvMyXT_3mcp9transportNtB4_10McpSession15update_activity
FNDA:0,_RNvMs_NtCsi7GHPcvMyXT_3mcp9transportNtB4_10McpSession3new
FNDA:0,_RNvNtCsi7GHPcvMyXT_3mcp9transport19extract_client_info
FNDA:0,_RNvNtCsi7GHPcvMyXT_3mcp9transport19unified_mcp_handler
FNDA:0,_RNvNtCsi7GHPcvMyXT_3mcp9transport20initialize_transport
FNDA:0,_RNvNtCsi7GHPcvMyXT_3mcp9transport22validate_accept_header
FNDA:0,_RNvNtCsi7GHPcvMyXT_3mcp9transport23handle_json_rpc_request
FNDA:0,_RNvNtCsi7GHPcvMyXT_3mcp9transport24unified_mcp_handler_impl
FNDA:0,_RNvNtCsi7GHPcvMyXT_3mcp9transport29handle_delete_session_request
FNDA:0,_RNvNtCsi7GHPcvMyXT_3mcp9transport35get_or_create_comprehensive_session
FNDA:0,_RNvXNtCsi7GHPcvMyXT_3mcp9transportNtB2_15TransportConfigNtNtCs66KPHxksi63_4core7default7Default7default
FNDA:0,_RNvXs0_NtCsi7GHPcvMyXT_3mcp9transportNtB5_10McpSessionNtNtCs66KPHxksi63_4core7default7Default7default
FNDA:0,_RNvXs2_NtCsi7GHPcvMyXT_3mcp9transportNtB5_14TransportErrorNtNtNtCsl3nYzWiYlSC_9axum_core8response13into_response12IntoResponse13into_response
FNDA:0,_RNCNCNvNtCsi7GHPcvMyXT_3mcp9transport19unified_mcp_handler00B7_
FNDA:0,_RNCNCNvNtCsi7GHPcvMyXT_3mcp9transport19unified_mcp_handler0s_0B7_
FNDA:0,_RNCNCNvNtCsi7GHPcvMyXT_3mcp9transport23handle_json_rpc_request00B7_
FNDA:0,_RNCNCNvNtCsi7GHPcvMyXT_3mcp9transport23handle_json_rpc_request0s0_0B7_
FNDA:0,_RNCNCNvNtCsi7GHPcvMyXT_3mcp9transport23handle_json_rpc_request0s1_0B7_
FNDA:0,_RNCNCNvNtCsi7GHPcvMyXT_3mcp9transport23handle_json_rpc_request0s_0B7_
FNDA:0,_RNCNCNvNtCsi7GHPcvMyXT_3mcp9transport24unified_mcp_handler_impl00B7_
FNDA:0,_RNCNvMs1_NtCsi7GHPcvMyXT_3mcp9transportNtB7_14SessionManager23update_session_activitys_0B9_
FNDA:0,_RNCNvMs1_NtCsi7GHPcvMyXT_3mcp9transportNtB7_14SessionManager24cleanup_expired_sessionss_0B9_
FNDA:0,_RNCNvMs_NtCsi7GHPcvMyXT_3mcp9transportNtB6_10McpSession10is_expired0B8_
FNDA:0,_RNCNvNtCsi7GHPcvMyXT_3mcp9transport19extract_client_info0B5_
FNDA:0,_RNCNvNtCsi7GHPcvMyXT_3mcp9transport19extract_client_infos_0B5_
FNDA:0,_RNCNvNtCsi7GHPcvMyXT_3mcp9transport19unified_mcp_handler0B5_
FNDA:0,_RNCNvNtCsi7GHPcvMyXT_3mcp9transport23handle_json_rpc_request0B5_
FNDA:0,_RNCNvNtCsi7GHPcvMyXT_3mcp9transport24unified_mcp_handler_impl0B5_
FNDA:0,_RNCNvNtCsi7GHPcvMyXT_3mcp9transport35get_or_create_comprehensive_session0B5_
FNDA:0,_RNCNCNvNtCsi7GHPcvMyXT_3mcp9transport20initialize_transport00CsiLqmQIFToUG_11http_server
FNDA:0,_RNCNvNtCsi7GHPcvMyXT_3mcp9transport20initialize_transport0CsiLqmQIFToUG_11http_server
FNF:38
FNH:0
DA:41,0
DA:42,0
DA:43,0
DA:44,0
DA:45,0
DA:46,0
DA:47,0
DA:48,0
DA:74,0
DA:75,0
DA:76,0
DA:77,0
DA:78,0
DA:79,0
DA:80,0
DA:81,0
DA:82,0
DA:83,0
DA:86,0
DA:87,0
DA:88,0
DA:89,0
DA:90,0
DA:94,0
DA:95,0
DA:96,0
DA:97,0
DA:98,0
DA:102,0
DA:103,0
DA:104,0
DA:117,0
DA:118,0
DA:119,0
DA:120,0
DA:121,0
DA:122,0
DA:129,0
DA:130,0
DA:131,0
DA:133,0
DA:134,0
DA:135,0
DA:136,0
DA:138,0
DA:139,0
DA:140,0
DA:148,0
DA:150,0
DA:151,0
DA:152,0
DA:154,0
DA:155,0
DA:156,0
DA:157,0
DA:159,0
DA:160,0
DA:161,0
DA:163,0
DA:164,0
DA:165,0
DA:166,0
DA:167,0
DA:170,0
DA:171,0
DA:179,0
DA:180,0
DA:181,0
DA:182,0
DA:183,0
DA:184,0
DA:185,0
DA:186,0
DA:187,0
DA:188,0
DA:189,0
DA:191,0
DA:199,0
DA:200,0
DA:201,0
DA:202,0
DA:203,0
DA:204,0
DA:206,0
DA:208,0
DA:209,0
DA:210,0
DA:211,0
DA:212,0
DA:214,0
DA:215,0
DA:223,0
DA:224,0
DA:225,0
DA:226,0
DA:227,0
DA:228,0
DA:229,0
DA:276,0
DA:277,0
DA:278,0
DA:280,0
DA:282,0
DA:283,0
DA:284,0
DA:285,0
DA:286,0
DA:287,0
DA:288,0
DA:289,0
DA:291,0
DA:293,0
DA:294,0
DA:297,0
DA:299,0
DA:300,0
DA:301,0
DA:302,0
DA:303,0
DA:307,0
DA:308,0
DA:310,0
DA:311,0
DA:325,0
DA:326,0
DA:327,0
DA:328,0
DA:329,0
DA:331,0
DA:334,0
DA:335,0
DA:336,0
DA:337,0
DA:338,0
DA:340,0
DA:341,0
DA:344,0
DA:352,0
DA:354,0
DA:356,0
DA:357,0
DA:361,0
DA:362,0
DA:363,0
DA:364,0
DA:365,0
DA:368,0
DA:369,0
DA:370,0
DA:371,0
DA:372,0
DA:373,0
DA:375,0
DA:376,0
DA:377,0
DA:379,0
DA:380,0
DA:381,0
DA:382,0
DA:383,0
DA:385,0
DA:386,0
DA:387,0
DA:389,0
DA:393,0
DA:395,0
DA:396,0
DA:397,0
DA:400,0
DA:401,0
DA:402,0
DA:405,0
DA:406,0
DA:407,0
DA:410,0
DA:417,0
DA:418,0
DA:419,0
DA:420,0
DA:423,0
DA:425,0
DA:426,0
DA:427,0
DA:429,0
DA:431,0
DA:432,0
DA:433,0
DA:434,0
DA:439,0
DA:441,0
DA:444,0
DA:445,0
DA:446,0
DA:447,0
DA:451,0
DA:452,0
DA:454,0
DA:457,0
DA:459,0
DA:460,0
DA:461,0
DA:462,0
DA:463,0
DA:464,0
DA:465,0
DA:466,0
DA:467,0
DA:469,0
DA:476,0
DA:477,0
DA:478,0
DA:479,0
DA:480,0
DA:482,0
DA:483,0
DA:484,0
DA:486,0
DA:487,0
DA:488,0
DA:489,0
DA:490,0
DA:492,0
DA:493,0
DA:494,0
DA:499,0
DA:500,0
DA:501,0
DA:502,0
DA:503,0
DA:505,0
DA:506,0
DA:507,0
DA:508,0
DA:511,0
DA:512,0
DA:513,0
DA:514,0
DA:516,0
DA:517,0
DA:518,0
DA:519,0
DA:522,0
DA:523,0
DA:524,0
DA:525,0
DA:526,0
DA:527,0
DA:530,0
DA:531,0
DA:532,0
DA:533,0
DA:535,0
DA:536,0
DA:537,0
DA:538,0
DA:541,0
DA:542,0
DA:543,0
DA:545,0
DA:546,0
DA:547,0
DA:548,0
DA:550,0
DA:551,0
DA:554,0
DA:555,0
DA:556,0
DA:558,0
DA:560,0
DA:563,0
DA:564,0
DA:565,0
DA:567,0
DA:570,0
DA:571,0
DA:574,0
DA:577,0
DA:578,0
DA:579,0
DA:580,0
DA:583,0
DA:584,0
DA:585,0
DA:586,0
DA:588,0
DA:591,0
DA:592,0
DA:593,0
DA:594,0
DA:595,0
DA:596,0
DA:597,0
DA:600,0
DA:601,0
DA:602,0
DA:603,0
DA:604,0
DA:606,0
DA:607,0
DA:608,0
DA:609,0
DA:610,0
DA:613,0
DA:614,0
DA:615,0
DA:616,0
DA:617,0
DA:619,0
DA:620,0
DA:621,0
DA:624,0
DA:627,0
DA:630,0
DA:633,0
DA:636,0
DA:637,0
DA:638,0
DA:639,0
DA:640,0
DA:641,0
DA:642,0
DA:643,0
DA:644,0
DA:647,0
DA:648,0
DA:649,0
DA:650,0
DA:651,0
DA:652,0
DA:653,0
DA:655,0
DA:657,0
DA:660,0
DA:661,0
DA:662,0
DA:663,0
DA:666,0
DA:667,0
DA:668,0
DA:670,0
DA:674,0
DA:679,0
DA:680,0
DA:681,0
DA:682,0
DA:685,0
DA:686,0
DA:687,0
DA:690,0
DA:691,0
DA:692,0
DA:694,0
DA:696,0
DA:697,0
DA:698,0
DA:699,0
DA:702,0
DA:708,0
DA:709,0
DA:710,0
DA:712,0
DA:713,0
DA:716,0
DA:718,0
DA:719,0
DA:720,0
DA:721,0
DA:722,0
DA:724,0
DA:725,0
DA:731,0
DA:732,0
BRF:0
BRH:0
LF:390
LH:0
end_of_record